Archive member included because of file (symbol)

c:/altera/11.1/nios2eds/bin/gnu/h-i686-mingw32/bin/../lib/gcc/nios2-elf/4.1.2/../../../../nios2-elf/lib/mhw-mulx\libm.a(lib_a-s_round.o)
                              obj/Debug/packet10g.o (round)
c:/altera/11.1/nios2eds/bin/gnu/h-i686-mingw32/bin/../lib/gcc/nios2-elf/4.1.2/mhw-mulx\libgcc.a(_fixunssfsi.o)
                              obj/Debug/main.o (__fixunssfsi)
c:/altera/11.1/nios2eds/bin/gnu/h-i686-mingw32/bin/../lib/gcc/nios2-elf/4.1.2/mhw-mulx\libgcc.a(_fixunsdfsi.o)
                              obj/Debug/config10g.o (__fixunsdfsi)
c:/altera/11.1/nios2eds/bin/gnu/h-i686-mingw32/bin/../lib/gcc/nios2-elf/4.1.2/mhw-mulx\libgcc.a(_fixunsdfdi.o)
                              obj/Debug/packet10g.o (__fixunsdfdi)
c:/altera/11.1/nios2eds/bin/gnu/h-i686-mingw32/bin/../lib/gcc/nios2-elf/4.1.2/mhw-mulx\libgcc.a(_floatdidf.o)
                              obj/Debug/packet10g.o (__floatdidf)
c:/altera/11.1/nios2eds/bin/gnu/h-i686-mingw32/bin/../lib/gcc/nios2-elf/4.1.2/mhw-mulx\libgcc.a(_floatundidf.o)
                              obj/Debug/c37dot94bert.o (__floatundidf)
c:/altera/11.1/nios2eds/bin/gnu/h-i686-mingw32/bin/../lib/gcc/nios2-elf/4.1.2/mhw-mulx\libgcc.a(_divdi3.o)
                              obj/Debug/packet10g.o (__divdi3)
c:/altera/11.1/nios2eds/bin/gnu/h-i686-mingw32/bin/../lib/gcc/nios2-elf/4.1.2/mhw-mulx\libgcc.a(_addsub_sf.o)
                              c:/altera/11.1/nios2eds/bin/gnu/h-i686-mingw32/bin/../lib/gcc/nios2-elf/4.1.2/mhw-mulx\libgcc.a(_fixunssfsi.o) (__subsf3)
c:/altera/11.1/nios2eds/bin/gnu/h-i686-mingw32/bin/../lib/gcc/nios2-elf/4.1.2/mhw-mulx\libgcc.a(_mul_sf.o)
                              obj/Debug/packet10g.o (__mulsf3)
c:/altera/11.1/nios2eds/bin/gnu/h-i686-mingw32/bin/../lib/gcc/nios2-elf/4.1.2/mhw-mulx\libgcc.a(_eq_sf.o)
                              obj/Debug/packet10g.o (__eqsf2)
c:/altera/11.1/nios2eds/bin/gnu/h-i686-mingw32/bin/../lib/gcc/nios2-elf/4.1.2/mhw-mulx\libgcc.a(_ge_sf.o)
                              c:/altera/11.1/nios2eds/bin/gnu/h-i686-mingw32/bin/../lib/gcc/nios2-elf/4.1.2/mhw-mulx\libgcc.a(_fixunssfsi.o) (__gesf2)
c:/altera/11.1/nios2eds/bin/gnu/h-i686-mingw32/bin/../lib/gcc/nios2-elf/4.1.2/mhw-mulx\libgcc.a(_sf_to_si.o)
                              obj/Debug/packet10g.o (__fixsfsi)
c:/altera/11.1/nios2eds/bin/gnu/h-i686-mingw32/bin/../lib/gcc/nios2-elf/4.1.2/mhw-mulx\libgcc.a(_sf_to_df.o)
                              obj/Debug/config10g.o (__extendsfdf2)
c:/altera/11.1/nios2eds/bin/gnu/h-i686-mingw32/bin/../lib/gcc/nios2-elf/4.1.2/mhw-mulx\libgcc.a(_thenan_sf.o)
                              c:/altera/11.1/nios2eds/bin/gnu/h-i686-mingw32/bin/../lib/gcc/nios2-elf/4.1.2/mhw-mulx\libgcc.a(_addsub_sf.o) (__thenan_sf)
c:/altera/11.1/nios2eds/bin/gnu/h-i686-mingw32/bin/../lib/gcc/nios2-elf/4.1.2/mhw-mulx\libgcc.a(_usi_to_sf.o)
                              obj/Debug/config10g.o (__floatunsisf)
c:/altera/11.1/nios2eds/bin/gnu/h-i686-mingw32/bin/../lib/gcc/nios2-elf/4.1.2/mhw-mulx\libgcc.a(_addsub_df.o)
                              c:/altera/11.1/nios2eds/bin/gnu/h-i686-mingw32/bin/../lib/gcc/nios2-elf/4.1.2/mhw-mulx\libgcc.a(_fixunsdfsi.o) (__subdf3)
c:/altera/11.1/nios2eds/bin/gnu/h-i686-mingw32/bin/../lib/gcc/nios2-elf/4.1.2/mhw-mulx\libgcc.a(_mul_df.o)
                              obj/Debug/config10g.o (__muldf3)
c:/altera/11.1/nios2eds/bin/gnu/h-i686-mingw32/bin/../lib/gcc/nios2-elf/4.1.2/mhw-mulx\libgcc.a(_div_df.o)
                              obj/Debug/c37dot94bert.o (__divdf3)
c:/altera/11.1/nios2eds/bin/gnu/h-i686-mingw32/bin/../lib/gcc/nios2-elf/4.1.2/mhw-mulx\libgcc.a(_gt_df.o)
                              obj/Debug/packet10g.o (__gtdf2)
c:/altera/11.1/nios2eds/bin/gnu/h-i686-mingw32/bin/../lib/gcc/nios2-elf/4.1.2/mhw-mulx\libgcc.a(_ge_df.o)
                              c:/altera/11.1/nios2eds/bin/gnu/h-i686-mingw32/bin/../lib/gcc/nios2-elf/4.1.2/mhw-mulx\libgcc.a(_fixunsdfsi.o) (__gedf2)
c:/altera/11.1/nios2eds/bin/gnu/h-i686-mingw32/bin/../lib/gcc/nios2-elf/4.1.2/mhw-mulx\libgcc.a(_si_to_df.o)
                              obj/Debug/main.o (__floatsidf)
c:/altera/11.1/nios2eds/bin/gnu/h-i686-mingw32/bin/../lib/gcc/nios2-elf/4.1.2/mhw-mulx\libgcc.a(_df_to_si.o)
                              obj/Debug/packet10g.o (__fixdfsi)
c:/altera/11.1/nios2eds/bin/gnu/h-i686-mingw32/bin/../lib/gcc/nios2-elf/4.1.2/mhw-mulx\libgcc.a(_make_df.o)
                              c:/altera/11.1/nios2eds/bin/gnu/h-i686-mingw32/bin/../lib/gcc/nios2-elf/4.1.2/mhw-mulx\libgcc.a(_sf_to_df.o) (__make_dp)
c:/altera/11.1/nios2eds/bin/gnu/h-i686-mingw32/bin/../lib/gcc/nios2-elf/4.1.2/mhw-mulx\libgcc.a(_df_to_sf.o)
                              obj/Debug/packet10g.o (__truncdfsf2)
c:/altera/11.1/nios2eds/bin/gnu/h-i686-mingw32/bin/../lib/gcc/nios2-elf/4.1.2/mhw-mulx\libgcc.a(_thenan_df.o)
                              c:/altera/11.1/nios2eds/bin/gnu/h-i686-mingw32/bin/../lib/gcc/nios2-elf/4.1.2/mhw-mulx\libgcc.a(_addsub_df.o) (__thenan_df)
c:/altera/11.1/nios2eds/bin/gnu/h-i686-mingw32/bin/../lib/gcc/nios2-elf/4.1.2/mhw-mulx\libgcc.a(_usi_to_df.o)
                              obj/Debug/c37dot94bert.o (__floatunsidf)
c:/altera/11.1/nios2eds/bin/gnu/h-i686-mingw32/bin/../lib/gcc/nios2-elf/4.1.2/mhw-mulx\libgcc.a(lib2-divmod.o)
                              c:/altera/11.1/nios2eds/bin/gnu/h-i686-mingw32/bin/../lib/gcc/nios2-elf/4.1.2/mhw-mulx\libgcc.a(_divdi3.o) (__udivsi3)
c:/altera/11.1/nios2eds/bin/gnu/h-i686-mingw32/bin/../lib/gcc/nios2-elf/4.1.2/mhw-mulx\libgcc.a(_clz.o)
                              c:/altera/11.1/nios2eds/bin/gnu/h-i686-mingw32/bin/../lib/gcc/nios2-elf/4.1.2/mhw-mulx\libgcc.a(_divdi3.o) (__clz_tab)
c:/altera/11.1/nios2eds/bin/gnu/h-i686-mingw32/bin/../lib/gcc/nios2-elf/4.1.2/mhw-mulx\libgcc.a(_clzsi2.o)
                              c:/altera/11.1/nios2eds/bin/gnu/h-i686-mingw32/bin/../lib/gcc/nios2-elf/4.1.2/mhw-mulx\libgcc.a(_usi_to_sf.o) (__clzsi2)
c:/altera/11.1/nios2eds/bin/gnu/h-i686-mingw32/bin/../lib/gcc/nios2-elf/4.1.2/mhw-mulx\libgcc.a(_pack_sf.o)
                              c:/altera/11.1/nios2eds/bin/gnu/h-i686-mingw32/bin/../lib/gcc/nios2-elf/4.1.2/mhw-mulx\libgcc.a(_addsub_sf.o) (__pack_f)
c:/altera/11.1/nios2eds/bin/gnu/h-i686-mingw32/bin/../lib/gcc/nios2-elf/4.1.2/mhw-mulx\libgcc.a(_unpack_sf.o)
                              c:/altera/11.1/nios2eds/bin/gnu/h-i686-mingw32/bin/../lib/gcc/nios2-elf/4.1.2/mhw-mulx\libgcc.a(_addsub_sf.o) (__unpack_f)
c:/altera/11.1/nios2eds/bin/gnu/h-i686-mingw32/bin/../lib/gcc/nios2-elf/4.1.2/mhw-mulx\libgcc.a(_fpcmp_parts_sf.o)
                              c:/altera/11.1/nios2eds/bin/gnu/h-i686-mingw32/bin/../lib/gcc/nios2-elf/4.1.2/mhw-mulx\libgcc.a(_eq_sf.o) (__fpcmp_parts_f)
c:/altera/11.1/nios2eds/bin/gnu/h-i686-mingw32/bin/../lib/gcc/nios2-elf/4.1.2/mhw-mulx\libgcc.a(_make_sf.o)
                              c:/altera/11.1/nios2eds/bin/gnu/h-i686-mingw32/bin/../lib/gcc/nios2-elf/4.1.2/mhw-mulx\libgcc.a(_df_to_sf.o) (__make_fp)
c:/altera/11.1/nios2eds/bin/gnu/h-i686-mingw32/bin/../lib/gcc/nios2-elf/4.1.2/mhw-mulx\libgcc.a(_pack_df.o)
                              c:/altera/11.1/nios2eds/bin/gnu/h-i686-mingw32/bin/../lib/gcc/nios2-elf/4.1.2/mhw-mulx\libgcc.a(_addsub_df.o) (__pack_d)
c:/altera/11.1/nios2eds/bin/gnu/h-i686-mingw32/bin/../lib/gcc/nios2-elf/4.1.2/mhw-mulx\libgcc.a(_unpack_df.o)
                              c:/altera/11.1/nios2eds/bin/gnu/h-i686-mingw32/bin/../lib/gcc/nios2-elf/4.1.2/mhw-mulx\libgcc.a(_addsub_df.o) (__unpack_d)
c:/altera/11.1/nios2eds/bin/gnu/h-i686-mingw32/bin/../lib/gcc/nios2-elf/4.1.2/mhw-mulx\libgcc.a(_fpcmp_parts_df.o)
                              c:/altera/11.1/nios2eds/bin/gnu/h-i686-mingw32/bin/../lib/gcc/nios2-elf/4.1.2/mhw-mulx\libgcc.a(_gt_df.o) (__fpcmp_parts_d)
c:/altera/11.1/nios2eds/bin/gnu/h-i686-mingw32/bin/../lib/gcc/nios2-elf/4.1.2/../../../../nios2-elf/lib/mhw-mulx\libc.a(lib_a-printf.o)
                              obj/Debug/c37dot94.o (printf)
c:/altera/11.1/nios2eds/bin/gnu/h-i686-mingw32/bin/../lib/gcc/nios2-elf/4.1.2/../../../../nios2-elf/lib/mhw-mulx\libc.a(lib_a-putchar.o)
                              obj/Debug/c37dot94.o (putchar)
c:/altera/11.1/nios2eds/bin/gnu/h-i686-mingw32/bin/../lib/gcc/nios2-elf/4.1.2/../../../../nios2-elf/lib/mhw-mulx\libc.a(lib_a-puts.o)
                              obj/Debug/c37dot94.o (puts)
c:/altera/11.1/nios2eds/bin/gnu/h-i686-mingw32/bin/../lib/gcc/nios2-elf/4.1.2/../../../../nios2-elf/lib/mhw-mulx\libc.a(lib_a-strlen.o)
                              obj/Debug/helpers.o (strlen)
c:/altera/11.1/nios2eds/bin/gnu/h-i686-mingw32/bin/../lib/gcc/nios2-elf/4.1.2/../../../../nios2-elf/lib/mhw-mulx\libc.a(lib_a-strncmp.o)
                              obj/Debug/helpers.o (strncmp)
c:/altera/11.1/nios2eds/bin/gnu/h-i686-mingw32/bin/../lib/gcc/nios2-elf/4.1.2/../../../../nios2-elf/lib/mhw-mulx\libc.a(lib_a-vfprintf.o)
                              c:/altera/11.1/nios2eds/bin/gnu/h-i686-mingw32/bin/../lib/gcc/nios2-elf/4.1.2/../../../../nios2-elf/lib/mhw-mulx\libc.a(lib_a-printf.o) (___vfprintf_internal_r)
c:/altera/11.1/nios2eds/bin/gnu/h-i686-mingw32/bin/../lib/gcc/nios2-elf/4.1.2/../../../../nios2-elf/lib/mhw-mulx\libc.a(lib_a-wsetup.o)
                              c:/altera/11.1/nios2eds/bin/gnu/h-i686-mingw32/bin/../lib/gcc/nios2-elf/4.1.2/../../../../nios2-elf/lib/mhw-mulx\libc.a(lib_a-vfprintf.o) (__swsetup_r)
c:/altera/11.1/nios2eds/bin/gnu/h-i686-mingw32/bin/../lib/gcc/nios2-elf/4.1.2/../../../../nios2-elf/lib/mhw-mulx\libc.a(lib_a-dtoa.o)
                              c:/altera/11.1/nios2eds/bin/gnu/h-i686-mingw32/bin/../lib/gcc/nios2-elf/4.1.2/../../../../nios2-elf/lib/mhw-mulx\libc.a(lib_a-vfprintf.o) (_dtoa_r)
c:/altera/11.1/nios2eds/bin/gnu/h-i686-mingw32/bin/../lib/gcc/nios2-elf/4.1.2/../../../../nios2-elf/lib/mhw-mulx\libc.a(lib_a-fflush.o)
                              c:/altera/11.1/nios2eds/bin/gnu/h-i686-mingw32/bin/../lib/gcc/nios2-elf/4.1.2/../../../../nios2-elf/lib/mhw-mulx\libc.a(lib_a-vfprintf.o) (_fflush_r)
c:/altera/11.1/nios2eds/bin/gnu/h-i686-mingw32/bin/../lib/gcc/nios2-elf/4.1.2/../../../../nios2-elf/lib/mhw-mulx\libc.a(lib_a-findfp.o)
                              c:/altera/11.1/nios2eds/bin/gnu/h-i686-mingw32/bin/../lib/gcc/nios2-elf/4.1.2/../../../../nios2-elf/lib/mhw-mulx\libc.a(lib_a-vfprintf.o) (__sinit)
c:/altera/11.1/nios2eds/bin/gnu/h-i686-mingw32/bin/../lib/gcc/nios2-elf/4.1.2/../../../../nios2-elf/lib/mhw-mulx\libc.a(lib_a-freer.o)
                              c:/altera/11.1/nios2eds/bin/gnu/h-i686-mingw32/bin/../lib/gcc/nios2-elf/4.1.2/../../../../nios2-elf/lib/mhw-mulx\libc.a(lib_a-wsetup.o) (_free_r)
c:/altera/11.1/nios2eds/bin/gnu/h-i686-mingw32/bin/../lib/gcc/nios2-elf/4.1.2/../../../../nios2-elf/lib/mhw-mulx\libc.a(lib_a-fvwrite.o)
                              c:/altera/11.1/nios2eds/bin/gnu/h-i686-mingw32/bin/../lib/gcc/nios2-elf/4.1.2/../../../../nios2-elf/lib/mhw-mulx\libc.a(lib_a-puts.o) (__sfvwrite_r)
c:/altera/11.1/nios2eds/bin/gnu/h-i686-mingw32/bin/../lib/gcc/nios2-elf/4.1.2/../../../../nios2-elf/lib/mhw-mulx\libc.a(lib_a-fwalk.o)
                              c:/altera/11.1/nios2eds/bin/gnu/h-i686-mingw32/bin/../lib/gcc/nios2-elf/4.1.2/../../../../nios2-elf/lib/mhw-mulx\libc.a(lib_a-fflush.o) (_fwalk_reent)
c:/altera/11.1/nios2eds/bin/gnu/h-i686-mingw32/bin/../lib/gcc/nios2-elf/4.1.2/../../../../nios2-elf/lib/mhw-mulx\libc.a(lib_a-impure.o)
                              c:/altera/11.1/nios2eds/bin/gnu/h-i686-mingw32/bin/../lib/gcc/nios2-elf/4.1.2/../../../../nios2-elf/lib/mhw-mulx\libc.a(lib_a-printf.o) (_impure_ptr)
c:/altera/11.1/nios2eds/bin/gnu/h-i686-mingw32/bin/../lib/gcc/nios2-elf/4.1.2/../../../../nios2-elf/lib/mhw-mulx\libc.a(lib_a-locale.o)
                              c:/altera/11.1/nios2eds/bin/gnu/h-i686-mingw32/bin/../lib/gcc/nios2-elf/4.1.2/../../../../nios2-elf/lib/mhw-mulx\libc.a(lib_a-vfprintf.o) (_localeconv_r)
c:/altera/11.1/nios2eds/bin/gnu/h-i686-mingw32/bin/../lib/gcc/nios2-elf/4.1.2/../../../../nios2-elf/lib/mhw-mulx\libc.a(lib_a-makebuf.o)
                              c:/altera/11.1/nios2eds/bin/gnu/h-i686-mingw32/bin/../lib/gcc/nios2-elf/4.1.2/../../../../nios2-elf/lib/mhw-mulx\libc.a(lib_a-wsetup.o) (__smakebuf_r)
c:/altera/11.1/nios2eds/bin/gnu/h-i686-mingw32/bin/../lib/gcc/nios2-elf/4.1.2/../../../../nios2-elf/lib/mhw-mulx\libc.a(lib_a-mallocr.o)
                              c:/altera/11.1/nios2eds/bin/gnu/h-i686-mingw32/bin/../lib/gcc/nios2-elf/4.1.2/../../../../nios2-elf/lib/mhw-mulx\libc.a(lib_a-findfp.o) (_malloc_r)
c:/altera/11.1/nios2eds/bin/gnu/h-i686-mingw32/bin/../lib/gcc/nios2-elf/4.1.2/../../../../nios2-elf/lib/mhw-mulx\libc.a(lib_a-memchr.o)
                              c:/altera/11.1/nios2eds/bin/gnu/h-i686-mingw32/bin/../lib/gcc/nios2-elf/4.1.2/../../../../nios2-elf/lib/mhw-mulx\libc.a(lib_a-vfprintf.o) (memchr)
c:/altera/11.1/nios2eds/bin/gnu/h-i686-mingw32/bin/../lib/gcc/nios2-elf/4.1.2/../../../../nios2-elf/lib/mhw-mulx\libc.a(lib_a-memcpy.o)
                              c:/altera/11.1/nios2eds/bin/gnu/h-i686-mingw32/bin/../lib/gcc/nios2-elf/4.1.2/../../../../nios2-elf/lib/mhw-mulx\libc.a(lib_a-dtoa.o) (memcpy)
c:/altera/11.1/nios2eds/bin/gnu/h-i686-mingw32/bin/../lib/gcc/nios2-elf/4.1.2/../../../../nios2-elf/lib/mhw-mulx\libc.a(lib_a-memmove.o)
                              c:/altera/11.1/nios2eds/bin/gnu/h-i686-mingw32/bin/../lib/gcc/nios2-elf/4.1.2/../../../../nios2-elf/lib/mhw-mulx\libc.a(lib_a-fvwrite.o) (memmove)
c:/altera/11.1/nios2eds/bin/gnu/h-i686-mingw32/bin/../lib/gcc/nios2-elf/4.1.2/../../../../nios2-elf/lib/mhw-mulx\libc.a(lib_a-memset.o)
                              c:/altera/11.1/nios2eds/bin/gnu/h-i686-mingw32/bin/../lib/gcc/nios2-elf/4.1.2/../../../../nios2-elf/lib/mhw-mulx\libc.a(lib_a-findfp.o) (memset)
c:/altera/11.1/nios2eds/bin/gnu/h-i686-mingw32/bin/../lib/gcc/nios2-elf/4.1.2/../../../../nios2-elf/lib/mhw-mulx\libc.a(lib_a-mprec.o)
                              c:/altera/11.1/nios2eds/bin/gnu/h-i686-mingw32/bin/../lib/gcc/nios2-elf/4.1.2/../../../../nios2-elf/lib/mhw-mulx\libc.a(lib_a-dtoa.o) (_Bfree)
c:/altera/11.1/nios2eds/bin/gnu/h-i686-mingw32/bin/../lib/gcc/nios2-elf/4.1.2/../../../../nios2-elf/lib/mhw-mulx\libc.a(lib_a-putc.o)
                              c:/altera/11.1/nios2eds/bin/gnu/h-i686-mingw32/bin/../lib/gcc/nios2-elf/4.1.2/../../../../nios2-elf/lib/mhw-mulx\libc.a(lib_a-putchar.o) (_putc_r)
c:/altera/11.1/nios2eds/bin/gnu/h-i686-mingw32/bin/../lib/gcc/nios2-elf/4.1.2/../../../../nios2-elf/lib/mhw-mulx\libc.a(lib_a-reallocr.o)
                              c:/altera/11.1/nios2eds/bin/gnu/h-i686-mingw32/bin/../lib/gcc/nios2-elf/4.1.2/../../../../nios2-elf/lib/mhw-mulx\libc.a(lib_a-fvwrite.o) (_realloc_r)
c:/altera/11.1/nios2eds/bin/gnu/h-i686-mingw32/bin/../lib/gcc/nios2-elf/4.1.2/../../../../nios2-elf/lib/mhw-mulx\libc.a(lib_a-s_isinfd.o)
                              c:/altera/11.1/nios2eds/bin/gnu/h-i686-mingw32/bin/../lib/gcc/nios2-elf/4.1.2/../../../../nios2-elf/lib/mhw-mulx\libc.a(lib_a-vfprintf.o) (__isinfd)
c:/altera/11.1/nios2eds/bin/gnu/h-i686-mingw32/bin/../lib/gcc/nios2-elf/4.1.2/../../../../nios2-elf/lib/mhw-mulx\libc.a(lib_a-s_isnand.o)
                              c:/altera/11.1/nios2eds/bin/gnu/h-i686-mingw32/bin/../lib/gcc/nios2-elf/4.1.2/../../../../nios2-elf/lib/mhw-mulx\libc.a(lib_a-vfprintf.o) (__isnand)
c:/altera/11.1/nios2eds/bin/gnu/h-i686-mingw32/bin/../lib/gcc/nios2-elf/4.1.2/../../../../nios2-elf/lib/mhw-mulx\libc.a(lib_a-sbrkr.o)
                              c:/altera/11.1/nios2eds/bin/gnu/h-i686-mingw32/bin/../lib/gcc/nios2-elf/4.1.2/../../../../nios2-elf/lib/mhw-mulx\libc.a(lib_a-freer.o) (_sbrk_r)
c:/altera/11.1/nios2eds/bin/gnu/h-i686-mingw32/bin/../lib/gcc/nios2-elf/4.1.2/../../../../nios2-elf/lib/mhw-mulx\libc.a(lib_a-stdio.o)
                              c:/altera/11.1/nios2eds/bin/gnu/h-i686-mingw32/bin/../lib/gcc/nios2-elf/4.1.2/../../../../nios2-elf/lib/mhw-mulx\libc.a(lib_a-findfp.o) (__sclose)
c:/altera/11.1/nios2eds/bin/gnu/h-i686-mingw32/bin/../lib/gcc/nios2-elf/4.1.2/../../../../nios2-elf/lib/mhw-mulx\libc.a(lib_a-strcmp.o)
                              c:/altera/11.1/nios2eds/bin/gnu/h-i686-mingw32/bin/../lib/gcc/nios2-elf/4.1.2/../../../../nios2-elf/lib/mhw-mulx\libc.a(lib_a-locale.o) (strcmp)
c:/altera/11.1/nios2eds/bin/gnu/h-i686-mingw32/bin/../lib/gcc/nios2-elf/4.1.2/../../../../nios2-elf/lib/mhw-mulx\libc.a(lib_a-wbuf.o)
                              c:/altera/11.1/nios2eds/bin/gnu/h-i686-mingw32/bin/../lib/gcc/nios2-elf/4.1.2/../../../../nios2-elf/lib/mhw-mulx\libc.a(lib_a-putc.o) (__swbuf_r)
c:/altera/11.1/nios2eds/bin/gnu/h-i686-mingw32/bin/../lib/gcc/nios2-elf/4.1.2/../../../../nios2-elf/lib/mhw-mulx\libc.a(lib_a-writer.o)
                              c:/altera/11.1/nios2eds/bin/gnu/h-i686-mingw32/bin/../lib/gcc/nios2-elf/4.1.2/../../../../nios2-elf/lib/mhw-mulx\libc.a(lib_a-stdio.o) (_write_r)
c:/altera/11.1/nios2eds/bin/gnu/h-i686-mingw32/bin/../lib/gcc/nios2-elf/4.1.2/../../../../nios2-elf/lib/mhw-mulx\libc.a(lib_a-callocr.o)
                              c:/altera/11.1/nios2eds/bin/gnu/h-i686-mingw32/bin/../lib/gcc/nios2-elf/4.1.2/../../../../nios2-elf/lib/mhw-mulx\libc.a(lib_a-mprec.o) (_calloc_r)
c:/altera/11.1/nios2eds/bin/gnu/h-i686-mingw32/bin/../lib/gcc/nios2-elf/4.1.2/../../../../nios2-elf/lib/mhw-mulx\libc.a(lib_a-closer.o)
                              c:/altera/11.1/nios2eds/bin/gnu/h-i686-mingw32/bin/../lib/gcc/nios2-elf/4.1.2/../../../../nios2-elf/lib/mhw-mulx\libc.a(lib_a-stdio.o) (_close_r)
c:/altera/11.1/nios2eds/bin/gnu/h-i686-mingw32/bin/../lib/gcc/nios2-elf/4.1.2/../../../../nios2-elf/lib/mhw-mulx\libc.a(lib_a-fclose.o)
                              c:/altera/11.1/nios2eds/bin/gnu/h-i686-mingw32/bin/../lib/gcc/nios2-elf/4.1.2/../../../../nios2-elf/lib/mhw-mulx\libc.a(lib_a-findfp.o) (fclose)
c:/altera/11.1/nios2eds/bin/gnu/h-i686-mingw32/bin/../lib/gcc/nios2-elf/4.1.2/../../../../nios2-elf/lib/mhw-mulx\libc.a(lib_a-fstatr.o)
                              c:/altera/11.1/nios2eds/bin/gnu/h-i686-mingw32/bin/../lib/gcc/nios2-elf/4.1.2/../../../../nios2-elf/lib/mhw-mulx\libc.a(lib_a-makebuf.o) (_fstat_r)
c:/altera/11.1/nios2eds/bin/gnu/h-i686-mingw32/bin/../lib/gcc/nios2-elf/4.1.2/../../../../nios2-elf/lib/mhw-mulx\libc.a(lib_a-int_errno.o)
                              c:/altera/11.1/nios2eds/bin/gnu/h-i686-mingw32/bin/../lib/gcc/nios2-elf/4.1.2/../../../../nios2-elf/lib/mhw-mulx\libc.a(lib_a-sbrkr.o) (errno)
c:/altera/11.1/nios2eds/bin/gnu/h-i686-mingw32/bin/../lib/gcc/nios2-elf/4.1.2/../../../../nios2-elf/lib/mhw-mulx\libc.a(lib_a-isattyr.o)
                              c:/altera/11.1/nios2eds/bin/gnu/h-i686-mingw32/bin/../lib/gcc/nios2-elf/4.1.2/../../../../nios2-elf/lib/mhw-mulx\libc.a(lib_a-makebuf.o) (_isatty_r)
c:/altera/11.1/nios2eds/bin/gnu/h-i686-mingw32/bin/../lib/gcc/nios2-elf/4.1.2/../../../../nios2-elf/lib/mhw-mulx\libc.a(lib_a-lseekr.o)
                              c:/altera/11.1/nios2eds/bin/gnu/h-i686-mingw32/bin/../lib/gcc/nios2-elf/4.1.2/../../../../nios2-elf/lib/mhw-mulx\libc.a(lib_a-stdio.o) (_lseek_r)
c:/altera/11.1/nios2eds/bin/gnu/h-i686-mingw32/bin/../lib/gcc/nios2-elf/4.1.2/../../../../nios2-elf/lib/mhw-mulx\libc.a(lib_a-readr.o)
                              c:/altera/11.1/nios2eds/bin/gnu/h-i686-mingw32/bin/../lib/gcc/nios2-elf/4.1.2/../../../../nios2-elf/lib/mhw-mulx\libc.a(lib_a-stdio.o) (_read_r)
c:/altera/11.1/nios2eds/bin/gnu/h-i686-mingw32/bin/../lib/gcc/nios2-elf/4.1.2/mhw-mulx\libgcc.a(_udivdi3.o)
                              c:/altera/11.1/nios2eds/bin/gnu/h-i686-mingw32/bin/../lib/gcc/nios2-elf/4.1.2/../../../../nios2-elf/lib/mhw-mulx\libc.a(lib_a-vfprintf.o) (__udivdi3)
c:/altera/11.1/nios2eds/bin/gnu/h-i686-mingw32/bin/../lib/gcc/nios2-elf/4.1.2/mhw-mulx\libgcc.a(_umoddi3.o)
                              c:/altera/11.1/nios2eds/bin/gnu/h-i686-mingw32/bin/../lib/gcc/nios2-elf/4.1.2/../../../../nios2-elf/lib/mhw-mulx\libc.a(lib_a-vfprintf.o) (__umoddi3)
c:/altera/11.1/nios2eds/bin/gnu/h-i686-mingw32/bin/../lib/gcc/nios2-elf/4.1.2/mhw-mulx\libgcc.a(_eq_df.o)
                              c:/altera/11.1/nios2eds/bin/gnu/h-i686-mingw32/bin/../lib/gcc/nios2-elf/4.1.2/../../../../nios2-elf/lib/mhw-mulx\libc.a(lib_a-vfprintf.o) (__eqdf2)
c:/altera/11.1/nios2eds/bin/gnu/h-i686-mingw32/bin/../lib/gcc/nios2-elf/4.1.2/mhw-mulx\libgcc.a(_ne_df.o)
                              c:/altera/11.1/nios2eds/bin/gnu/h-i686-mingw32/bin/../lib/gcc/nios2-elf/4.1.2/../../../../nios2-elf/lib/mhw-mulx\libc.a(lib_a-vfprintf.o) (__nedf2)
c:/altera/11.1/nios2eds/bin/gnu/h-i686-mingw32/bin/../lib/gcc/nios2-elf/4.1.2/mhw-mulx\libgcc.a(_lt_df.o)
                              c:/altera/11.1/nios2eds/bin/gnu/h-i686-mingw32/bin/../lib/gcc/nios2-elf/4.1.2/../../../../nios2-elf/lib/mhw-mulx\libc.a(lib_a-vfprintf.o) (__ltdf2)
../GIGLE10_bsp\libucosii_bsp.a(alt_alarm_start.o)
                              obj/Debug/main.o (alt_alarm_start)
../GIGLE10_bsp\libucosii_bsp.a(alt_close.o)
                              c:/altera/11.1/nios2eds/bin/gnu/h-i686-mingw32/bin/../lib/gcc/nios2-elf/4.1.2/../../../../nios2-elf/lib/mhw-mulx\libc.a(lib_a-closer.o) (close)
../GIGLE10_bsp\libucosii_bsp.a(alt_dcache_flush.o)
                              obj/Debug/flash.o (alt_dcache_flush)
../GIGLE10_bsp\libucosii_bsp.a(alt_dev.o)
                              ../GIGLE10_bsp\libucosii_bsp.a(alt_close.o) (alt_fd_list)
../GIGLE10_bsp\libucosii_bsp.a(alt_errno.o)
                              ../GIGLE10_bsp\libucosii_bsp.a(alt_close.o) (alt_errno)
../GIGLE10_bsp\libucosii_bsp.a(alt_flash_dev.o)
                              obj/Debug/flash.o (alt_flash_close_dev)
../GIGLE10_bsp\libucosii_bsp.a(alt_fstat.o)
                              c:/altera/11.1/nios2eds/bin/gnu/h-i686-mingw32/bin/../lib/gcc/nios2-elf/4.1.2/../../../../nios2-elf/lib/mhw-mulx\libc.a(lib_a-fstatr.o) (fstat)
../GIGLE10_bsp\libucosii_bsp.a(alt_iic.o)
                              obj/Debug/main.o (alt_ic_isr_register)
../GIGLE10_bsp\libucosii_bsp.a(alt_iic_isr_register.o)
                              ../GIGLE10_bsp\libucosii_bsp.a(alt_iic.o) (alt_iic_isr_register)
../GIGLE10_bsp\libucosii_bsp.a(alt_irq_entry.o)
                              ../GIGLE10_bsp\libucosii_bsp.a(alt_iic_isr_register.o) (alt_irq_entry)
../GIGLE10_bsp\libucosii_bsp.a(alt_irq_handler.o)
                              ../GIGLE10_bsp\libucosii_bsp.a(alt_iic_isr_register.o) (alt_irq_handler)
../GIGLE10_bsp\libucosii_bsp.a(alt_irq_vars.o)
                              ../GIGLE10_bsp\libucosii_bsp.a(alt_iic.o) (alt_irq_active)
../GIGLE10_bsp\libucosii_bsp.a(alt_isatty.o)
                              c:/altera/11.1/nios2eds/bin/gnu/h-i686-mingw32/bin/../lib/gcc/nios2-elf/4.1.2/../../../../nios2-elf/lib/mhw-mulx\libc.a(lib_a-isattyr.o) (isatty)
../GIGLE10_bsp\libucosii_bsp.a(alt_lseek.o)
                              c:/altera/11.1/nios2eds/bin/gnu/h-i686-mingw32/bin/../lib/gcc/nios2-elf/4.1.2/../../../../nios2-elf/lib/mhw-mulx\libc.a(lib_a-lseekr.o) (lseek)
../GIGLE10_bsp\libucosii_bsp.a(alt_main.o)
                              ../GIGLE10_bsp/obj/HAL/src/crt0.o (alt_main)
../GIGLE10_bsp\libucosii_bsp.a(alt_read.o)
                              c:/altera/11.1/nios2eds/bin/gnu/h-i686-mingw32/bin/../lib/gcc/nios2-elf/4.1.2/../../../../nios2-elf/lib/mhw-mulx\libc.a(lib_a-readr.o) (read)
../GIGLE10_bsp\libucosii_bsp.a(alt_release_fd.o)
                              ../GIGLE10_bsp\libucosii_bsp.a(alt_close.o) (alt_release_fd)
../GIGLE10_bsp\libucosii_bsp.a(alt_sbrk.o)
                              c:/altera/11.1/nios2eds/bin/gnu/h-i686-mingw32/bin/../lib/gcc/nios2-elf/4.1.2/../../../../nios2-elf/lib/mhw-mulx\libc.a(lib_a-sbrkr.o) (sbrk)
../GIGLE10_bsp\libucosii_bsp.a(alt_tick.o)
                              ../GIGLE10_bsp\libucosii_bsp.a(alt_alarm_start.o) (_alt_nticks)
../GIGLE10_bsp\libucosii_bsp.a(alt_usleep.o)
                              obj/Debug/alt_2_wire.o (usleep)
../GIGLE10_bsp\libucosii_bsp.a(alt_write.o)
                              c:/altera/11.1/nios2eds/bin/gnu/h-i686-mingw32/bin/../lib/gcc/nios2-elf/4.1.2/../../../../nios2-elf/lib/mhw-mulx\libc.a(lib_a-writer.o) (write)
../GIGLE10_bsp\libucosii_bsp.a(alt_env_lock.o)
                              ../GIGLE10_bsp\libucosii_bsp.a(alt_main.o) (alt_envsem)
../GIGLE10_bsp\libucosii_bsp.a(alt_malloc_lock.o)
                              c:/altera/11.1/nios2eds/bin/gnu/h-i686-mingw32/bin/../lib/gcc/nios2-elf/4.1.2/../../../../nios2-elf/lib/mhw-mulx\libc.a(lib_a-freer.o) (__malloc_unlock)
../GIGLE10_bsp\libucosii_bsp.a(os_core.o)
                              obj/Debug/main.o (OSStart)
../GIGLE10_bsp\libucosii_bsp.a(os_dbg.o)
                              ../GIGLE10_bsp\libucosii_bsp.a(os_core.o) (OSDebugInit)
../GIGLE10_bsp\libucosii_bsp.a(os_flag.o)
                              ../GIGLE10_bsp\libucosii_bsp.a(os_core.o) (OS_FlagInit)
../GIGLE10_bsp\libucosii_bsp.a(os_mem.o)
                              ../GIGLE10_bsp\libucosii_bsp.a(os_core.o) (OS_MemInit)
../GIGLE10_bsp\libucosii_bsp.a(os_q.o)
                              ../GIGLE10_bsp\libucosii_bsp.a(os_core.o) (OS_QInit)
../GIGLE10_bsp\libucosii_bsp.a(os_sem.o)
                              ../GIGLE10_bsp\libucosii_bsp.a(alt_main.o) (OSSemCreate)
../GIGLE10_bsp\libucosii_bsp.a(os_task.o)
                              ../GIGLE10_bsp\libucosii_bsp.a(alt_env_lock.o) (OSTaskQuery)
../GIGLE10_bsp\libucosii_bsp.a(os_time.o)
                              ../GIGLE10_bsp\libucosii_bsp.a(alt_usleep.o) (OSTimeDly)
../GIGLE10_bsp\libucosii_bsp.a(alt_sys_init.o)
                              ../GIGLE10_bsp\libucosii_bsp.a(alt_main.o) (alt_irq_init)
../GIGLE10_bsp\libucosii_bsp.a(altera_avalon_epcs_flash_controller.o)
                              ../GIGLE10_bsp\libucosii_bsp.a(alt_sys_init.o) (alt_epcs_flash_get_info)
../GIGLE10_bsp\libucosii_bsp.a(altera_avalon_jtag_uart_fd.o)
                              ../GIGLE10_bsp\libucosii_bsp.a(alt_sys_init.o) (altera_avalon_jtag_uart_ioctl_fd)
../GIGLE10_bsp\libucosii_bsp.a(altera_avalon_jtag_uart_init.o)
                              ../GIGLE10_bsp\libucosii_bsp.a(altera_avalon_jtag_uart_fd.o) (altera_avalon_jtag_uart_close)
../GIGLE10_bsp\libucosii_bsp.a(altera_avalon_jtag_uart_ioctl.o)
                              ../GIGLE10_bsp\libucosii_bsp.a(altera_avalon_jtag_uart_fd.o) (altera_avalon_jtag_uart_ioctl)
../GIGLE10_bsp\libucosii_bsp.a(altera_avalon_jtag_uart_read.o)
                              ../GIGLE10_bsp\libucosii_bsp.a(altera_avalon_jtag_uart_fd.o) (altera_avalon_jtag_uart_read)
../GIGLE10_bsp\libucosii_bsp.a(altera_avalon_jtag_uart_write.o)
                              ../GIGLE10_bsp\libucosii_bsp.a(altera_avalon_jtag_uart_fd.o) (altera_avalon_jtag_uart_write)
../GIGLE10_bsp\libucosii_bsp.a(altera_avalon_timer_sc.o)
                              ../GIGLE10_bsp\libucosii_bsp.a(alt_sys_init.o) (alt_avalon_timer_sc_init)
../GIGLE10_bsp\libucosii_bsp.a(altera_avalon_uart_fd.o)
                              ../GIGLE10_bsp\libucosii_bsp.a(alt_sys_init.o) (altera_avalon_uart_close_fd)
../GIGLE10_bsp\libucosii_bsp.a(altera_avalon_uart_init.o)
                              ../GIGLE10_bsp\libucosii_bsp.a(altera_avalon_uart_fd.o) (altera_avalon_uart_close)
../GIGLE10_bsp\libucosii_bsp.a(altera_avalon_uart_read.o)
                              ../GIGLE10_bsp\libucosii_bsp.a(altera_avalon_uart_fd.o) (altera_avalon_uart_read)
../GIGLE10_bsp\libucosii_bsp.a(altera_avalon_uart_write.o)
                              ../GIGLE10_bsp\libucosii_bsp.a(altera_avalon_uart_fd.o) (altera_avalon_uart_write)
../GIGLE10_bsp\libucosii_bsp.a(epcs_commands.o)
                              ../GIGLE10_bsp\libucosii_bsp.a(altera_avalon_epcs_flash_controller.o) (epcs_read_device_id)
../GIGLE10_bsp\libucosii_bsp.a(alt_busy_sleep.o)
                              ../GIGLE10_bsp\libucosii_bsp.a(alt_usleep.o) (alt_busy_sleep)
../GIGLE10_bsp\libucosii_bsp.a(alt_dev_llist_insert.o)
                              ../GIGLE10_bsp\libucosii_bsp.a(alt_sys_init.o) (alt_dev_llist_insert)
../GIGLE10_bsp\libucosii_bsp.a(alt_exception_entry.o)
                              ../GIGLE10_bsp\libucosii_bsp.a(alt_irq_entry.o) (alt_exception)
../GIGLE10_bsp\libucosii_bsp.a(alt_find_dev.o)
                              ../GIGLE10_bsp\libucosii_bsp.a(alt_flash_dev.o) (alt_find_dev)
../GIGLE10_bsp\libucosii_bsp.a(alt_io_redirect.o)
                              ../GIGLE10_bsp\libucosii_bsp.a(alt_main.o) (alt_io_redirect)
../GIGLE10_bsp\libucosii_bsp.a(alt_open.o)
                              ../GIGLE10_bsp\libucosii_bsp.a(alt_io_redirect.o) (open)
../GIGLE10_bsp\libucosii_bsp.a(altera_nios2_qsys_irq.o)
                              ../GIGLE10_bsp\libucosii_bsp.a(alt_sys_init.o) (altera_nios2_qsys_irq_init)
../GIGLE10_bsp\libucosii_bsp.a(os_cpu_a.o)
                              ../GIGLE10_bsp\libucosii_bsp.a(os_core.o) (OSIntCtxSw)
../GIGLE10_bsp\libucosii_bsp.a(os_cpu_c.o)
                              ../GIGLE10_bsp\libucosii_bsp.a(os_core.o) (OSTaskCreateHook)
../GIGLE10_bsp\libucosii_bsp.a(altera_avalon_spi.o)
                              ../GIGLE10_bsp\libucosii_bsp.a(epcs_commands.o) (alt_avalon_spi_command)
../GIGLE10_bsp\libucosii_bsp.a(alt_find_file.o)
                              ../GIGLE10_bsp\libucosii_bsp.a(alt_open.o) (alt_find_file)
../GIGLE10_bsp\libucosii_bsp.a(alt_get_fd.o)
                              ../GIGLE10_bsp\libucosii_bsp.a(alt_open.o) (alt_get_fd)
c:/altera/11.1/nios2eds/bin/gnu/h-i686-mingw32/bin/../lib/gcc/nios2-elf/4.1.2/../../../../nios2-elf/lib/mhw-mulx\libc.a(lib_a-exit.o)
                              ../GIGLE10_bsp\libucosii_bsp.a(alt_main.o) (exit)
c:/altera/11.1/nios2eds/bin/gnu/h-i686-mingw32/bin/../lib/gcc/nios2-elf/4.1.2/../../../../nios2-elf/lib/mhw-mulx\libc.a(lib_a-memcmp.o)
                              ../GIGLE10_bsp\libucosii_bsp.a(altera_avalon_epcs_flash_controller.o) (memcmp)
c:/altera/11.1/nios2eds/bin/gnu/h-i686-mingw32/bin/../lib/gcc/nios2-elf/4.1.2/../../../../nios2-elf/lib/mhw-mulx\libc.a(lib_a-__call_atexit.o)
                              c:/altera/11.1/nios2eds/bin/gnu/h-i686-mingw32/bin/../lib/gcc/nios2-elf/4.1.2/../../../../nios2-elf/lib/mhw-mulx\libc.a(lib_a-exit.o) (__call_exitprocs)
../GIGLE10_bsp\libucosii_bsp.a(alt_exit.o)
                              c:/altera/11.1/nios2eds/bin/gnu/h-i686-mingw32/bin/../lib/gcc/nios2-elf/4.1.2/../../../../nios2-elf/lib/mhw-mulx\libc.a(lib_a-exit.o) (_exit)

Allocating common symbols
Common symbol       size              file

alt_irq             0x100             ../GIGLE10_bsp\libucosii_bsp.a(alt_irq_handler.o)
ConfigStat10GB      0x389             obj/Debug/main.o
Special10GStat      0x389             obj/Debug/main.o
ConfigMS            0x157e            obj/Debug/main.o
OSLockNesting       0x1               ../GIGLE10_bsp\libucosii_bsp.a(os_core.o)
OSRunning           0x1               ../GIGLE10_bsp\libucosii_bsp.a(os_core.o)
ConfigStatB         0x389             obj/Debug/main.o
OSIdleCtr           0x4               ../GIGLE10_bsp\libucosii_bsp.a(os_core.o)
tot_packets_act_transmit
                    0x4               obj/Debug/main.o
OSPrioHighRdy       0x1               ../GIGLE10_bsp\libucosii_bsp.a(os_core.o)
errno               0x4               c:/altera/11.1/nios2eds/bin/gnu/h-i686-mingw32/bin/../lib/gcc/nios2-elf/4.1.2/../../../../nios2-elf/lib/mhw-mulx\libc.a(lib_a-int_errno.o)
alt_heapsem         0x4               ../GIGLE10_bsp\libucosii_bsp.a(alt_malloc_lock.o)
SpecialStat         0x389             obj/Debug/main.o
OSFlagTbl           0x370             ../GIGLE10_bsp\libucosii_bsp.a(os_core.o)
tot_packets_to_transmit
                    0x4               obj/Debug/main.o
source_10g_addr1    0x4               obj/Debug/main.o
OSPrioCur           0x1               ../GIGLE10_bsp\libucosii_bsp.a(os_core.o)
OSTCBList           0x4               ../GIGLE10_bsp\libucosii_bsp.a(os_core.o)
alt_fd_list_lock    0x4               ../GIGLE10_bsp\libucosii_bsp.a(alt_dev.o)
FlashQTX            0x80              obj/Debug/main.o
OSMemTbl            0xc30             ../GIGLE10_bsp\libucosii_bsp.a(os_core.o)
OSTickStepState     0x1               ../GIGLE10_bsp\libucosii_bsp.a(os_core.o)
destination_10g_addr0
                    0x4               obj/Debug/main.o
OSTaskStatStk       0x800             ../GIGLE10_bsp\libucosii_bsp.a(os_core.o)
OSCtxSwCtr          0x4               ../GIGLE10_bsp\libucosii_bsp.a(os_core.o)
SpecialStatB        0x389             obj/Debug/main.o
c3794_task_stk      0x2000            obj/Debug/main.o
irq_aggr_capture    0x4               obj/Debug/main.o
tot_good_pkts_rcvd1
                    0x8               obj/Debug/main.o
OSIdleCtrMax        0x4               ../GIGLE10_bsp\libucosii_bsp.a(os_core.o)
LoopbackStat        0x389             obj/Debug/main.o
ConfigStat          0x389             obj/Debug/main.o
OSTCBFreeList       0x4               ../GIGLE10_bsp\libucosii_bsp.a(os_core.o)
ConfigStat10G       0x389             obj/Debug/main.o
LoopbackStatB       0x389             obj/Debug/main.o
tot_lobytes         0x4               obj/Debug/main.o
destination_tse_addr0
                    0x4               obj/Debug/main.o
OSCPUUsage          0x1               ../GIGLE10_bsp\libucosii_bsp.a(os_core.o)
tot_avg_pkt_size    0x8               obj/Debug/main.o
tot_good_pkts_rcvd  0x8               obj/Debug/main.o
tot_bad_pkts_rcvd1  0x8               obj/Debug/main.o
tot_packets_to_transmit1
                    0x4               obj/Debug/main.o
OSTaskCtr           0x1               ../GIGLE10_bsp\libucosii_bsp.a(os_core.o)
OSMemFreeList       0x4               ../GIGLE10_bsp\libucosii_bsp.a(os_core.o)
source_10g_addr0    0x4               obj/Debug/main.o
tot_sumbytes        0x8               obj/Debug/main.o
ConfigStatC37       0xc8              obj/Debug/main.o
tot_hicycles        0x4               obj/Debug/main.o
OSQTbl              0x1e0             ../GIGLE10_bsp\libucosii_bsp.a(os_core.o)
OSTCBHighRdy        0x4               ../GIGLE10_bsp\libucosii_bsp.a(os_core.o)
OSQFreeList         0x4               ../GIGLE10_bsp\libucosii_bsp.a(os_core.o)
OSRdyGrp            0x1               ../GIGLE10_bsp\libucosii_bsp.a(os_core.o)
RxBuffer            0x157e            obj/Debug/main.o
link_task_stk       0x2000            obj/Debug/main.o
OSRdyTbl            0x3               ../GIGLE10_bsp\libucosii_bsp.a(os_core.o)
tot_packets_act_transmit1
                    0x4               obj/Debug/main.o
TxBuffer            0x157e            obj/Debug/main.o
tot_traffic_mon_delay_max
                    0x4               obj/Debug/main.o
source_tse_addr1    0x4               obj/Debug/main.o
one_sec_alarm       0x18              obj/Debug/onesec_alrm.o
main_task_stk       0x2000            obj/Debug/main.o
EXTERNAL_PHY_BOOT_COMPLETE
                    0x1               obj/Debug/main.o
OSEventFreeList     0x4               ../GIGLE10_bsp\libucosii_bsp.a(os_core.o)
tot_traffic_mon_delay_sum
                    0x4               obj/Debug/main.o
destination_tse_addr1
                    0x4               obj/Debug/main.o
Special10GStatB     0x389             obj/Debug/main.o
OSIntNesting        0x1               ../GIGLE10_bsp\libucosii_bsp.a(os_core.o)
tot_cycles_used     0x4               obj/Debug/main.o
OSTCBCur            0x4               ../GIGLE10_bsp\libucosii_bsp.a(os_core.o)
tot_rcvd_bytes      0x8               obj/Debug/main.o
tot_traffic_mon_delay_min
                    0x4               obj/Debug/main.o
tot_bad_pkts_rcvd   0x8               obj/Debug/main.o
tot_rx_broadcast_cnt
                    0x4               obj/Debug/main.o
source_tse_addr0    0x4               obj/Debug/main.o
LoopbackStat10G     0x389             obj/Debug/main.o
OSTime              0x4               ../GIGLE10_bsp\libucosii_bsp.a(os_core.o)
FlashParameters     0xfa              obj/Debug/main.o
OSTaskIdleStk       0x800             ../GIGLE10_bsp\libucosii_bsp.a(os_core.o)
OSEventTbl          0xb40             ../GIGLE10_bsp\libucosii_bsp.a(os_core.o)
OSTCBTbl            0x510             ../GIGLE10_bsp\libucosii_bsp.a(os_core.o)
destination_10g_addr1
                    0x4               obj/Debug/main.o
OSFlagFreeList      0x4               ../GIGLE10_bsp\libucosii_bsp.a(os_core.o)
OSStatRdy           0x1               ../GIGLE10_bsp\libucosii_bsp.a(os_core.o)
OSTCBPrioTbl        0x54              ../GIGLE10_bsp\libucosii_bsp.a(os_core.o)
pio_edge_capture    0x4               obj/Debug/main.o
alt_envsem          0x4               ../GIGLE10_bsp\libucosii_bsp.a(alt_env_lock.o)
OSIdleCtrRun        0x4               ../GIGLE10_bsp\libucosii_bsp.a(os_core.o)

Memory Configuration

Name             Origin             Length             Attributes
reset            0x00000000         0x00000020
epcs_flash_controller_0 0x00000020         0x000007e0
onchip_mem_BEFORE_EXCEPTION 0x00080000         0x00000020
onchip_mem       0x00080020         0x00049fe0
*default*        0x00000000         0xffffffff

Linker script and memory map

LOAD ../GIGLE10_bsp/obj/HAL/src/crt0.o
LOAD obj/Debug/alt_2_wire.o
LOAD obj/Debug/c37dot94.o
LOAD obj/Debug/c37dot94_task.o
LOAD obj/Debug/c37dot94bert.o
LOAD obj/Debug/cfg10_hw.o
LOAD obj/Debug/cfg_c37.o
LOAD obj/Debug/cfg_frame.o
LOAD obj/Debug/cfg_hw.o
LOAD obj/Debug/config.o
LOAD obj/Debug/config10g.o
LOAD obj/Debug/config_multistream.o
LOAD obj/Debug/flash.o
LOAD obj/Debug/functions.o
LOAD obj/Debug/gui_link.o
LOAD obj/Debug/helpers.o
LOAD obj/Debug/init.o
LOAD obj/Debug/intr.o
LOAD obj/Debug/link_task.o
LOAD obj/Debug/loopback.o
LOAD obj/Debug/main.o
LOAD obj/Debug/onesec_alrm.o
LOAD obj/Debug/packet10g.o
LOAD obj/Debug/results.o
LOAD obj/Debug/sfp.o
LOAD obj/Debug/status.o
LOAD obj/Debug/update_headers.o
LOAD c:/altera/11.1/nios2eds/bin/gnu/h-i686-mingw32/bin/../lib/gcc/nios2-elf/4.1.2/../../../../nios2-elf/lib/mhw-mulx\libstdc++.a
LOAD c:/altera/11.1/nios2eds/bin/gnu/h-i686-mingw32/bin/../lib/gcc/nios2-elf/4.1.2/../../../../nios2-elf/lib/mhw-mulx\libm.a
LOAD c:/altera/11.1/nios2eds/bin/gnu/h-i686-mingw32/bin/../lib/gcc/nios2-elf/4.1.2/mhw-mulx\libgcc.a
START GROUP
LOAD c:/altera/11.1/nios2eds/bin/gnu/h-i686-mingw32/bin/../lib/gcc/nios2-elf/4.1.2/../../../../nios2-elf/lib/mhw-mulx\libc.a
LOAD c:/altera/11.1/nios2eds/bin/gnu/h-i686-mingw32/bin/../lib/gcc/nios2-elf/4.1.2/mhw-mulx\libgcc.a
LOAD ../GIGLE10_bsp\libucosii_bsp.a
END GROUP
LOAD c:/altera/11.1/nios2eds/bin/gnu/h-i686-mingw32/bin/../lib/gcc/nios2-elf/4.1.2/mhw-mulx\libgcc.a
                0x00000000                __alt_mem_epcs_flash_controller_0 = 0x0
                0x00080000                __alt_mem_onchip_mem = 0x80000

.entry          0x00000000        0x0
 *(.entry)
 .entry         0x00000000        0x0 ../GIGLE10_bsp/obj/HAL/src/crt0.o
                0x00000000                __reset

.exceptions     0x00080020      0x168
                0x00080020                PROVIDE (__ram_exceptions_start, ABSOLUTE (.))
                0x00080020                . = ALIGN (0x20)
 *(.irq)
 *(.exceptions.entry.label)
 .exceptions.entry.label
                0x00080020        0x0 ../GIGLE10_bsp\libucosii_bsp.a(alt_irq_entry.o)
                0x00080020                alt_irq_entry
 .exceptions.entry.label
                0x00080020        0x0 ../GIGLE10_bsp\libucosii_bsp.a(alt_exception_entry.o)
                0x00080020                alt_exception
 *(.exceptions.entry.user)
 *(.exceptions.entry)
 .exceptions.entry
                0x00080020       0x54 ../GIGLE10_bsp\libucosii_bsp.a(alt_exception_entry.o)
 *(.exceptions.irqtest.user)
 *(.exceptions.irqtest)
 .exceptions.irqtest
                0x00080074       0x10 ../GIGLE10_bsp\libucosii_bsp.a(alt_irq_entry.o)
 *(.exceptions.irqhandler.user)
 *(.exceptions.irqhandler)
 .exceptions.irqhandler
                0x00080084        0x4 ../GIGLE10_bsp\libucosii_bsp.a(alt_irq_entry.o)
 *(.exceptions.irqreturn.user)
 *(.exceptions.irqreturn)
 .exceptions.irqreturn
                0x00080088        0x4 ../GIGLE10_bsp\libucosii_bsp.a(alt_irq_entry.o)
 *(.exceptions.notirq.label)
 .exceptions.notirq.label
                0x0008008c        0x0 ../GIGLE10_bsp\libucosii_bsp.a(alt_irq_entry.o)
 *(.exceptions.notirq.user)
 *(.exceptions.notirq)
 .exceptions.notirq
                0x0008008c        0x8 ../GIGLE10_bsp\libucosii_bsp.a(alt_exception_entry.o)
 *(.exceptions.soft.user)
 *(.exceptions.soft)
 *(.exceptions.unknown.user)
 *(.exceptions.unknown)
 .exceptions.unknown
                0x00080094        0x4 ../GIGLE10_bsp\libucosii_bsp.a(alt_exception_entry.o)
 *(.exceptions.exit.label)
 .exceptions.exit.label
                0x00080098        0x0 ../GIGLE10_bsp\libucosii_bsp.a(alt_irq_entry.o)
 .exceptions.exit.label
                0x00080098        0x0 ../GIGLE10_bsp\libucosii_bsp.a(alt_exception_entry.o)
 *(.exceptions.exit.user)
 *(.exceptions.exit)
 .exceptions.exit
                0x00080098       0x54 ../GIGLE10_bsp\libucosii_bsp.a(alt_exception_entry.o)
 *(.exceptions)
 .exceptions    0x000800ec       0x9c ../GIGLE10_bsp\libucosii_bsp.a(alt_irq_handler.o)
                0x000800ec                alt_irq_handler
                0x00080188                PROVIDE (__ram_exceptions_end, ABSOLUTE (.))
                0x00080020                PROVIDE (__flash_exceptions_start, LOADADDR (.exceptions))

.text           0x00080188    0x2be74
                0x00080188                PROVIDE (stext, ABSOLUTE (.))
 *(.interp)
 *(.hash)
 *(.dynsym)
 *(.dynstr)
 *(.gnu.version)
 *(.gnu.version_d)
 *(.gnu.version_r)
 *(.rel.init)
 *(.rela.init)
 *(.rel.text .rel.text.* .rel.gnu.linkonce.t.*)
 *(.rela.text .rela.text.* .rela.gnu.linkonce.t.*)
 *(.rel.fini)
 *(.rela.fini)
 *(.rel.rodata .rel.rodata.* .rel.gnu.linkonce.r.*)
 *(.rela.rodata .rela.rodata.* .rela.gnu.linkonce.r.*)
 *(.rel.data .rel.data.* .rel.gnu.linkonce.d.*)
 *(.rela.data .rela.data.* .rela.gnu.linkonce.d.*)
 *(.rel.tdata .rel.tdata.* .rel.gnu.linkonce.td.*)
 *(.rela.tdata .rela.tdata.* .rela.gnu.linkonce.td.*)
 *(.rel.tbss .rel.tbss.* .rel.gnu.linkonce.tb.*)
 *(.rela.tbss .rela.tbss.* .rela.gnu.linkonce.tb.*)
 *(.rel.ctors)
 *(.rela.ctors)
 *(.rel.dtors)
 *(.rela.dtors)
 *(.rel.got)
 *(.rela.got)
 *(.rel.sdata .rel.sdata.* .rel.gnu.linkonce.s.*)
 *(.rela.sdata .rela.sdata.* .rela.gnu.linkonce.s.*)
 *(.rel.sbss .rel.sbss.* .rel.gnu.linkonce.sb.*)
 *(.rela.sbss .rela.sbss.* .rela.gnu.linkonce.sb.*)
 *(.rel.sdata2 .rel.sdata2.* .rel.gnu.linkonce.s2.*)
 *(.rela.sdata2 .rela.sdata2.* .rela.gnu.linkonce.s2.*)
 *(.rel.sbss2 .rel.sbss2.* .rel.gnu.linkonce.sb2.*)
 *(.rela.sbss2 .rela.sbss2.* .rela.gnu.linkonce.sb2.*)
 *(.rel.bss .rel.bss.* .rel.gnu.linkonce.b.*)
 *(.rela.bss .rela.bss.* .rela.gnu.linkonce.b.*)
 *(.rel.plt)
 *(.rela.plt)
 *(.rel.dyn)
 *(.init)
 *(.plt)
 *(.text .stub .text.* .gnu.linkonce.t.*)
 .text          0x00080188       0x38 ../GIGLE10_bsp/obj/HAL/src/crt0.o
                0x00080188                _start
 .text          0x000801c0      0x5d0 obj/Debug/alt_2_wire.o
                0x000801cc                alt_2_wireInit_B
                0x000801d0                alt_2_wireInit_A
                0x00080280                alt_2_wireStop_B
                0x000802cc                alt_2_wireReadByte_B
                0x000803c4                alt_2_wireTransmitByte_B
                0x00080444                alt_2_wireSendByte_B
                0x000804d0                alt_2_wireStart_B
                0x0008051c                alt_2_wireStop_A
                0x00080568                alt_2_wireReadByte_A
                0x00080660                alt_2_wireTransmitByte_A
                0x000806e0                alt_2_wireSendByte_A
                0x0008076c                alt_2_wireStart_A
 .text          0x00080790      0x810 obj/Debug/c37dot94.o
                0x00080790                update_bert_status
                0x000807a8                update_alarms_event_status
                0x000807c0                dump_C3794_status
                0x000808a0                verify_register
                0x000808d4                wait_for_C3794_clk
                0x000809c8                wait_for_rcv_clock_locked
                0x00080b20                wait_for_FrameSync
                0x00080c78                gate_C3794_blocks
                0x00080c98                reset_C3794_blocks
                0x00080cc8                clear_C3794_counters
                0x00080cfc                set_RCV_N_CHANNELS
                0x00080d14                set_XMT_N_CHANNELS
                0x00080d2c                set_IDLE_code
                0x00080d3c                clear_register_bit
                0x00080d54                clear_far_end_loopback
                0x00080d60                clear_internal_loopback
                0x00080d6c                set_register_bit
                0x00080d80                set_far_end_loopback
                0x00080d8c                set_internal_loopback
                0x00080d98                transition_register_bit
                0x00080db8                write_ppm_offset
                0x00080e88                load_RCVD_FRAME
 .text          0x00080fa0      0x210 obj/Debug/c37dot94_task.o
                0x00080fa0                init_c37dot94
                0x0008102c                issue_UI_command
                0x00081044                init_debug_test
                0x000810a4                c37dot94_task
 .text          0x000811b0      0x724 obj/Debug/c37dot94bert.o
                0x000811b0                stop_BERT_test
                0x000811bc                start_BERT_test
                0x000811c8                load_test_pattern
                0x000811d4                latch_BERT_counts
                0x000811e0                Insert_BERT_biterror
                0x000811ec                restart_bert
                0x00081240                process_bert_sync
                0x0008133c                read_C3794_BERT_counts
                0x0008140c                get_BERT_rcv_pattern
                0x00081450                set_C3794_BER
                0x00081474                Invert_BERT_pattern
                0x000814c4                set_test_pattern
                0x00081594                run_C3794_BERT_test3
                0x00081684                run_C3794_BERT_test2
                0x0008174c                run_C3794_BERT_test1
 .text          0x000818d4     0x160c obj/Debug/cfg10_hw.o
                0x000818d4                config_hardware10G
 .text          0x00082ee0      0x2e4 obj/Debug/cfg_c37.o
                0x00082ee0                config_c37_hw
 .text          0x000831c4        0x4 obj/Debug/cfg_frame.o
                0x000831c4                config_frame_structure
 .text          0x000831c8     0x24d0 obj/Debug/cfg_hw.o
                0x000831c8                config_hardware
 .text          0x00085698     0x14dc obj/Debug/config.o
                0x00085698                set_TxClkB_speed
                0x000856c4                set_TxClkA_speed
                0x000856f0                tseMacReset
                0x0008570c                wait_for_tseMacReset
                0x00085720                tseMacWriteCommandConfigAndReset
                0x000857ec                configure_tse_mac
                0x00085c28                configure_TxClkB_speed
                0x00085cb0                configure_TxClkA_speed
                0x00085d38                configure_phyb_fiber
                0x00085eec                configure_phya_fiber
                0x00086078                exit_100FX_operation
                0x00086094                configure_100FX_operation
                0x00086188                configure_tse1_to_phyb
                0x00086200                configure_tse0_to_phya
                0x00086278                configure_phy_rx_aligned_timing
                0x000862ac                configure_phyb_copper
                0x00086630                configure_phya_copper
                0x000869b4                configure_phy_rx_delay_timing
                0x000869e8                restart_fiber_auto_negotiation
                0x00086a0c                restart_copper_auto_negotiation
                0x00086a30                copper_power_down
                0x00086a50                fiber_power_down
                0x00086a70                select_copper_operation
                0x00086ae8                select_fiber_operation
                0x00086b60                set_10G_clock_source
 .text          0x00086b74     0x1c18 obj/Debug/config10g.o
                0x00086b74                sfp_B_read_10G_block_into_Array
                0x00086b78                read_10GMAC_64bit_stats
                0x00086bf8                clear_reset_10GMAC_FIFOS
                0x00086c18                set_reset_10GMAC_FIFOS
                0x00086c3c                set_10G_MAC_line_loopback
                0x00086c68                enable_PHY_clock
                0x00086cb0                set_10G_PHY_reset
                0x00086cf8                read_ext_10G_phy
                0x00086d24                sfp_A_read_10G_block_into_Array
                0x00086e38                read_10G_sfp_power
                0x00086f0c                write_ext_10G_phy
                0x00086f38                issue_10G_phy_I2C_stop_seq
                0x00086fc8                reset_10G_MAC_FIFOS
                0x00087020                set_10G_MAC_self_loopback
                0x0008705c                read_10G_sfp_info
                0x000870d8                CLR_10G_MAC_STATS
                0x00087120                dump_MAC_settings
                0x000872fc                SET_10G_MAC_TX_ADDR
                0x00087328                SET_10G_MAC_RX_ADDR
                0x00087354                init_10G_SC_FIFO
                0x000873c0                XAUI_SERIAL_SELFLPBK
                0x00087444                init_10G_xaui
                0x0008765c                loopback_pma_sys_10G_external_phy
                0x000876f4                loopback_xgxs_sys_10G_external_phy
                0x0008778c                sfp10G_transmit_laser
                0x00087838                config_10G_external_phy
                0x00087954                read_10G_MAC_Stats
                0x00088128                init_10G_MAC
                0x000883ac                init_10G_external_phy
 .text          0x0008878c       0x98 obj/Debug/config_multistream.o
                0x0008878c                config_multistream
 .text          0x00088824      0xc08 obj/Debug/flash.o
                0x00088824                save_systemvars_to_flashparameters
                0x00088924                load_flashparameters_into_systemvars
                0x00088ab8                read_flash_qtx_block_and_write_phy
                0x00088d10                write_flash_parameter_block
                0x00088ed0                read_flash_parameters
                0x00089050                read_flash_qtx_block
                0x000891ec                erase_flash_block
 .text          0x0008942c      0x1b8 obj/Debug/functions.o
                0x0008942c                BytesToLong
                0x00089460                BytesToInt
                0x00089480                SaveBytesLong
                0x000894a8                SaveBytesInt
                0x000894c0                CalcChecksum
                0x000894fc                read_traffic_reg
                0x00089524                _putchar
                0x000895bc                write_traffic_reg
 .text          0x000895e4     0x1384 obj/Debug/gui_link.o
                0x000895e4                config_gui_link
 .text          0x0008a968      0x38c obj/Debug/helpers.o
                0x0008a968                littleEndianizeWord
                0x0008a994                bigEndianizeWord
                0x0008a9c0                convertHexToString
                0x0008aaa0                stripLeadingHex
                0x0008aaec                validateHexString
                0x0008ab90                convertStringToHex
 .text          0x0008acf4      0x6d8 obj/Debug/init.o
                0x0008acf4                init_gige
 .text          0x0008b3cc     0x1d40 obj/Debug/intr.o
                0x0008b3cc                handle_sfp_ISR
                0x0008b4f4                timer1_ISR
                0x0008b5a0                serial_ISR
                0x0008b8e4                handle_aggr_ISR
 .text          0x0008d10c       0xa0 obj/Debug/link_task.o
                0x0008d10c                link_task
 .text          0x0008d1ac     0x14c4 obj/Debug/loopback.o
                0x0008d1ac                EXIT_LOOPBACK
                0x0008d574                ENTER_LOOPBACK
                0x0008d928                loopback_event_processing
                0x0008db18                SEND_HELLO_PACKET
                0x0008e008                SEND_LOOPBACK_PACKET
 .text          0x0008e670     0x1628 obj/Debug/main.o
                0x0008e670                main
                0x0008e74c                GET_EMIX_AVG_PKTLEN
                0x0008eb9c                SET_LINE_LOAD_RATE
                0x0008edbc                SET_GEN_PACKET_LENGTH
                0x0008ee9c                SET_TEST_PARAMS
                0x0008efa8                CONFIGURE_TEST_STREAMS
                0x0008f0b4                main_task
 .text          0x0008fc98      0x69c obj/Debug/onesec_alrm.o
                0x0008fc98                update_history
                0x0008fcfc                process_alarms_events
                0x0008fe10                process_bert_errors
                0x0008ff54                handle_one_sec_alarm
 .text          0x00090334     0x5394 obj/Debug/packet10g.o
                0x00090334                clearTotalResults
                0x00090460                set_num_test_packets_by_secs_precision
                0x00090648                StartTest
                0x00090744                set_num_test_packets_by_secs
                0x00090a10                Write_Mon_Mask
                0x00090b68                DISABLE_MON_MASK
                0x00090b78                SET_MON_IP_ADDR_BY_STREAM
                0x00090e58                DEBUG_MON_ERRMSG
                0x00090f28                DUMP_GEN_HDRS_BY_STREAM
                0x00091104                DUMP_MON_MASK_BY_STREAM
                0x000912ec                DUMP_MON_HDRS_BY_STREAM
                0x00091518                DUMP_GEN_CONFIGS
                0x000915b4                SET_EMIX_OFFSET
                0x00091640                SETMON_MAC_SOURCE_DEST_ADDR
                0x000916e8                SET_TRAFFIC_GEN_GBLCONFIG
                0x00091770                DBG_MON_STATS
                0x00091b60                SET_GEN_EMIX_BY_STREAM
                0x00092080                CLR_MON_HEADER_BY_STREAM
                0x0009209c                CLR_GEN_HEADER_BY_STREAM
                0x000920b8                CLR_GEN_MON_HDRS_BY_STREAM
                0x000920e0                CLR_MON_MASK_BY_STREAM
                0x000920fc                SET_MON_BY_STREAM
                0x0009216c                SETMON_CLEAR_CNTS_AND_START
                0x000921a8                SETMON_START
                0x000921e4                SETMON_STOP
                0x00092214                SETMON_TOTALNUMPKTS
                0x00092268                SETGEN_TSEMAC_SOURCE_ADDR
                0x000922e4                SETGEN_TSEMAC_DEST_ADDR
                0x00092360                SETMON_MAC_DEST_ADDR
                0x000923dc                SETMON_TSEMAC_SOURCE_ADDR
                0x00092458                SETMONHDR_10GMAC_DEST_ADDR
                0x00092500                SETGENMONHDR_10GMAC_SOURCE_ADDR
                0x000925ac                SETGENMONHDR_10GMAC_DEST_ADDR
                0x00092620                SET_GENMON_MAC_ADDR_BY_STREAM
                0x000926c4                Write_Gen_Traffic
                0x00092844                SETMON_L2_HEADER_MASK_MACFRAME
                0x0009288c                SET_GEN_MON_TO_STREAM
                0x000928a8                DEBUG_MON_STAT_BY_STREAM
                0x00092930                DEBUG_GEN_MSG
                0x0009299c                CLRGEN_STOP
                0x000929ac                SETGEN_STOP
                0x000929c0                SETGEN_START
                0x000929f0                SETGEN_STREAM_NUMPKTS
                0x00092a18                SET_NUMPKTS_BY_STREAM
                0x00092ac8                SETGEN_TRAFFIC_GENMON_RNDSEED_BY_STREAM
                0x00092b2c                SET_GEN_MON_TEST_BY_STREAM
                0x000932a0                SETGEN_TRAFFIC_GEN_PKTPERCENT
                0x0009336c                set_generator_tse_load
                0x0009367c                SET_FPSLOAD_BY_STREAM
                0x00093684                GetTotalResults
                0x00093c14                read_mon_status
                0x00094ad4                test_complete
                0x00094d04                wait_for_packets
                0x00095514                collect_TSE_MAC_test_stats
                0x00095530                collect_10G_MAC_test_stats
                0x00095548                run_packet_test
 .text          0x000956c8      0xe94 obj/Debug/results.o
                0x000956c8                getEtherStatsOctets_64
                0x00095750                getOctetsReceivedOK_64
                0x000957d8                getOctetsTransmittedOK_64
                0x00095860                read_tse_stat_counters_debug
                0x00095c60                read_tse_stat_counters
                0x000964dc                snap_tse_a_frame_counters
 .text          0x0009655c      0x864 obj/Debug/sfp.o
                0x0009655c                sfp_B_read_block_into_Array
                0x00096634                sfp_read_field_B
                0x000966d4                sfp_A_read_block_into_Array
                0x000967ac                read_sfp_info
                0x0009685c                read_sfp_name
                0x0009692c                sfp_read_field_A
                0x000969cc                sfp_reg_read_one_byte
                0x00096a7c                read_sfp_power
                0x00096c18                sfp_reg_write_diag_word
                0x00096ca8                sfp_reg_write_diag_byte
                0x00096d28                sfp_transmit_laser
 .text          0x00096dc0      0x838 obj/Debug/status.o
                0x00096dc0                set_PortB_LED
                0x00096df8                set_PortA_LED
                0x00096e30                update_link_actv_leds
                0x00096e9c                read_phy_operating_mode
                0x00097054                read_phy_operating_mode_printf
                0x00097554                read_10G_phy_operating_mode
 .text          0x000975f8     0x1f58 obj/Debug/update_headers.o
                0x000975f8                update_headers
 .text          0x00099550      0x10c c:/altera/11.1/nios2eds/bin/gnu/h-i686-mingw32/bin/../lib/gcc/nios2-elf/4.1.2/../../../../nios2-elf/lib/mhw-mulx\libm.a(lib_a-s_round.o)
                0x00099550                round
 .text          0x0009965c       0x70 c:/altera/11.1/nios2eds/bin/gnu/h-i686-mingw32/bin/../lib/gcc/nios2-elf/4.1.2/mhw-mulx\libgcc.a(_fixunssfsi.o)
                0x0009965c                __fixunssfsi
 .text          0x000996cc       0xa4 c:/altera/11.1/nios2eds/bin/gnu/h-i686-mingw32/bin/../lib/gcc/nios2-elf/4.1.2/mhw-mulx\libgcc.a(_fixunsdfsi.o)
                0x000996cc                __fixunsdfsi
 .text          0x00099770       0xbc c:/altera/11.1/nios2eds/bin/gnu/h-i686-mingw32/bin/../lib/gcc/nios2-elf/4.1.2/mhw-mulx\libgcc.a(_fixunsdfdi.o)
                0x00099770                __fixunsdfdi
 .text          0x0009982c       0x88 c:/altera/11.1/nios2eds/bin/gnu/h-i686-mingw32/bin/../lib/gcc/nios2-elf/4.1.2/mhw-mulx\libgcc.a(_floatdidf.o)
                0x0009982c                __floatdidf
 .text          0x000998b4       0x88 c:/altera/11.1/nios2eds/bin/gnu/h-i686-mingw32/bin/../lib/gcc/nios2-elf/4.1.2/mhw-mulx\libgcc.a(_floatundidf.o)
                0x000998b4                __floatundidf
 .text          0x0009993c      0x680 c:/altera/11.1/nios2eds/bin/gnu/h-i686-mingw32/bin/../lib/gcc/nios2-elf/4.1.2/mhw-mulx\libgcc.a(_divdi3.o)
                0x0009993c                __divdi3
 .text          0x00099fbc      0x2b8 c:/altera/11.1/nios2eds/bin/gnu/h-i686-mingw32/bin/../lib/gcc/nios2-elf/4.1.2/mhw-mulx\libgcc.a(_addsub_sf.o)
                0x0009a1a0                __subsf3
                0x0009a210                __addsf3
 .text          0x0009a274      0x1c8 c:/altera/11.1/nios2eds/bin/gnu/h-i686-mingw32/bin/../lib/gcc/nios2-elf/4.1.2/mhw-mulx\libgcc.a(_mul_sf.o)
                0x0009a274                __mulsf3
 .text          0x0009a43c       0x78 c:/altera/11.1/nios2eds/bin/gnu/h-i686-mingw32/bin/../lib/gcc/nios2-elf/4.1.2/mhw-mulx\libgcc.a(_eq_sf.o)
                0x0009a43c                __eqsf2
 .text          0x0009a4b4       0x78 c:/altera/11.1/nios2eds/bin/gnu/h-i686-mingw32/bin/../lib/gcc/nios2-elf/4.1.2/mhw-mulx\libgcc.a(_ge_sf.o)
                0x0009a4b4                __gesf2
 .text          0x0009a52c       0x94 c:/altera/11.1/nios2eds/bin/gnu/h-i686-mingw32/bin/../lib/gcc/nios2-elf/4.1.2/mhw-mulx\libgcc.a(_sf_to_si.o)
                0x0009a52c                __fixsfsi
 .text          0x0009a5c0       0x54 c:/altera/11.1/nios2eds/bin/gnu/h-i686-mingw32/bin/../lib/gcc/nios2-elf/4.1.2/mhw-mulx\libgcc.a(_sf_to_df.o)
                0x0009a5c0                __extendsfdf2
 .text          0x0009a614        0x0 c:/altera/11.1/nios2eds/bin/gnu/h-i686-mingw32/bin/../lib/gcc/nios2-elf/4.1.2/mhw-mulx\libgcc.a(_thenan_sf.o)
 .text          0x0009a614       0xc0 c:/altera/11.1/nios2eds/bin/gnu/h-i686-mingw32/bin/../lib/gcc/nios2-elf/4.1.2/mhw-mulx\libgcc.a(_usi_to_sf.o)
                0x0009a614                __floatunsisf
 .text          0x0009a6d4      0x504 c:/altera/11.1/nios2eds/bin/gnu/h-i686-mingw32/bin/../lib/gcc/nios2-elf/4.1.2/mhw-mulx\libgcc.a(_addsub_df.o)
                0x0009aae4                __subdf3
                0x0009ab64                __adddf3
 .text          0x0009abd8      0x3b4 c:/altera/11.1/nios2eds/bin/gnu/h-i686-mingw32/bin/../lib/gcc/nios2-elf/4.1.2/mhw-mulx\libgcc.a(_mul_df.o)
                0x0009abd8                __muldf3
 .text          0x0009af8c      0x258 c:/altera/11.1/nios2eds/bin/gnu/h-i686-mingw32/bin/../lib/gcc/nios2-elf/4.1.2/mhw-mulx\libgcc.a(_div_df.o)
                0x0009af8c                __divdf3
 .text          0x0009b1e4       0x88 c:/altera/11.1/nios2eds/bin/gnu/h-i686-mingw32/bin/../lib/gcc/nios2-elf/4.1.2/mhw-mulx\libgcc.a(_gt_df.o)
                0x0009b1e4                __gtdf2
 .text          0x0009b26c       0x88 c:/altera/11.1/nios2eds/bin/gnu/h-i686-mingw32/bin/../lib/gcc/nios2-elf/4.1.2/mhw-mulx\libgcc.a(_ge_df.o)
                0x0009b26c                __gedf2
 .text          0x0009b2f4       0xf8 c:/altera/11.1/nios2eds/bin/gnu/h-i686-mingw32/bin/../lib/gcc/nios2-elf/4.1.2/mhw-mulx\libgcc.a(_si_to_df.o)
                0x0009b2f4                __floatsidf
 .text          0x0009b3ec       0xd8 c:/altera/11.1/nios2eds/bin/gnu/h-i686-mingw32/bin/../lib/gcc/nios2-elf/4.1.2/mhw-mulx\libgcc.a(_df_to_si.o)
                0x0009b3ec                __fixdfsi
 .text          0x0009b4c4       0x38 c:/altera/11.1/nios2eds/bin/gnu/h-i686-mingw32/bin/../lib/gcc/nios2-elf/4.1.2/mhw-mulx\libgcc.a(_make_df.o)
                0x0009b4c4                __make_dp
 .text          0x0009b4fc       0x74 c:/altera/11.1/nios2eds/bin/gnu/h-i686-mingw32/bin/../lib/gcc/nios2-elf/4.1.2/mhw-mulx\libgcc.a(_df_to_sf.o)
                0x0009b4fc                __truncdfsf2
 .text          0x0009b570        0x0 c:/altera/11.1/nios2eds/bin/gnu/h-i686-mingw32/bin/../lib/gcc/nios2-elf/4.1.2/mhw-mulx\libgcc.a(_thenan_df.o)
 .text          0x0009b570      0x194 c:/altera/11.1/nios2eds/bin/gnu/h-i686-mingw32/bin/../lib/gcc/nios2-elf/4.1.2/mhw-mulx\libgcc.a(_usi_to_df.o)
                0x0009b570                __floatunsidf
 .text          0x0009b704      0x14c c:/altera/11.1/nios2eds/bin/gnu/h-i686-mingw32/bin/../lib/gcc/nios2-elf/4.1.2/mhw-mulx\libgcc.a(lib2-divmod.o)
                0x0009b780                __divsi3
                0x0009b7e0                __modsi3
                0x0009b840                __udivsi3
                0x0009b848                __umodsi3
 .text          0x0009b850        0x0 c:/altera/11.1/nios2eds/bin/gnu/h-i686-mingw32/bin/../lib/gcc/nios2-elf/4.1.2/mhw-mulx\libgcc.a(_clz.o)
 .text          0x0009b850       0x80 c:/altera/11.1/nios2eds/bin/gnu/h-i686-mingw32/bin/../lib/gcc/nios2-elf/4.1.2/mhw-mulx\libgcc.a(_clzsi2.o)
                0x0009b850                __clzsi2
 .text          0x0009b8d0      0x160 c:/altera/11.1/nios2eds/bin/gnu/h-i686-mingw32/bin/../lib/gcc/nios2-elf/4.1.2/mhw-mulx\libgcc.a(_pack_sf.o)
                0x0009b8d0                __pack_f
 .text          0x0009ba30       0xc8 c:/altera/11.1/nios2eds/bin/gnu/h-i686-mingw32/bin/../lib/gcc/nios2-elf/4.1.2/mhw-mulx\libgcc.a(_unpack_sf.o)
                0x0009ba30                __unpack_f
 .text          0x0009baf8       0xa8 c:/altera/11.1/nios2eds/bin/gnu/h-i686-mingw32/bin/../lib/gcc/nios2-elf/4.1.2/mhw-mulx\libgcc.a(_fpcmp_parts_sf.o)
                0x0009baf8                __fpcmp_parts_f
 .text          0x0009bba0       0x2c c:/altera/11.1/nios2eds/bin/gnu/h-i686-mingw32/bin/../lib/gcc/nios2-elf/4.1.2/mhw-mulx\libgcc.a(_make_sf.o)
                0x0009bba0                __make_fp
 .text          0x0009bbcc      0x314 c:/altera/11.1/nios2eds/bin/gnu/h-i686-mingw32/bin/../lib/gcc/nios2-elf/4.1.2/mhw-mulx\libgcc.a(_pack_df.o)
                0x0009bbcc                __pack_d
 .text          0x0009bee0      0x138 c:/altera/11.1/nios2eds/bin/gnu/h-i686-mingw32/bin/../lib/gcc/nios2-elf/4.1.2/mhw-mulx\libgcc.a(_unpack_df.o)
                0x0009bee0                __unpack_d
 .text          0x0009c018       0xc8 c:/altera/11.1/nios2eds/bin/gnu/h-i686-mingw32/bin/../lib/gcc/nios2-elf/4.1.2/mhw-mulx\libgcc.a(_fpcmp_parts_df.o)
                0x0009c018                __fpcmp_parts_d
 .text          0x0009c0e0       0x78 c:/altera/11.1/nios2eds/bin/gnu/h-i686-mingw32/bin/../lib/gcc/nios2-elf/4.1.2/../../../../nios2-elf/lib/mhw-mulx\libc.a(lib_a-printf.o)
                0x0009c0e0                printf
                0x0009c124                _printf_r
 .text          0x0009c158       0x24 c:/altera/11.1/nios2eds/bin/gnu/h-i686-mingw32/bin/../lib/gcc/nios2-elf/4.1.2/../../../../nios2-elf/lib/mhw-mulx\libc.a(lib_a-putchar.o)
                0x0009c158                putchar
                0x0009c174                _putchar_r
 .text          0x0009c17c       0xb4 c:/altera/11.1/nios2eds/bin/gnu/h-i686-mingw32/bin/../lib/gcc/nios2-elf/4.1.2/../../../../nios2-elf/lib/mhw-mulx\libc.a(lib_a-puts.o)
                0x0009c17c                _puts_r
                0x0009c21c                puts
 .text          0x0009c230       0x74 c:/altera/11.1/nios2eds/bin/gnu/h-i686-mingw32/bin/../lib/gcc/nios2-elf/4.1.2/../../../../nios2-elf/lib/mhw-mulx\libc.a(lib_a-strlen.o)
                0x0009c230                strlen
 .text          0x0009c2a4       0xf0 c:/altera/11.1/nios2eds/bin/gnu/h-i686-mingw32/bin/../lib/gcc/nios2-elf/4.1.2/../../../../nios2-elf/lib/mhw-mulx\libc.a(lib_a-strncmp.o)
                0x0009c2a4                strncmp
 .text          0x0009c394     0x1f28 c:/altera/11.1/nios2eds/bin/gnu/h-i686-mingw32/bin/../lib/gcc/nios2-elf/4.1.2/../../../../nios2-elf/lib/mhw-mulx\libc.a(lib_a-vfprintf.o)
                0x0009c3ec                ___vfprintf_internal_r
                0x0009e298                __vfprintf_internal
 .text          0x0009e2bc      0x13c c:/altera/11.1/nios2eds/bin/gnu/h-i686-mingw32/bin/../lib/gcc/nios2-elf/4.1.2/../../../../nios2-elf/lib/mhw-mulx\libc.a(lib_a-wsetup.o)
                0x0009e2bc                __swsetup_r
 .text          0x0009e3f8     0x17cc c:/altera/11.1/nios2eds/bin/gnu/h-i686-mingw32/bin/../lib/gcc/nios2-elf/4.1.2/../../../../nios2-elf/lib/mhw-mulx\libc.a(lib_a-dtoa.o)
                0x0009e610                _dtoa_r
 .text          0x0009fbc4      0x230 c:/altera/11.1/nios2eds/bin/gnu/h-i686-mingw32/bin/../lib/gcc/nios2-elf/4.1.2/../../../../nios2-elf/lib/mhw-mulx\libc.a(lib_a-fflush.o)
                0x0009fbc4                _fflush_r
                0x0009fdc0                fflush
 .text          0x0009fdf4      0x2c0 c:/altera/11.1/nios2eds/bin/gnu/h-i686-mingw32/bin/../lib/gcc/nios2-elf/4.1.2/../../../../nios2-elf/lib/mhw-mulx\libc.a(lib_a-findfp.o)
                0x0009fe4c                __sfp_lock_acquire
                0x0009fe50                __sfp_lock_release
                0x0009fe54                __sinit_lock_acquire
                0x0009fe58                __sinit_lock_release
                0x0009fe5c                __sinit
                0x0009ff10                __fp_unlock_all
                0x0009ff28                __fp_lock_all
                0x0009ff40                _cleanup_r
                0x0009ff4c                _cleanup
                0x0009ff5c                __sfmoreglue
                0x0009ffc4                __sfp
 .text          0x000a00b4      0x440 c:/altera/11.1/nios2eds/bin/gnu/h-i686-mingw32/bin/../lib/gcc/nios2-elf/4.1.2/../../../../nios2-elf/lib/mhw-mulx\libc.a(lib_a-freer.o)
                0x000a00b4                _malloc_trim_r
                0x000a01e0                _free_r
 .text          0x000a04f4      0x49c c:/altera/11.1/nios2eds/bin/gnu/h-i686-mingw32/bin/../lib/gcc/nios2-elf/4.1.2/../../../../nios2-elf/lib/mhw-mulx\libc.a(lib_a-fvwrite.o)
                0x000a04f4                __sfvwrite_r
 .text          0x000a0990      0x180 c:/altera/11.1/nios2eds/bin/gnu/h-i686-mingw32/bin/../lib/gcc/nios2-elf/4.1.2/../../../../nios2-elf/lib/mhw-mulx\libc.a(lib_a-fwalk.o)
                0x000a0990                _fwalk_reent
                0x000a0a58                _fwalk
 .text          0x000a0b10        0x0 c:/altera/11.1/nios2eds/bin/gnu/h-i686-mingw32/bin/../lib/gcc/nios2-elf/4.1.2/../../../../nios2-elf/lib/mhw-mulx\libc.a(lib_a-impure.o)
 .text          0x000a0b10       0xc4 c:/altera/11.1/nios2eds/bin/gnu/h-i686-mingw32/bin/../lib/gcc/nios2-elf/4.1.2/../../../../nios2-elf/lib/mhw-mulx\libc.a(lib_a-locale.o)
                0x000a0b10                __locale_charset
                0x000a0b18                _localeconv_r
                0x000a0b24                localeconv
                0x000a0b34                _setlocale_r
                0x000a0bb8                setlocale
 .text          0x000a0bd4      0x194 c:/altera/11.1/nios2eds/bin/gnu/h-i686-mingw32/bin/../lib/gcc/nios2-elf/4.1.2/../../../../nios2-elf/lib/mhw-mulx\libc.a(lib_a-makebuf.o)
                0x000a0bd4                __smakebuf_r
 .text          0x000a0d68      0x740 c:/altera/11.1/nios2eds/bin/gnu/h-i686-mingw32/bin/../lib/gcc/nios2-elf/4.1.2/../../../../nios2-elf/lib/mhw-mulx\libc.a(lib_a-mallocr.o)
                0x000a0d68                _malloc_r
 .text          0x000a14a8       0xe4 c:/altera/11.1/nios2eds/bin/gnu/h-i686-mingw32/bin/../lib/gcc/nios2-elf/4.1.2/../../../../nios2-elf/lib/mhw-mulx\libc.a(lib_a-memchr.o)
                0x000a14a8                memchr
 .text          0x000a158c       0xa0 c:/altera/11.1/nios2eds/bin/gnu/h-i686-mingw32/bin/../lib/gcc/nios2-elf/4.1.2/../../../../nios2-elf/lib/mhw-mulx\libc.a(lib_a-memcpy.o)
                0x000a158c                memcpy
 .text          0x000a162c       0xe0 c:/altera/11.1/nios2eds/bin/gnu/h-i686-mingw32/bin/../lib/gcc/nios2-elf/4.1.2/../../../../nios2-elf/lib/mhw-mulx\libc.a(lib_a-memmove.o)
                0x000a162c                memmove
 .text          0x000a170c       0x98 c:/altera/11.1/nios2eds/bin/gnu/h-i686-mingw32/bin/../lib/gcc/nios2-elf/4.1.2/../../../../nios2-elf/lib/mhw-mulx\libc.a(lib_a-memset.o)
                0x000a170c                memset
 .text          0x000a17a4      0xff4 c:/altera/11.1/nios2eds/bin/gnu/h-i686-mingw32/bin/../lib/gcc/nios2-elf/4.1.2/../../../../nios2-elf/lib/mhw-mulx\libc.a(lib_a-mprec.o)
                0x000a17a4                _Bfree
                0x000a17cc                __hi0bits
                0x000a183c                __lo0bits
                0x000a1900                __mcmp
                0x000a1960                __ulp
                0x000a19e0                __b2d
                0x000a1b00                __ratio
                0x000a1bb0                _mprec_log10
                0x000a1c44                __copybits
                0x000a1c9c                __any_on
                0x000a1d24                _Balloc
                0x000a1de0                __d2b
                0x000a1f5c                __mdiff
                0x000a20e8                __lshift
                0x000a2234                __multiply
                0x000a241c                __i2b
                0x000a2458                __multadd
                0x000a2558                __pow5mult
                0x000a2678                __s2b
 .text          0x000a2798      0x1ec c:/altera/11.1/nios2eds/bin/gnu/h-i686-mingw32/bin/../lib/gcc/nios2-elf/4.1.2/../../../../nios2-elf/lib/mhw-mulx\libc.a(lib_a-putc.o)
                0x000a2798                putc
                0x000a289c                _putc_r
 .text          0x000a2984      0x5f4 c:/altera/11.1/nios2eds/bin/gnu/h-i686-mingw32/bin/../lib/gcc/nios2-elf/4.1.2/../../../../nios2-elf/lib/mhw-mulx\libc.a(lib_a-reallocr.o)
                0x000a2984                _realloc_r
 .text          0x000a2f78       0x40 c:/altera/11.1/nios2eds/bin/gnu/h-i686-mingw32/bin/../lib/gcc/nios2-elf/4.1.2/../../../../nios2-elf/lib/mhw-mulx\libc.a(lib_a-s_isinfd.o)
                0x000a2f78                __isinfd
 .text          0x000a2fb8       0x30 c:/altera/11.1/nios2eds/bin/gnu/h-i686-mingw32/bin/../lib/gcc/nios2-elf/4.1.2/../../../../nios2-elf/lib/mhw-mulx\libc.a(lib_a-s_isnand.o)
                0x000a2fb8                __isnand
 .text          0x000a2fe8       0x70 c:/altera/11.1/nios2eds/bin/gnu/h-i686-mingw32/bin/../lib/gcc/nios2-elf/4.1.2/../../../../nios2-elf/lib/mhw-mulx\libc.a(lib_a-sbrkr.o)
                0x000a2fe8                _sbrk_r
 .text          0x000a3058      0x14c c:/altera/11.1/nios2eds/bin/gnu/h-i686-mingw32/bin/../lib/gcc/nios2-elf/4.1.2/../../../../nios2-elf/lib/mhw-mulx\libc.a(lib_a-stdio.o)
                0x000a3058                __sclose
                0x000a3060                __sseek
                0x000a30c8                __swrite
                0x000a3144                __sread
 .text          0x000a31a4       0xbc c:/altera/11.1/nios2eds/bin/gnu/h-i686-mingw32/bin/../lib/gcc/nios2-elf/4.1.2/../../../../nios2-elf/lib/mhw-mulx\libc.a(lib_a-strcmp.o)
                0x000a31a4                strcmp
 .text          0x000a3260      0x14c c:/altera/11.1/nios2eds/bin/gnu/h-i686-mingw32/bin/../lib/gcc/nios2-elf/4.1.2/../../../../nios2-elf/lib/mhw-mulx\libc.a(lib_a-wbuf.o)
                0x000a3260                __swbuf_r
                0x000a3390                __swbuf
 .text          0x000a33ac       0x78 c:/altera/11.1/nios2eds/bin/gnu/h-i686-mingw32/bin/../lib/gcc/nios2-elf/4.1.2/../../../../nios2-elf/lib/mhw-mulx\libc.a(lib_a-writer.o)
                0x000a33ac                _write_r
 .text          0x000a3424       0xb4 c:/altera/11.1/nios2eds/bin/gnu/h-i686-mingw32/bin/../lib/gcc/nios2-elf/4.1.2/../../../../nios2-elf/lib/mhw-mulx\libc.a(lib_a-callocr.o)
                0x000a3424                _calloc_r
 .text          0x000a34d8       0x70 c:/altera/11.1/nios2eds/bin/gnu/h-i686-mingw32/bin/../lib/gcc/nios2-elf/4.1.2/../../../../nios2-elf/lib/mhw-mulx\libc.a(lib_a-closer.o)
                0x000a34d8                _close_r
 .text          0x000a3548      0x124 c:/altera/11.1/nios2eds/bin/gnu/h-i686-mingw32/bin/../lib/gcc/nios2-elf/4.1.2/../../../../nios2-elf/lib/mhw-mulx\libc.a(lib_a-fclose.o)
                0x000a3548                _fclose_r
                0x000a3658                fclose
 .text          0x000a366c       0x74 c:/altera/11.1/nios2eds/bin/gnu/h-i686-mingw32/bin/../lib/gcc/nios2-elf/4.1.2/../../../../nios2-elf/lib/mhw-mulx\libc.a(lib_a-fstatr.o)
                0x000a366c                _fstat_r
 .text          0x000a36e0        0x0 c:/altera/11.1/nios2eds/bin/gnu/h-i686-mingw32/bin/../lib/gcc/nios2-elf/4.1.2/../../../../nios2-elf/lib/mhw-mulx\libc.a(lib_a-int_errno.o)
 .text          0x000a36e0       0x70 c:/altera/11.1/nios2eds/bin/gnu/h-i686-mingw32/bin/../lib/gcc/nios2-elf/4.1.2/../../../../nios2-elf/lib/mhw-mulx\libc.a(lib_a-isattyr.o)
                0x000a36e0                _isatty_r
 .text          0x000a3750       0x78 c:/altera/11.1/nios2eds/bin/gnu/h-i686-mingw32/bin/../lib/gcc/nios2-elf/4.1.2/../../../../nios2-elf/lib/mhw-mulx\libc.a(lib_a-lseekr.o)
                0x000a3750                _lseek_r
 .text          0x000a37c8       0x78 c:/altera/11.1/nios2eds/bin/gnu/h-i686-mingw32/bin/../lib/gcc/nios2-elf/4.1.2/../../../../nios2-elf/lib/mhw-mulx\libc.a(lib_a-readr.o)
                0x000a37c8                _read_r
 .text          0x000a3840      0x5dc c:/altera/11.1/nios2eds/bin/gnu/h-i686-mingw32/bin/../lib/gcc/nios2-elf/4.1.2/mhw-mulx\libgcc.a(_udivdi3.o)
                0x000a3840                __udivdi3
 .text          0x000a3e1c      0x5b0 c:/altera/11.1/nios2eds/bin/gnu/h-i686-mingw32/bin/../lib/gcc/nios2-elf/4.1.2/mhw-mulx\libgcc.a(_umoddi3.o)
                0x000a3e1c                __umoddi3
 .text          0x000a43cc       0x88 c:/altera/11.1/nios2eds/bin/gnu/h-i686-mingw32/bin/../lib/gcc/nios2-elf/4.1.2/mhw-mulx\libgcc.a(_eq_df.o)
                0x000a43cc                __eqdf2
 .text          0x000a4454       0x88 c:/altera/11.1/nios2eds/bin/gnu/h-i686-mingw32/bin/../lib/gcc/nios2-elf/4.1.2/mhw-mulx\libgcc.a(_ne_df.o)
                0x000a4454                __nedf2
 .text          0x000a44dc       0x88 c:/altera/11.1/nios2eds/bin/gnu/h-i686-mingw32/bin/../lib/gcc/nios2-elf/4.1.2/mhw-mulx\libgcc.a(_lt_df.o)
                0x000a44dc                __ltdf2
 .text          0x000a4564       0x94 ../GIGLE10_bsp\libucosii_bsp.a(alt_alarm_start.o)
                0x000a4564                alt_alarm_start
 .text          0x000a45f8       0xf0 ../GIGLE10_bsp\libucosii_bsp.a(alt_close.o)
                0x000a45f8                close
 .text          0x000a46e8        0x4 ../GIGLE10_bsp\libucosii_bsp.a(alt_dcache_flush.o)
                0x000a46e8                alt_dcache_flush
 .text          0x000a46ec        0x8 ../GIGLE10_bsp\libucosii_bsp.a(alt_dev.o)
 .text          0x000a46f4        0x0 ../GIGLE10_bsp\libucosii_bsp.a(alt_errno.o)
 .text          0x000a46f4       0x60 ../GIGLE10_bsp\libucosii_bsp.a(alt_flash_dev.o)
                0x000a46f4                alt_flash_close_dev
                0x000a4708                alt_flash_open_dev
 .text          0x000a4754       0x90 ../GIGLE10_bsp\libucosii_bsp.a(alt_fstat.o)
                0x000a4754                fstat
 .text          0x000a47e4       0x9c ../GIGLE10_bsp\libucosii_bsp.a(alt_iic.o)
                0x000a47e4                alt_ic_irq_enabled
                0x000a47fc                alt_ic_irq_enable
                0x000a483c                alt_ic_irq_disable
                0x000a487c                alt_ic_isr_register
 .text          0x000a4880       0x88 ../GIGLE10_bsp\libucosii_bsp.a(alt_iic_isr_register.o)
                0x000a4880                alt_iic_isr_register
 .text          0x000a4908        0x0 ../GIGLE10_bsp\libucosii_bsp.a(alt_irq_entry.o)
 .text          0x000a4908        0x0 ../GIGLE10_bsp\libucosii_bsp.a(alt_irq_handler.o)
 .text          0x000a4908        0x0 ../GIGLE10_bsp\libucosii_bsp.a(alt_irq_vars.o)
 .text          0x000a4908       0x84 ../GIGLE10_bsp\libucosii_bsp.a(alt_isatty.o)
                0x000a4908                isatty
 .text          0x000a498c       0x9c ../GIGLE10_bsp\libucosii_bsp.a(alt_lseek.o)
                0x000a498c                lseek
 .text          0x000a4a28       0x98 ../GIGLE10_bsp\libucosii_bsp.a(alt_main.o)
                0x000a4a28                alt_main
 .text          0x000a4ac0      0x11c ../GIGLE10_bsp\libucosii_bsp.a(alt_read.o)
                0x000a4ac0                read
 .text          0x000a4bdc       0x24 ../GIGLE10_bsp\libucosii_bsp.a(alt_release_fd.o)
                0x000a4bdc                alt_release_fd
 .text          0x000a4c00       0x54 ../GIGLE10_bsp\libucosii_bsp.a(alt_sbrk.o)
                0x000a4c00                sbrk
 .text          0x000a4c54       0xf4 ../GIGLE10_bsp\libucosii_bsp.a(alt_tick.o)
                0x000a4c54                alt_alarm_stop
                0x000a4c88                alt_tick
 .text          0x000a4d48      0x168 ../GIGLE10_bsp\libucosii_bsp.a(alt_usleep.o)
                0x000a4d48                usleep
 .text          0x000a4eb0      0x118 ../GIGLE10_bsp\libucosii_bsp.a(alt_write.o)
                0x000a4eb0                write
 .text          0x000a4fc8       0xb8 ../GIGLE10_bsp\libucosii_bsp.a(alt_env_lock.o)
                0x000a4fc8                __env_unlock
                0x000a4ff0                __env_lock
 .text          0x000a5080      0x128 ../GIGLE10_bsp\libucosii_bsp.a(alt_malloc_lock.o)
                0x000a5080                __malloc_unlock
                0x000a50e0                __malloc_lock
 .text          0x000a51a8     0x12b4 ../GIGLE10_bsp\libucosii_bsp.a(os_core.o)
                0x000a51a8                OSVersion
                0x000a51b0                OS_Dummy
                0x000a51b4                OS_EventTaskWait
                0x000a5238                OS_EventTaskWaitMulti
                0x000a52e0                OS_EventTaskRemove
                0x000a5330                OS_EventTaskRemoveMulti
                0x000a5390                OS_EventTaskRdy
                0x000a5484                OS_EventWaitListInit
                0x000a54a0                OS_MemClr
                0x000a54c0                OS_MemCopy
                0x000a5520                OS_StrCopy
                0x000a5554                OS_StrLen
                0x000a5578                OS_TaskStatStkChk
                0x000a560c                OS_Sched
                0x000a56a8                OSStart
                0x000a56fc                OSInit
                0x000a58d8                OSEventNameGet
                0x000a5a00                OSEventNameSet
                0x000a5b3c                OSEventPendMulti
                0x000a5ec8                OSIntEnter
                0x000a5f08                OSIntExit
                0x000a5fd8                OSSchedLock
                0x000a6020                OSSchedUnlock
                0x000a6078                OSStatInit
                0x000a60dc                OSTimeTick
                0x000a61f0                OS_TaskIdle
                0x000a6224                OS_TaskStat
                0x000a62c0                OS_TCBInit
 .text          0x000a645c        0x4 ../GIGLE10_bsp\libucosii_bsp.a(os_dbg.o)
                0x000a645c                OSDebugInit
 .text          0x000a6460      0xe18 ../GIGLE10_bsp\libucosii_bsp.a(os_flag.o)
                0x000a6514                OS_FlagUnlink
                0x000a65e4                OS_FlagInit
                0x000a6654                OSFlagQuery
                0x000a66bc                OSFlagAccept
                0x000a6860                OSFlagCreate
                0x000a68f0                OSFlagDel
                0x000a6aa4                OSFlagNameGet
                0x000a6bc0                OSFlagNameSet
                0x000a6cec                OSFlagPend
                0x000a702c                OSFlagPendGetFlagsRdy
                0x000a7058                OSFlagPost
 .text          0x000a7278      0x440 ../GIGLE10_bsp\libucosii_bsp.a(os_mem.o)
                0x000a7278                OS_MemInit
                0x000a72e0                OSMemQuery
                0x000a7344                OSMemCreate
                0x000a7428                OSMemGet
                0x000a7494                OSMemNameGet
                0x000a7568                OSMemNameSet
                0x000a7660                OSMemPut
 .text          0x000a76b8      0xb24 ../GIGLE10_bsp\libucosii_bsp.a(os_q.o)
                0x000a76b8                OS_QInit
                0x000a7708                OSQQuery
                0x000a77b8                OSQAccept
                0x000a7868                OSQCreate
                0x000a7970                OSQDel
                0x000a7b5c                OSQFlush
                0x000a7bb4                OSQPend
                0x000a7d78                OSQPendAbort
                0x000a7ea0                OSQPost
                0x000a7f7c                OSQPostFront
                0x000a805c                OSQPostOpt
 .text          0x000a81dc      0x6f8 ../GIGLE10_bsp\libucosii_bsp.a(os_sem.o)
                0x000a81dc                OSSemSet
                0x000a8248                OSSemAccept
                0x000a8294                OSSemCreate
                0x000a8334                OSSemDel
                0x000a84d8                OSSemPend
                0x000a8680                OSSemPendAbort
                0x000a87ac                OSSemPost
                0x000a8860                OSSemQuery
 .text          0x000a88d4     0x100c ../GIGLE10_bsp\libucosii_bsp.a(os_task.o)
                0x000a88d4                OS_TaskStkClr
                0x000a8904                OSTaskQuery
                0x000a8a08                OSTaskChangePrio
                0x000a8ce0                OSTaskCreate
                0x000a8e08                OSTaskCreateExt
                0x000a8f84                OSTaskDel
                0x000a9204                OSTaskDelReq
                0x000a92bc                OSTaskNameGet
                0x000a9408                OSTaskNameSet
                0x000a9558                OSTaskResume
                0x000a9670                OSTaskStkChk
                0x000a978c                OSTaskSuspend
 .text          0x000a98e0      0x314 ../GIGLE10_bsp\libucosii_bsp.a(os_time.o)
                0x000a98e0                OSTimeSet
                0x000a9904                OSTimeDly
                0x000a99a8                OSTimeDlyHMSM
                0x000a9acc                OSTimeDlyResume
                0x000a9bd0                OSTimeGet
 .text          0x000a9bf4       0xd4 ../GIGLE10_bsp\libucosii_bsp.a(alt_sys_init.o)
                0x000a9bf4                alt_irq_init
                0x000a9c14                alt_sys_init
 .text          0x000a9cc8      0x52c ../GIGLE10_bsp\libucosii_bsp.a(altera_avalon_epcs_flash_controller.o)
                0x000a9cc8                alt_epcs_flash_get_info
                0x000a9d00                alt_epcs_flash_read
                0x000a9d78                alt_epcs_flash_write_block
                0x000a9e48                alt_epcs_flash_write
                0x000aa018                alt_epcs_flash_init
                0x000aa184                alt_epcs_flash_erase_block
 .text          0x000aa1f4       0x3c ../GIGLE10_bsp\libucosii_bsp.a(altera_avalon_jtag_uart_fd.o)
                0x000aa1f4                altera_avalon_jtag_uart_ioctl_fd
                0x000aa200                altera_avalon_jtag_uart_close_fd
                0x000aa210                altera_avalon_jtag_uart_write_fd
                0x000aa220                altera_avalon_jtag_uart_read_fd
 .text          0x000aa230      0x350 ../GIGLE10_bsp\libucosii_bsp.a(altera_avalon_jtag_uart_init.o)
                0x000aa230                altera_avalon_jtag_uart_close
                0x000aa318                altera_avalon_jtag_uart_init
 .text          0x000aa580       0x88 ../GIGLE10_bsp\libucosii_bsp.a(altera_avalon_jtag_uart_ioctl.o)
                0x000aa580                altera_avalon_jtag_uart_ioctl
 .text          0x000aa608      0x1c8 ../GIGLE10_bsp\libucosii_bsp.a(altera_avalon_jtag_uart_read.o)
                0x000aa608                altera_avalon_jtag_uart_read
 .text          0x000aa7d0      0x1d8 ../GIGLE10_bsp\libucosii_bsp.a(altera_avalon_jtag_uart_write.o)
                0x000aa7d0                altera_avalon_jtag_uart_write
 .text          0x000aa9a8       0x8c ../GIGLE10_bsp\libucosii_bsp.a(altera_avalon_timer_sc.o)
                0x000aa9a8                alt_avalon_timer_sc_init
 .text          0x000aaa34       0x30 ../GIGLE10_bsp\libucosii_bsp.a(altera_avalon_uart_fd.o)
                0x000aaa34                altera_avalon_uart_close_fd
                0x000aaa44                altera_avalon_uart_write_fd
                0x000aaa54                altera_avalon_uart_read_fd
 .text          0x000aaa64      0x2b0 ../GIGLE10_bsp\libucosii_bsp.a(altera_avalon_uart_init.o)
                0x000aaa64                altera_avalon_uart_close
                0x000aac54                altera_avalon_uart_init
 .text          0x000aad14      0x18c ../GIGLE10_bsp\libucosii_bsp.a(altera_avalon_uart_read.o)
                0x000aad14                altera_avalon_uart_read
 .text          0x000aaea0      0x1ac ../GIGLE10_bsp\libucosii_bsp.a(altera_avalon_uart_write.o)
                0x000aaea0                altera_avalon_uart_write
 .text          0x000ab04c      0x320 ../GIGLE10_bsp\libucosii_bsp.a(epcs_commands.o)
                0x000ab04c                epcs_read_device_id
                0x000ab09c                epcs_read_electronic_signature
                0x000ab0f0                epcs_write_enable
                0x000ab128                epcs_read_status_register
                0x000ab170                epcs_sector_erase
                0x000ab1dc                epcs_write_buffer
                0x000ab28c                epcs_read_buffer
                0x000ab314                epcs_write_status_register
 .text          0x000ab36c       0x6c ../GIGLE10_bsp\libucosii_bsp.a(alt_busy_sleep.o)
                0x000ab36c                alt_busy_sleep
 .text          0x000ab3d8       0x7c ../GIGLE10_bsp\libucosii_bsp.a(alt_dev_llist_insert.o)
                0x000ab3d8                alt_dev_llist_insert
 .text          0x000ab454        0x0 ../GIGLE10_bsp\libucosii_bsp.a(alt_exception_entry.o)
 .text          0x000ab454       0x94 ../GIGLE10_bsp\libucosii_bsp.a(alt_find_dev.o)
                0x000ab454                alt_find_dev
 .text          0x000ab4e8       0xfc ../GIGLE10_bsp\libucosii_bsp.a(alt_io_redirect.o)
                0x000ab558                alt_io_redirect
 .text          0x000ab5e4      0x180 ../GIGLE10_bsp\libucosii_bsp.a(alt_open.o)
                0x000ab5e4                open
 .text          0x000ab764        0x8 ../GIGLE10_bsp\libucosii_bsp.a(altera_nios2_qsys_irq.o)
                0x000ab764                altera_nios2_qsys_irq_init
 .text          0x000ab76c       0xd0 ../GIGLE10_bsp\libucosii_bsp.a(os_cpu_a.o)
                0x000ab76c                OSCtxSw
                0x000ab76c                OSIntCtxSw
                0x000ab7f8                OSStartHighRdy
                0x000ab818                OSStartTsk
 .text          0x000ab83c      0x1f0 ../GIGLE10_bsp\libucosii_bsp.a(os_cpu_c.o)
                0x000ab83c                OSTaskCreateHook
                0x000ab840                OSTaskDelHook
                0x000ab844                OSTaskSwHook
                0x000ab848                OSTaskStatHook
                0x000ab84c                OSTimeTickHook
                0x000ab850                OSInitHookBegin
                0x000ab854                OSInitHookEnd
                0x000ab858                OSTaskIdleHook
                0x000ab85c                OSTCBInitHook
                0x000ab860                OSTaskStkInit
 .text          0x000aba2c      0x124 ../GIGLE10_bsp\libucosii_bsp.a(altera_avalon_spi.o)
                0x000aba2c                alt_avalon_spi_command
 .text          0x000abb50       0xb0 ../GIGLE10_bsp\libucosii_bsp.a(alt_find_file.o)
                0x000abb50                alt_find_file
 .text          0x000abc00       0xe0 ../GIGLE10_bsp\libucosii_bsp.a(alt_get_fd.o)
                0x000abc00                alt_get_fd
 .text          0x000abce0       0x38 c:/altera/11.1/nios2eds/bin/gnu/h-i686-mingw32/bin/../lib/gcc/nios2-elf/4.1.2/../../../../nios2-elf/lib/mhw-mulx\libc.a(lib_a-exit.o)
                0x000abce0                exit
 .text          0x000abd18       0x74 c:/altera/11.1/nios2eds/bin/gnu/h-i686-mingw32/bin/../lib/gcc/nios2-elf/4.1.2/../../../../nios2-elf/lib/mhw-mulx\libc.a(lib_a-memcmp.o)
                0x000abd18                memcmp
 .text          0x000abd8c      0x1b4 c:/altera/11.1/nios2eds/bin/gnu/h-i686-mingw32/bin/../lib/gcc/nios2-elf/4.1.2/../../../../nios2-elf/lib/mhw-mulx\libc.a(lib_a-__call_atexit.o)
                0x000abd90                __call_exitprocs
 .text          0x000abf40       0x20 ../GIGLE10_bsp\libucosii_bsp.a(alt_exit.o)
                0x000abf40                _exit
 *(.gnu.warning.*)
 *(.fini)
                0x000abf60                PROVIDE (__etext, ABSOLUTE (.))
                0x000abf60                PROVIDE (_etext, ABSOLUTE (.))
                0x000abf60                PROVIDE (etext, ABSOLUTE (.))
 *(.eh_frame_hdr)
                0x000abf60                . = ALIGN (0x4)
                0x000abf60                PROVIDE (__preinit_array_start, ABSOLUTE (.))
 *(.preinit_array)
                0x000abf60                PROVIDE (__preinit_array_end, ABSOLUTE (.))
                0x000abf60                PROVIDE (__init_array_start, ABSOLUTE (.))
 *(.init_array)
                0x000abf60                PROVIDE (__init_array_end, ABSOLUTE (.))
                0x000abf60                PROVIDE (__fini_array_start, ABSOLUTE (.))
 *(.fini_array)
                0x000abf60                PROVIDE (__fini_array_end, ABSOLUTE (.))
 *(.eh_frame)
 .eh_frame      0x000abf60       0x40 c:/altera/11.1/nios2eds/bin/gnu/h-i686-mingw32/bin/../lib/gcc/nios2-elf/4.1.2/mhw-mulx\libgcc.a(_divdi3.o)
 .eh_frame      0x000abfa0       0x2c c:/altera/11.1/nios2eds/bin/gnu/h-i686-mingw32/bin/../lib/gcc/nios2-elf/4.1.2/mhw-mulx\libgcc.a(_udivdi3.o)
                                 0x40 (size before relaxing)
 .eh_frame      0x000abfcc       0x2c c:/altera/11.1/nios2eds/bin/gnu/h-i686-mingw32/bin/../lib/gcc/nios2-elf/4.1.2/mhw-mulx\libgcc.a(_umoddi3.o)
                                 0x40 (size before relaxing)
 *(.gcc_except_table)
 *(.dynamic)
                0x000abff8                PROVIDE (__CTOR_LIST__, ABSOLUTE (.))
 *(.ctors)
 *(SORT(.ctors.*))
 .ctors.65535   0x000abff8        0x4 c:/altera/11.1/nios2eds/bin/gnu/h-i686-mingw32/bin/../lib/gcc/nios2-elf/4.1.2/../../../../nios2-elf/lib/mhw-mulx\libc.a(lib_a-__call_atexit.o)
                0x000abffc                PROVIDE (__CTOR_END__, ABSOLUTE (.))
                0x000abffc                PROVIDE (__DTOR_LIST__, ABSOLUTE (.))
 *(.dtors)
 *(SORT(.dtors.*))
                0x000abffc                PROVIDE (__DTOR_END__, ABSOLUTE (.))
 *(.jcr)
                0x000abffc                . = ALIGN (0x4)

.rodata         0x000abffc     0x8444
                0x000abffc                PROVIDE (__ram_rodata_start, ABSOLUTE (.))
                0x000abffc                . = ALIGN (0x4)
 *(.rodata .rodata.* .gnu.linkonce.r.*)
 .rodata.str1.4
                0x000abffc      0x3f3 obj/Debug/c37dot94.o
                                0x408 (size before relaxing)
 *fill*         0x000ac3ef        0x1 00
 .rodata.str1.4
                0x000ac3f0      0x160 obj/Debug/c37dot94_task.o
 .rodata.str1.4
                0x000ac550      0x23a obj/Debug/c37dot94bert.o
                                0x23c (size before relaxing)
 *fill*         0x000ac78a        0x2 00
 .rodata        0x000ac78c      0x1dc obj/Debug/c37dot94bert.o
 .rodata.str1.4
                0x000ac968      0xadc obj/Debug/cfg10_hw.o
                                0xb78 (size before relaxing)
 .rodata.str1.4
                0x000ad444      0x102 obj/Debug/cfg_c37.o
                                0x104 (size before relaxing)
 *fill*         0x000ad546        0x2 00
 .rodata.str1.4
                0x000ad548      0xa9c obj/Debug/cfg_hw.o
                                0xf6c (size before relaxing)
 .rodata.str1.4
                0x000adfe4     0x1073 obj/Debug/config.o
                               0x1074 (size before relaxing)
 *fill*         0x000af057        0x1 00
 .rodata.str1.4
                0x000af058     0x12e1 obj/Debug/config10g.o
                               0x12f4 (size before relaxing)
 *fill*         0x000b0339        0x3 00
 .rodata.str1.4
                0x000b033c       0x41 obj/Debug/config_multistream.o
                                 0x44 (size before relaxing)
 *fill*         0x000b037d        0x3 00
 .rodata.str1.4
                0x000b0380      0x6b2 obj/Debug/flash.o
                                0x6b4 (size before relaxing)
 *fill*         0x000b0a32        0x2 00
 .rodata.str1.4
                0x000b0a34      0x599 obj/Debug/gui_link.o
                                0x5e8 (size before relaxing)
 *fill*         0x000b0fcd        0x3 00
 .rodata.str1.4
                0x000b0fd0        0x3 obj/Debug/helpers.o
                                  0x4 (size before relaxing)
 *fill*         0x000b0fd3        0x1 00
 .rodata.str1.4
                0x000b0fd4      0x100 obj/Debug/init.o
 .rodata.str1.4
                0x000b10d4      0x35c obj/Debug/intr.o
 .rodata.str1.4
                0x000b1430       0x16 obj/Debug/link_task.o
                                 0x18 (size before relaxing)
 *fill*         0x000b1446        0x2 00
 .rodata.str1.4
                0x000b1448      0x339 obj/Debug/loopback.o
                                0x6b0 (size before relaxing)
 *fill*         0x000b1781        0x3 00
 .rodata.str1.4
                0x000b1784      0x623 obj/Debug/main.o
                                0x688 (size before relaxing)
 *fill*         0x000b1da7        0x1 00
 .rodata.str1.4
                0x000b1da8       0x64 obj/Debug/onesec_alrm.o
 .rodata.str1.4
                0x000b1e0c     0x159d obj/Debug/packet10g.o
                               0x15cc (size before relaxing)
 *fill*         0x000b33a9        0x3 00
 .rodata.str1.4
                0x000b33ac      0xa48 obj/Debug/results.o
 .rodata.str1.4
                0x000b3df4       0x3e obj/Debug/sfp.o
                                 0x40 (size before relaxing)
 *fill*         0x000b3e32        0x2 00
 .rodata.str1.4
                0x000b3e34      0x19f obj/Debug/status.o
                                0x1a0 (size before relaxing)
 *fill*         0x000b3fd3        0x1 00
 .rodata        0x000b3fd4       0x10 c:/altera/11.1/nios2eds/bin/gnu/h-i686-mingw32/bin/../lib/gcc/nios2-elf/4.1.2/mhw-mulx\libgcc.a(_thenan_sf.o)
                0x000b3fd4                __thenan_sf
 .rodata        0x000b3fe4       0x14 c:/altera/11.1/nios2eds/bin/gnu/h-i686-mingw32/bin/../lib/gcc/nios2-elf/4.1.2/mhw-mulx\libgcc.a(_thenan_df.o)
                0x000b3fe4                __thenan_df
 .rodata        0x000b3ff8      0x100 c:/altera/11.1/nios2eds/bin/gnu/h-i686-mingw32/bin/../lib/gcc/nios2-elf/4.1.2/mhw-mulx\libgcc.a(_clz.o)
                0x000b3ff8                __clz_tab
 .rodata.str1.4
                0x00000000      0x19f c:/altera/11.1/nios2eds/bin/gnu/h-i686-mingw32/bin/../lib/gcc/nios2-elf/4.1.2/../../../../nios2-elf/lib/mhw-mulx\libc.a(lib_a-puts.o)
                                  0x4 (size before relaxing)
 .rodata.str1.4
                0x000b40f8       0x5e c:/altera/11.1/nios2eds/bin/gnu/h-i686-mingw32/bin/../lib/gcc/nios2-elf/4.1.2/../../../../nios2-elf/lib/mhw-mulx\libc.a(lib_a-vfprintf.o)
                                 0x60 (size before relaxing)
 .rodata        0x000b4156       0x20 c:/altera/11.1/nios2eds/bin/gnu/h-i686-mingw32/bin/../lib/gcc/nios2-elf/4.1.2/../../../../nios2-elf/lib/mhw-mulx\libc.a(lib_a-vfprintf.o)
 *fill*         0x000b4176        0x2 00
 .rodata.str1.4
                0x000b4178       0x10 c:/altera/11.1/nios2eds/bin/gnu/h-i686-mingw32/bin/../lib/gcc/nios2-elf/4.1.2/../../../../nios2-elf/lib/mhw-mulx\libc.a(lib_a-dtoa.o)
                                 0x14 (size before relaxing)
 .rodata.str1.4
                0x00000000       0x10 c:/altera/11.1/nios2eds/bin/gnu/h-i686-mingw32/bin/../lib/gcc/nios2-elf/4.1.2/../../../../nios2-elf/lib/mhw-mulx\libc.a(lib_a-impure.o)
                                  0x4 (size before relaxing)
 .rodata.str1.4
                0x000b4188        0xb c:/altera/11.1/nios2eds/bin/gnu/h-i686-mingw32/bin/../lib/gcc/nios2-elf/4.1.2/../../../../nios2-elf/lib/mhw-mulx\libc.a(lib_a-locale.o)
                                 0x18 (size before relaxing)
 *fill*         0x000b4193        0x1 00
 .rodata        0x000b4194       0x30 c:/altera/11.1/nios2eds/bin/gnu/h-i686-mingw32/bin/../lib/gcc/nios2-elf/4.1.2/../../../../nios2-elf/lib/mhw-mulx\libc.a(lib_a-locale.o)
 .rodata        0x000b41c4      0x124 c:/altera/11.1/nios2eds/bin/gnu/h-i686-mingw32/bin/../lib/gcc/nios2-elf/4.1.2/../../../../nios2-elf/lib/mhw-mulx\libc.a(lib_a-mprec.o)
                0x000b41c4                __mprec_tens
                0x000b428c                __mprec_bigtens
                0x000b42b4                __mprec_tinytens
 .rodata.str1.4
                0x000b42e8        0xa ../GIGLE10_bsp\libucosii_bsp.a(alt_dev.o)
                                  0xc (size before relaxing)
 *fill*         0x000b42f2        0x2 00
 .rodata.str1.4
                0x000b42f4        0xf ../GIGLE10_bsp\libucosii_bsp.a(alt_main.o)
                                 0x10 (size before relaxing)
 *fill*         0x000b4303        0x1 00
 .rodata.str1.4
                0x000b4304       0x1e ../GIGLE10_bsp\libucosii_bsp.a(os_core.o)
                                 0x20 (size before relaxing)
 .rodata        0x000b4322      0x100 ../GIGLE10_bsp\libucosii_bsp.a(os_core.o)
                0x000b4322                OSUnMapTbl
 *fill*         0x000b4422        0x2 00
 .rodata.str1.4
                0x000b4424       0x1c ../GIGLE10_bsp\libucosii_bsp.a(alt_sys_init.o)
                                 0x4c (size before relaxing)
 .rodata.str1.4
                0x00000000        0x4 ../GIGLE10_bsp\libucosii_bsp.a(os_cpu_c.o)
 *(.rodata1)
                0x000b4440                . = ALIGN (0x4)
                0x000b4440                PROVIDE (__ram_rodata_end, ABSOLUTE (.))
                0x000abffc                PROVIDE (__flash_rodata_start, LOADADDR (.rodata))

.rwdata         0x000b4440     0x23e0
                0x000b4440                PROVIDE (__ram_rwdata_start, ABSOLUTE (.))
                0x000b4440                . = ALIGN (0x4)
 *(.got.plt)
 *(.got)
 *(.data1)
 *(.data .data.* .gnu.linkonce.d.*)
 .data          0x000b4440        0x0 ../GIGLE10_bsp/obj/HAL/src/crt0.o
 .data          0x000b4440        0x0 obj/Debug/alt_2_wire.o
 .data          0x000b4440        0x0 obj/Debug/c37dot94.o
 .data          0x000b4440        0x0 obj/Debug/c37dot94_task.o
 .data          0x000b4440        0x0 obj/Debug/c37dot94bert.o
 .data          0x000b4440        0x0 obj/Debug/cfg10_hw.o
 .data          0x000b4440       0xcc obj/Debug/cfg_c37.o
                0x000b4440                bert_str
 .data          0x000b450c        0x0 obj/Debug/cfg_frame.o
 .data          0x000b450c        0x0 obj/Debug/cfg_hw.o
 .data          0x000b450c        0x0 obj/Debug/config.o
 .data          0x000b450c        0x0 obj/Debug/config10g.o
 .data          0x000b450c        0x0 obj/Debug/config_multistream.o
 .data          0x000b450c        0x0 obj/Debug/flash.o
 .data          0x000b450c        0x0 obj/Debug/functions.o
 .data          0x000b450c        0x0 obj/Debug/gui_link.o
 .data          0x000b450c        0x0 obj/Debug/helpers.o
 .data          0x000b450c        0x0 obj/Debug/init.o
 .data          0x000b450c        0x0 obj/Debug/intr.o
 .data          0x000b450c        0x0 obj/Debug/link_task.o
 .data          0x000b450c        0x0 obj/Debug/loopback.o
 .data          0x000b450c        0x0 obj/Debug/main.o
 .data          0x000b450c        0x0 obj/Debug/onesec_alrm.o
 .data          0x000b450c      0x280 obj/Debug/packet10g.o
                0x000b450c                TRAFFIC_GEN_HDR
                0x000b458c                TRAFFIC_MON_MASK
                0x000b468c                TRAFFIC_MON_HDR
 .data          0x000b478c        0x0 obj/Debug/results.o
 .data          0x000b478c        0x0 obj/Debug/sfp.o
 .data          0x000b478c        0x0 obj/Debug/status.o
 .data          0x000b478c        0x0 obj/Debug/update_headers.o
 .data          0x000b478c        0x0 c:/altera/11.1/nios2eds/bin/gnu/h-i686-mingw32/bin/../lib/gcc/nios2-elf/4.1.2/../../../../nios2-elf/lib/mhw-mulx\libm.a(lib_a-s_round.o)
 .data          0x000b478c        0x0 c:/altera/11.1/nios2eds/bin/gnu/h-i686-mingw32/bin/../lib/gcc/nios2-elf/4.1.2/mhw-mulx\libgcc.a(_fixunssfsi.o)
 .data          0x000b478c        0x0 c:/altera/11.1/nios2eds/bin/gnu/h-i686-mingw32/bin/../lib/gcc/nios2-elf/4.1.2/mhw-mulx\libgcc.a(_fixunsdfsi.o)
 .data          0x000b478c        0x0 c:/altera/11.1/nios2eds/bin/gnu/h-i686-mingw32/bin/../lib/gcc/nios2-elf/4.1.2/mhw-mulx\libgcc.a(_fixunsdfdi.o)
 .data          0x000b478c        0x0 c:/altera/11.1/nios2eds/bin/gnu/h-i686-mingw32/bin/../lib/gcc/nios2-elf/4.1.2/mhw-mulx\libgcc.a(_floatdidf.o)
 .data          0x000b478c        0x0 c:/altera/11.1/nios2eds/bin/gnu/h-i686-mingw32/bin/../lib/gcc/nios2-elf/4.1.2/mhw-mulx\libgcc.a(_floatundidf.o)
 .data          0x000b478c        0x0 c:/altera/11.1/nios2eds/bin/gnu/h-i686-mingw32/bin/../lib/gcc/nios2-elf/4.1.2/mhw-mulx\libgcc.a(_divdi3.o)
 .data          0x000b478c        0x0 c:/altera/11.1/nios2eds/bin/gnu/h-i686-mingw32/bin/../lib/gcc/nios2-elf/4.1.2/mhw-mulx\libgcc.a(_addsub_sf.o)
 .data          0x000b478c        0x0 c:/altera/11.1/nios2eds/bin/gnu/h-i686-mingw32/bin/../lib/gcc/nios2-elf/4.1.2/mhw-mulx\libgcc.a(_mul_sf.o)
 .data          0x000b478c        0x0 c:/altera/11.1/nios2eds/bin/gnu/h-i686-mingw32/bin/../lib/gcc/nios2-elf/4.1.2/mhw-mulx\libgcc.a(_eq_sf.o)
 .data          0x000b478c        0x0 c:/altera/11.1/nios2eds/bin/gnu/h-i686-mingw32/bin/../lib/gcc/nios2-elf/4.1.2/mhw-mulx\libgcc.a(_ge_sf.o)
 .data          0x000b478c        0x0 c:/altera/11.1/nios2eds/bin/gnu/h-i686-mingw32/bin/../lib/gcc/nios2-elf/4.1.2/mhw-mulx\libgcc.a(_sf_to_si.o)
 .data          0x000b478c        0x0 c:/altera/11.1/nios2eds/bin/gnu/h-i686-mingw32/bin/../lib/gcc/nios2-elf/4.1.2/mhw-mulx\libgcc.a(_sf_to_df.o)
 .data          0x000b478c        0x0 c:/altera/11.1/nios2eds/bin/gnu/h-i686-mingw32/bin/../lib/gcc/nios2-elf/4.1.2/mhw-mulx\libgcc.a(_thenan_sf.o)
 .data          0x000b478c        0x0 c:/altera/11.1/nios2eds/bin/gnu/h-i686-mingw32/bin/../lib/gcc/nios2-elf/4.1.2/mhw-mulx\libgcc.a(_usi_to_sf.o)
 .data          0x000b478c        0x0 c:/altera/11.1/nios2eds/bin/gnu/h-i686-mingw32/bin/../lib/gcc/nios2-elf/4.1.2/mhw-mulx\libgcc.a(_addsub_df.o)
 .data          0x000b478c        0x0 c:/altera/11.1/nios2eds/bin/gnu/h-i686-mingw32/bin/../lib/gcc/nios2-elf/4.1.2/mhw-mulx\libgcc.a(_mul_df.o)
 .data          0x000b478c        0x0 c:/altera/11.1/nios2eds/bin/gnu/h-i686-mingw32/bin/../lib/gcc/nios2-elf/4.1.2/mhw-mulx\libgcc.a(_div_df.o)
 .data          0x000b478c        0x0 c:/altera/11.1/nios2eds/bin/gnu/h-i686-mingw32/bin/../lib/gcc/nios2-elf/4.1.2/mhw-mulx\libgcc.a(_gt_df.o)
 .data          0x000b478c        0x0 c:/altera/11.1/nios2eds/bin/gnu/h-i686-mingw32/bin/../lib/gcc/nios2-elf/4.1.2/mhw-mulx\libgcc.a(_ge_df.o)
 .data          0x000b478c        0x0 c:/altera/11.1/nios2eds/bin/gnu/h-i686-mingw32/bin/../lib/gcc/nios2-elf/4.1.2/mhw-mulx\libgcc.a(_si_to_df.o)
 .data          0x000b478c        0x0 c:/altera/11.1/nios2eds/bin/gnu/h-i686-mingw32/bin/../lib/gcc/nios2-elf/4.1.2/mhw-mulx\libgcc.a(_df_to_si.o)
 .data          0x000b478c        0x0 c:/altera/11.1/nios2eds/bin/gnu/h-i686-mingw32/bin/../lib/gcc/nios2-elf/4.1.2/mhw-mulx\libgcc.a(_make_df.o)
 .data          0x000b478c        0x0 c:/altera/11.1/nios2eds/bin/gnu/h-i686-mingw32/bin/../lib/gcc/nios2-elf/4.1.2/mhw-mulx\libgcc.a(_df_to_sf.o)
 .data          0x000b478c        0x0 c:/altera/11.1/nios2eds/bin/gnu/h-i686-mingw32/bin/../lib/gcc/nios2-elf/4.1.2/mhw-mulx\libgcc.a(_thenan_df.o)
 .data          0x000b478c        0x0 c:/altera/11.1/nios2eds/bin/gnu/h-i686-mingw32/bin/../lib/gcc/nios2-elf/4.1.2/mhw-mulx\libgcc.a(_usi_to_df.o)
 .data          0x000b478c        0x0 c:/altera/11.1/nios2eds/bin/gnu/h-i686-mingw32/bin/../lib/gcc/nios2-elf/4.1.2/mhw-mulx\libgcc.a(lib2-divmod.o)
 .data          0x000b478c        0x0 c:/altera/11.1/nios2eds/bin/gnu/h-i686-mingw32/bin/../lib/gcc/nios2-elf/4.1.2/mhw-mulx\libgcc.a(_clz.o)
 .data          0x000b478c        0x0 c:/altera/11.1/nios2eds/bin/gnu/h-i686-mingw32/bin/../lib/gcc/nios2-elf/4.1.2/mhw-mulx\libgcc.a(_clzsi2.o)
 .data          0x000b478c        0x0 c:/altera/11.1/nios2eds/bin/gnu/h-i686-mingw32/bin/../lib/gcc/nios2-elf/4.1.2/mhw-mulx\libgcc.a(_pack_sf.o)
 .data          0x000b478c        0x0 c:/altera/11.1/nios2eds/bin/gnu/h-i686-mingw32/bin/../lib/gcc/nios2-elf/4.1.2/mhw-mulx\libgcc.a(_unpack_sf.o)
 .data          0x000b478c        0x0 c:/altera/11.1/nios2eds/bin/gnu/h-i686-mingw32/bin/../lib/gcc/nios2-elf/4.1.2/mhw-mulx\libgcc.a(_fpcmp_parts_sf.o)
 .data          0x000b478c        0x0 c:/altera/11.1/nios2eds/bin/gnu/h-i686-mingw32/bin/../lib/gcc/nios2-elf/4.1.2/mhw-mulx\libgcc.a(_make_sf.o)
 .data          0x000b478c        0x0 c:/altera/11.1/nios2eds/bin/gnu/h-i686-mingw32/bin/../lib/gcc/nios2-elf/4.1.2/mhw-mulx\libgcc.a(_pack_df.o)
 .data          0x000b478c        0x0 c:/altera/11.1/nios2eds/bin/gnu/h-i686-mingw32/bin/../lib/gcc/nios2-elf/4.1.2/mhw-mulx\libgcc.a(_unpack_df.o)
 .data          0x000b478c        0x0 c:/altera/11.1/nios2eds/bin/gnu/h-i686-mingw32/bin/../lib/gcc/nios2-elf/4.1.2/mhw-mulx\libgcc.a(_fpcmp_parts_df.o)
 .data          0x000b478c        0x0 c:/altera/11.1/nios2eds/bin/gnu/h-i686-mingw32/bin/../lib/gcc/nios2-elf/4.1.2/../../../../nios2-elf/lib/mhw-mulx\libc.a(lib_a-printf.o)
 .data          0x000b478c        0x0 c:/altera/11.1/nios2eds/bin/gnu/h-i686-mingw32/bin/../lib/gcc/nios2-elf/4.1.2/../../../../nios2-elf/lib/mhw-mulx\libc.a(lib_a-putchar.o)
 .data          0x000b478c        0x0 c:/altera/11.1/nios2eds/bin/gnu/h-i686-mingw32/bin/../lib/gcc/nios2-elf/4.1.2/../../../../nios2-elf/lib/mhw-mulx\libc.a(lib_a-puts.o)
 .data          0x000b478c        0x0 c:/altera/11.1/nios2eds/bin/gnu/h-i686-mingw32/bin/../lib/gcc/nios2-elf/4.1.2/../../../../nios2-elf/lib/mhw-mulx\libc.a(lib_a-strlen.o)
 .data          0x000b478c        0x0 c:/altera/11.1/nios2eds/bin/gnu/h-i686-mingw32/bin/../lib/gcc/nios2-elf/4.1.2/../../../../nios2-elf/lib/mhw-mulx\libc.a(lib_a-strncmp.o)
 .data          0x000b478c        0x0 c:/altera/11.1/nios2eds/bin/gnu/h-i686-mingw32/bin/../lib/gcc/nios2-elf/4.1.2/../../../../nios2-elf/lib/mhw-mulx\libc.a(lib_a-vfprintf.o)
 .data          0x000b478c        0x0 c:/altera/11.1/nios2eds/bin/gnu/h-i686-mingw32/bin/../lib/gcc/nios2-elf/4.1.2/../../../../nios2-elf/lib/mhw-mulx\libc.a(lib_a-wsetup.o)
 .data          0x000b478c        0x0 c:/altera/11.1/nios2eds/bin/gnu/h-i686-mingw32/bin/../lib/gcc/nios2-elf/4.1.2/../../../../nios2-elf/lib/mhw-mulx\libc.a(lib_a-dtoa.o)
 .data          0x000b478c        0x0 c:/altera/11.1/nios2eds/bin/gnu/h-i686-mingw32/bin/../lib/gcc/nios2-elf/4.1.2/../../../../nios2-elf/lib/mhw-mulx\libc.a(lib_a-fflush.o)
 .data          0x000b478c        0x0 c:/altera/11.1/nios2eds/bin/gnu/h-i686-mingw32/bin/../lib/gcc/nios2-elf/4.1.2/../../../../nios2-elf/lib/mhw-mulx\libc.a(lib_a-findfp.o)
 .data          0x000b478c        0x0 c:/altera/11.1/nios2eds/bin/gnu/h-i686-mingw32/bin/../lib/gcc/nios2-elf/4.1.2/../../../../nios2-elf/lib/mhw-mulx\libc.a(lib_a-freer.o)
 .data          0x000b478c        0x0 c:/altera/11.1/nios2eds/bin/gnu/h-i686-mingw32/bin/../lib/gcc/nios2-elf/4.1.2/../../../../nios2-elf/lib/mhw-mulx\libc.a(lib_a-fvwrite.o)
 .data          0x000b478c        0x0 c:/altera/11.1/nios2eds/bin/gnu/h-i686-mingw32/bin/../lib/gcc/nios2-elf/4.1.2/../../../../nios2-elf/lib/mhw-mulx\libc.a(lib_a-fwalk.o)
 .data          0x000b478c      0x400 c:/altera/11.1/nios2eds/bin/gnu/h-i686-mingw32/bin/../lib/gcc/nios2-elf/4.1.2/../../../../nios2-elf/lib/mhw-mulx\libc.a(lib_a-impure.o)
 .data          0x000b4b8c        0xc c:/altera/11.1/nios2eds/bin/gnu/h-i686-mingw32/bin/../lib/gcc/nios2-elf/4.1.2/../../../../nios2-elf/lib/mhw-mulx\libc.a(lib_a-locale.o)
                0x000b4b8c                __lc_ctype
 .data          0x000b4b98        0x0 c:/altera/11.1/nios2eds/bin/gnu/h-i686-mingw32/bin/../lib/gcc/nios2-elf/4.1.2/../../../../nios2-elf/lib/mhw-mulx\libc.a(lib_a-makebuf.o)
 .data          0x000b4b98      0x408 c:/altera/11.1/nios2eds/bin/gnu/h-i686-mingw32/bin/../lib/gcc/nios2-elf/4.1.2/../../../../nios2-elf/lib/mhw-mulx\libc.a(lib_a-mallocr.o)
                0x000b4b98                __malloc_av_
 .data          0x000b4fa0        0x0 c:/altera/11.1/nios2eds/bin/gnu/h-i686-mingw32/bin/../lib/gcc/nios2-elf/4.1.2/../../../../nios2-elf/lib/mhw-mulx\libc.a(lib_a-memchr.o)
 .data          0x000b4fa0        0x0 c:/altera/11.1/nios2eds/bin/gnu/h-i686-mingw32/bin/../lib/gcc/nios2-elf/4.1.2/../../../../nios2-elf/lib/mhw-mulx\libc.a(lib_a-memcpy.o)
 .data          0x000b4fa0        0x0 c:/altera/11.1/nios2eds/bin/gnu/h-i686-mingw32/bin/../lib/gcc/nios2-elf/4.1.2/../../../../nios2-elf/lib/mhw-mulx\libc.a(lib_a-memmove.o)
 .data          0x000b4fa0        0x0 c:/altera/11.1/nios2eds/bin/gnu/h-i686-mingw32/bin/../lib/gcc/nios2-elf/4.1.2/../../../../nios2-elf/lib/mhw-mulx\libc.a(lib_a-memset.o)
 .data          0x000b4fa0        0x0 c:/altera/11.1/nios2eds/bin/gnu/h-i686-mingw32/bin/../lib/gcc/nios2-elf/4.1.2/../../../../nios2-elf/lib/mhw-mulx\libc.a(lib_a-mprec.o)
 .data          0x000b4fa0        0x0 c:/altera/11.1/nios2eds/bin/gnu/h-i686-mingw32/bin/../lib/gcc/nios2-elf/4.1.2/../../../../nios2-elf/lib/mhw-mulx\libc.a(lib_a-putc.o)
 .data          0x000b4fa0        0x0 c:/altera/11.1/nios2eds/bin/gnu/h-i686-mingw32/bin/../lib/gcc/nios2-elf/4.1.2/../../../../nios2-elf/lib/mhw-mulx\libc.a(lib_a-reallocr.o)
 .data          0x000b4fa0        0x0 c:/altera/11.1/nios2eds/bin/gnu/h-i686-mingw32/bin/../lib/gcc/nios2-elf/4.1.2/../../../../nios2-elf/lib/mhw-mulx\libc.a(lib_a-s_isinfd.o)
 .data          0x000b4fa0        0x0 c:/altera/11.1/nios2eds/bin/gnu/h-i686-mingw32/bin/../lib/gcc/nios2-elf/4.1.2/../../../../nios2-elf/lib/mhw-mulx\libc.a(lib_a-s_isnand.o)
 .data          0x000b4fa0        0x0 c:/altera/11.1/nios2eds/bin/gnu/h-i686-mingw32/bin/../lib/gcc/nios2-elf/4.1.2/../../../../nios2-elf/lib/mhw-mulx\libc.a(lib_a-sbrkr.o)
 .data          0x000b4fa0        0x0 c:/altera/11.1/nios2eds/bin/gnu/h-i686-mingw32/bin/../lib/gcc/nios2-elf/4.1.2/../../../../nios2-elf/lib/mhw-mulx\libc.a(lib_a-stdio.o)
 .data          0x000b4fa0        0x0 c:/altera/11.1/nios2eds/bin/gnu/h-i686-mingw32/bin/../lib/gcc/nios2-elf/4.1.2/../../../../nios2-elf/lib/mhw-mulx\libc.a(lib_a-strcmp.o)
 .data          0x000b4fa0        0x0 c:/altera/11.1/nios2eds/bin/gnu/h-i686-mingw32/bin/../lib/gcc/nios2-elf/4.1.2/../../../../nios2-elf/lib/mhw-mulx\libc.a(lib_a-wbuf.o)
 .data          0x000b4fa0        0x0 c:/altera/11.1/nios2eds/bin/gnu/h-i686-mingw32/bin/../lib/gcc/nios2-elf/4.1.2/../../../../nios2-elf/lib/mhw-mulx\libc.a(lib_a-writer.o)
 .data          0x000b4fa0        0x0 c:/altera/11.1/nios2eds/bin/gnu/h-i686-mingw32/bin/../lib/gcc/nios2-elf/4.1.2/../../../../nios2-elf/lib/mhw-mulx\libc.a(lib_a-callocr.o)
 .data          0x000b4fa0        0x0 c:/altera/11.1/nios2eds/bin/gnu/h-i686-mingw32/bin/../lib/gcc/nios2-elf/4.1.2/../../../../nios2-elf/lib/mhw-mulx\libc.a(lib_a-closer.o)
 .data          0x000b4fa0        0x0 c:/altera/11.1/nios2eds/bin/gnu/h-i686-mingw32/bin/../lib/gcc/nios2-elf/4.1.2/../../../../nios2-elf/lib/mhw-mulx\libc.a(lib_a-fclose.o)
 .data          0x000b4fa0        0x0 c:/altera/11.1/nios2eds/bin/gnu/h-i686-mingw32/bin/../lib/gcc/nios2-elf/4.1.2/../../../../nios2-elf/lib/mhw-mulx\libc.a(lib_a-fstatr.o)
 .data          0x000b4fa0        0x0 c:/altera/11.1/nios2eds/bin/gnu/h-i686-mingw32/bin/../lib/gcc/nios2-elf/4.1.2/../../../../nios2-elf/lib/mhw-mulx\libc.a(lib_a-int_errno.o)
 .data          0x000b4fa0        0x0 c:/altera/11.1/nios2eds/bin/gnu/h-i686-mingw32/bin/../lib/gcc/nios2-elf/4.1.2/../../../../nios2-elf/lib/mhw-mulx\libc.a(lib_a-isattyr.o)
 .data          0x000b4fa0        0x0 c:/altera/11.1/nios2eds/bin/gnu/h-i686-mingw32/bin/../lib/gcc/nios2-elf/4.1.2/../../../../nios2-elf/lib/mhw-mulx\libc.a(lib_a-lseekr.o)
 .data          0x000b4fa0        0x0 c:/altera/11.1/nios2eds/bin/gnu/h-i686-mingw32/bin/../lib/gcc/nios2-elf/4.1.2/../../../../nios2-elf/lib/mhw-mulx\libc.a(lib_a-readr.o)
 .data          0x000b4fa0        0x0 c:/altera/11.1/nios2eds/bin/gnu/h-i686-mingw32/bin/../lib/gcc/nios2-elf/4.1.2/mhw-mulx\libgcc.a(_udivdi3.o)
 .data          0x000b4fa0        0x0 c:/altera/11.1/nios2eds/bin/gnu/h-i686-mingw32/bin/../lib/gcc/nios2-elf/4.1.2/mhw-mulx\libgcc.a(_umoddi3.o)
 .data          0x000b4fa0        0x0 c:/altera/11.1/nios2eds/bin/gnu/h-i686-mingw32/bin/../lib/gcc/nios2-elf/4.1.2/mhw-mulx\libgcc.a(_eq_df.o)
 .data          0x000b4fa0        0x0 c:/altera/11.1/nios2eds/bin/gnu/h-i686-mingw32/bin/../lib/gcc/nios2-elf/4.1.2/mhw-mulx\libgcc.a(_ne_df.o)
 .data          0x000b4fa0        0x0 c:/altera/11.1/nios2eds/bin/gnu/h-i686-mingw32/bin/../lib/gcc/nios2-elf/4.1.2/mhw-mulx\libgcc.a(_lt_df.o)
 .data          0x000b4fa0        0x0 ../GIGLE10_bsp\libucosii_bsp.a(alt_alarm_start.o)
 .data          0x000b4fa0        0x0 ../GIGLE10_bsp\libucosii_bsp.a(alt_close.o)
 .data          0x000b4fa0        0x0 ../GIGLE10_bsp\libucosii_bsp.a(alt_dcache_flush.o)
 .data          0x000b4fa0      0x1a8 ../GIGLE10_bsp\libucosii_bsp.a(alt_dev.o)
                0x000b4fa0                alt_dev_null
                0x000b4fc8                alt_fd_list
 .data          0x000b5148        0x0 ../GIGLE10_bsp\libucosii_bsp.a(alt_errno.o)
 .data          0x000b5148        0x0 ../GIGLE10_bsp\libucosii_bsp.a(alt_flash_dev.o)
 .data          0x000b5148        0x0 ../GIGLE10_bsp\libucosii_bsp.a(alt_fstat.o)
 .data          0x000b5148        0x0 ../GIGLE10_bsp\libucosii_bsp.a(alt_iic.o)
 .data          0x000b5148        0x0 ../GIGLE10_bsp\libucosii_bsp.a(alt_iic_isr_register.o)
 .data          0x000b5148        0x0 ../GIGLE10_bsp\libucosii_bsp.a(alt_irq_entry.o)
 .data          0x000b5148        0x0 ../GIGLE10_bsp\libucosii_bsp.a(alt_irq_handler.o)
 .data          0x000b5148        0x0 ../GIGLE10_bsp\libucosii_bsp.a(alt_irq_vars.o)
 .data          0x000b5148        0x0 ../GIGLE10_bsp\libucosii_bsp.a(alt_isatty.o)
 .data          0x000b5148        0x0 ../GIGLE10_bsp\libucosii_bsp.a(alt_lseek.o)
 .data          0x000b5148        0x0 ../GIGLE10_bsp\libucosii_bsp.a(alt_main.o)
 .data          0x000b5148        0x0 ../GIGLE10_bsp\libucosii_bsp.a(alt_read.o)
 .data          0x000b5148        0x0 ../GIGLE10_bsp\libucosii_bsp.a(alt_release_fd.o)
 .data          0x000b5148        0x0 ../GIGLE10_bsp\libucosii_bsp.a(alt_sbrk.o)
 .data          0x000b5148        0x0 ../GIGLE10_bsp\libucosii_bsp.a(alt_tick.o)
 .data          0x000b5148        0x0 ../GIGLE10_bsp\libucosii_bsp.a(alt_usleep.o)
 .data          0x000b5148        0x0 ../GIGLE10_bsp\libucosii_bsp.a(alt_write.o)
 .data          0x000b5148        0x0 ../GIGLE10_bsp\libucosii_bsp.a(alt_env_lock.o)
 .data          0x000b5148        0x0 ../GIGLE10_bsp\libucosii_bsp.a(alt_malloc_lock.o)
 .data          0x000b5148        0x0 ../GIGLE10_bsp\libucosii_bsp.a(os_core.o)
 .data          0x000b5148        0x0 ../GIGLE10_bsp\libucosii_bsp.a(os_dbg.o)
 .data          0x000b5148        0x0 ../GIGLE10_bsp\libucosii_bsp.a(os_flag.o)
 .data          0x000b5148        0x0 ../GIGLE10_bsp\libucosii_bsp.a(os_mem.o)
 .data          0x000b5148        0x0 ../GIGLE10_bsp\libucosii_bsp.a(os_q.o)
 .data          0x000b5148        0x0 ../GIGLE10_bsp\libucosii_bsp.a(os_sem.o)
 .data          0x000b5148        0x0 ../GIGLE10_bsp\libucosii_bsp.a(os_task.o)
 .data          0x000b5148        0x0 ../GIGLE10_bsp\libucosii_bsp.a(os_time.o)
 .data          0x000b5148     0x12d0 ../GIGLE10_bsp\libucosii_bsp.a(alt_sys_init.o)
 .data          0x000b6418        0x0 ../GIGLE10_bsp\libucosii_bsp.a(altera_avalon_epcs_flash_controller.o)
 .data          0x000b6418        0x0 ../GIGLE10_bsp\libucosii_bsp.a(altera_avalon_jtag_uart_fd.o)
 .data          0x000b6418        0x0 ../GIGLE10_bsp\libucosii_bsp.a(altera_avalon_jtag_uart_init.o)
 .data          0x000b6418        0x0 ../GIGLE10_bsp\libucosii_bsp.a(altera_avalon_jtag_uart_ioctl.o)
 .data          0x000b6418        0x0 ../GIGLE10_bsp\libucosii_bsp.a(altera_avalon_jtag_uart_read.o)
 .data          0x000b6418        0x0 ../GIGLE10_bsp\libucosii_bsp.a(altera_avalon_jtag_uart_write.o)
 .data          0x000b6418        0x0 ../GIGLE10_bsp\libucosii_bsp.a(altera_avalon_timer_sc.o)
 .data          0x000b6418        0x0 ../GIGLE10_bsp\libucosii_bsp.a(altera_avalon_uart_fd.o)
 .data          0x000b6418        0x0 ../GIGLE10_bsp\libucosii_bsp.a(altera_avalon_uart_init.o)
 .data          0x000b6418        0x0 ../GIGLE10_bsp\libucosii_bsp.a(altera_avalon_uart_read.o)
 .data          0x000b6418        0x0 ../GIGLE10_bsp\libucosii_bsp.a(altera_avalon_uart_write.o)
 .data          0x000b6418        0x0 ../GIGLE10_bsp\libucosii_bsp.a(epcs_commands.o)
 .data          0x000b6418        0x0 ../GIGLE10_bsp\libucosii_bsp.a(alt_busy_sleep.o)
 .data          0x000b6418        0x0 ../GIGLE10_bsp\libucosii_bsp.a(alt_dev_llist_insert.o)
 .data          0x000b6418        0x0 ../GIGLE10_bsp\libucosii_bsp.a(alt_exception_entry.o)
 .data          0x000b6418        0x0 ../GIGLE10_bsp\libucosii_bsp.a(alt_find_dev.o)
 .data          0x000b6418        0x0 ../GIGLE10_bsp\libucosii_bsp.a(alt_io_redirect.o)
 .data          0x000b6418        0x0 ../GIGLE10_bsp\libucosii_bsp.a(alt_open.o)
 .data          0x000b6418        0x0 ../GIGLE10_bsp\libucosii_bsp.a(altera_nios2_qsys_irq.o)
 .data          0x000b6418        0x0 ../GIGLE10_bsp\libucosii_bsp.a(os_cpu_a.o)
 .data          0x000b6418        0x0 ../GIGLE10_bsp\libucosii_bsp.a(os_cpu_c.o)
 .data          0x000b6418        0x0 ../GIGLE10_bsp\libucosii_bsp.a(altera_avalon_spi.o)
 .data          0x000b6418        0x0 ../GIGLE10_bsp\libucosii_bsp.a(alt_find_file.o)
 .data          0x000b6418        0x0 ../GIGLE10_bsp\libucosii_bsp.a(alt_get_fd.o)
 .data          0x000b6418        0x0 c:/altera/11.1/nios2eds/bin/gnu/h-i686-mingw32/bin/../lib/gcc/nios2-elf/4.1.2/../../../../nios2-elf/lib/mhw-mulx\libc.a(lib_a-exit.o)
 .data          0x000b6418        0x0 c:/altera/11.1/nios2eds/bin/gnu/h-i686-mingw32/bin/../lib/gcc/nios2-elf/4.1.2/../../../../nios2-elf/lib/mhw-mulx\libc.a(lib_a-memcmp.o)
 .data          0x000b6418        0x0 c:/altera/11.1/nios2eds/bin/gnu/h-i686-mingw32/bin/../lib/gcc/nios2-elf/4.1.2/../../../../nios2-elf/lib/mhw-mulx\libc.a(lib_a-__call_atexit.o)
 .data          0x000b6418        0x0 ../GIGLE10_bsp\libucosii_bsp.a(alt_exit.o)
                0x000be418                _gp = ABSOLUTE ((. + 0x8000))
                0x000be418                PROVIDE (gp, _gp)
 *(.rwdata .rwdata.*)
 *(.sdata .sdata.* .gnu.linkonce.s.*)
 .sdata         0x000b6418        0x4 obj/Debug/alt_2_wire.o
                0x000b6418                alt_2_wireDelay
 .sdata         0x000b641c        0x8 obj/Debug/c37dot94.o
                0x000b641c                LOF_WATCHDOG_LIMIT
                0x000b6420                RCV_CLOCK_WATCHDOG_LIMIT
 .sdata         0x000b6424      0x338 obj/Debug/main.o
                0x000b6424                GIGE_A
                0x000b6425                EMON_TIMEOUT
                0x000b6426                Rx_PACKET_ID
                0x000b6428                PIO3_Content
                0x000b642c                gen_number_seconds
                0x000b6430                number_packet_lsb
                0x000b6438                MACA_COMMAND_CONFIG
                0x000b643c                MACB_COMMAND_CONFIG
                0x000b6440                OPTIONS_INSTALLED
                0x000b6441                OPTIONS_ENABLED
                0x000b6442                PHYA_ETH_SPEED
                0x000b6443                PHYB_ETH_SPEED
                0x000b6444                PHYA_COPPER_ENABLE_AN
                0x000b6445                PHYA_FIBER_ENABLE_AN
                0x000b6446                PHYA_COPPER_FULLDUPLEX
                0x000b6447                PHYA_FIBER_FULLDUPLEX
                0x000b6448                PHYB_COPPER_ENABLE_AN
                0x000b6449                PHYB_FIBER_ENABLE_AN
                0x000b644a                PHYB_COPPER_FULLDUPLEX
                0x000b644b                PHYB_FIBER_FULLDUPLEX
                0x000b644c                PHYA_CONFIG
                0x000b644e                PHYB_CONFIG
                0x000b6450                MAC_FRM_LENGTH
                0x000b6452                traffic_gen_pkt_length
                0x000b6454                egen_line_load_rate
                0x000b6458                traffic_gen_config
                0x000b645c                traffic_gen_config2
                0x000b6460                traffic_gen_config3
                0x000b6464                traffic_gen_config4
                0x000b6468                SET_SWAP_B_TOGGLE
                0x000b646a                requestTimer
                0x000b646c                loopbackStatPtr
                0x000b646d                stream_offset
                0x000b646e                size_offset
                0x000b6470                num_of_streams
                0x000b6472                TRAFFIC_GEN_PKT_EMIXUSERSIZE5_ptr
                0x000b6474                TRAFFIC_GEN_PKT_EMIXUSERSIZE4_ptr
                0x000b6476                TRAFFIC_MON_STREAM_CNTL3_ptr
                0x000b6478                TRAFFIC_MON_STREAM_CNTL2_ptr
                0x000b647a                TRAFFIC_MON_STREAM_CNTL1_ptr
                0x000b647c                TRAFFIC_MON_STREAM_CNTL0_ptr
                0x000b647e                TRAFFIC_RATE_TYPE
                0x000b6480                TRAFFIC_RATE3_ptr
                0x000b6482                TRAFFIC_RATE2_ptr
                0x000b6484                TRAFFIC_RATE1_ptr
                0x000b6486                TRAFFIC_RATE0_ptr
                0x000b6488                TRAFFIC_GEN_PKTPERCENT11_ptr
                0x000b648a                TRAFFIC_GEN_PKTPERCENT10_ptr
                0x000b648c                TRAFFIC_GEN_PKTPERCENT03_ptr
                0x000b648e                TRAFFIC_GEN_PKTPERCENT02_ptr
                0x000b6490                TRAFFIC_GEN_PKTPERCENT01_ptr
                0x000b6492                TRAFFIC_GEN_PKTPERCENT00_ptr
                0x000b6494                EGEN_PKT_TYPE_ptr
                0x000b6496                EGEN_PKT_TYPE_ptr_1
                0x000b6498                EGEN_PKT_TYPE_ptr_2
                0x000b649a                TRAFFIC_GEN_CONFIG33_ptr
                0x000b649c                TRAFFIC_GEN_CONFIG32_ptr
                0x000b649e                TRAFFIC_GEN_CONFIG31_ptr
                0x000b64a0                TRAFFIC_GEN_CONFIG30_ptr
                0x000b64a2                TRAFFIC_GEN_CONFIG23_ptr
                0x000b64a4                TRAFFIC_GEN_CONFIG22_ptr
                0x000b64a6                TRAFFIC_GEN_CONFIG21_ptr
                0x000b64a8                TRAFFIC_GEN_CONFIG20_ptr
                0x000b64aa                TRAFFIC_GEN_CONFIG13_ptr
                0x000b64ac                TRAFFIC_GEN_CONFIG12_ptr
                0x000b64ae                TRAFFIC_GEN_CONFIG11_ptr
                0x000b64b0                TRAFFIC_GEN_CONFIG10_ptr
                0x000b64b2                TRAFFIC_GEN_CONFIG03_ptr
                0x000b64b4                TRAFFIC_GEN_CONFIG02_ptr
                0x000b64b6                TRAFFIC_GEN_CONFIG01_ptr
                0x000b64b8                TRAFFIC_GEN_CONFIG00_ptr
                0x000b64bc                DEF_EMIX_RANDOM
                0x000b64c4                DEF_GEN_EMIXSEQ0
                0x000b64cc                DEF_GEN_EMIXSEQ1
                0x000b64d4                DEF_GEN_EMIXSEQ2
                0x000b64dc                DEF_GEN_EMIXSEQ3
                0x000b64e4                DEF_GEN_EMIXUSER
                0x000b64ec                DEF_GEN_EMIXUSER1
                0x000b64f4                TRAFFIC_GEN_PKT_EMIXUSERSIZE3_ptr
                0x000b64f6                TRAFFIC_GEN_PKT_EMIXUSERSIZE2_ptr
                0x000b64f8                TRAFFIC_GEN_PKT_EMIXUSERSIZE1_ptr
                0x000b64fa                TRAFFIC_GEN_PKT_EMIXUSERSIZE0_ptr
                0x000b64fc                TRAFFIC_GEN_EMIXSEQ33_ptr
                0x000b64fe                TRAFFIC_GEN_EMIXSEQ32_ptr
                0x000b6500                TRAFFIC_GEN_EMIXSEQ31_ptr
                0x000b6502                TRAFFIC_GEN_EMIXSEQ30_ptr
                0x000b6504                TRAFFIC_GEN_EMIXSEQ23_ptr
                0x000b6506                TRAFFIC_GEN_EMIXSEQ22_ptr
                0x000b6508                TRAFFIC_GEN_EMIXSEQ21_ptr
                0x000b650a                TRAFFIC_GEN_EMIXSEQ20_ptr
                0x000b650c                TRAFFIC_GEN_EMIXSEQ13_ptr
                0x000b650e                TRAFFIC_GEN_EMIXSEQ12_ptr
                0x000b6510                TRAFFIC_GEN_EMIXSEQ11_ptr
                0x000b6512                TRAFFIC_GEN_EMIXSEQ10_ptr
                0x000b6514                TRAFFIC_GEN_EMIXSEQ03_ptr
                0x000b6516                TRAFFIC_GEN_EMIXSEQ02_ptr
                0x000b6518                TRAFFIC_GEN_EMIXSEQ01_ptr
                0x000b651a                TRAFFIC_GEN_EMIXSEQ00_ptr
                0x000b651c                Y1564_CIR_3_ptr
                0x000b651e                Y1564_CIR_2_ptr
                0x000b6520                Y1564_CIR_1_ptr
                0x000b6522                Y1564_CIR_0_ptr
                0x000b6524                Y1564_EIR_3_ptr
                0x000b6526                Y1564_EIR_2_ptr
                0x000b6528                Y1564_EIR_1_ptr
                0x000b652a                Y1564_EIR_0_ptr
                0x000b652c                Y1564_CIR_STEPS_ptr
                0x000b652e                Y1564_MAX_FTD_3_ptr
                0x000b6530                Y1564_MAX_FTD_2_ptr
                0x000b6532                Y1564_MAX_FTD_1_ptr
                0x000b6534                Y1564_MAX_FTD_0_ptr
                0x000b6536                Y1564_MAX_FDV_3_ptr
                0x000b6538                Y1564_MAX_FDV_2_ptr
                0x000b653a                Y1564_MAX_FDV_1_ptr
                0x000b653c                Y1564_MAX_FDV_0_ptr
                0x000b653e                Y1564_MAX_FRAME_LOSS_3_ptr
                0x000b6540                Y1564_MAX_FRAME_LOSS_2_ptr
                0x000b6542                Y1564_MAX_FRAME_LOSS_1_ptr
                0x000b6544                Y1564_MAX_FRAME_LOSS_0_ptr
                0x000b6546                Y1564_MAX_AVAIL_3_ptr
                0x000b6548                Y1564_MAX_AVAIL_2_ptr
                0x000b654a                Y1564_MAX_AVAIL_1_ptr
                0x000b654c                Y1564_MAX_AVAIL_0_ptr
                0x000b654e                SPARE_THRESHOLD_03
                0x000b6550                SPARE_THRESHOLD_02
                0x000b6552                SPARE_THRESHOLD_01
                0x000b6554                SPARE_THRESHOLD_00
                0x000b6556                TRAFFIC_GEN_SPARE_ptr
                0x000b6558                TRAFFIC_HDR_DEF_ptr
                0x000b655a                TRAFFIC_HDR0_3_ptr
                0x000b655c                TRAFFIC_HDR0_2_ptr
                0x000b655e                TRAFFIC_HDR0_1_ptr
                0x000b6560                TRAFFIC_HDR0_0_ptr
                0x000b6562                TRAFFIC_HDR1_3_ptr
                0x000b6564                TRAFFIC_HDR1_2_ptr
                0x000b6566                TRAFFIC_HDR1_1_ptr
                0x000b6568                TRAFFIC_HDR1_0_ptr
                0x000b656a                TRAFFIC_HDR2_3_ptr
                0x000b656c                TRAFFIC_HDR2_2_ptr
                0x000b656e                TRAFFIC_HDR2_1_ptr
                0x000b6570                TRAFFIC_HDR2_0_ptr
                0x000b6572                TRAFFIC_HDR3_3_ptr
                0x000b6574                TRAFFIC_HDR3_2_ptr
                0x000b6576                TRAFFIC_HDR3_1_ptr
                0x000b6578                TRAFFIC_HDR3_0_ptr
                0x000b657a                TRAFFIC_HDR4_3_ptr
                0x000b657c                TRAFFIC_HDR4_2_ptr
                0x000b657e                TRAFFIC_HDR4_1_ptr
                0x000b6580                TRAFFIC_HDR4_0_ptr
                0x000b6582                TRAFFIC_HDR5_3_ptr
                0x000b6584                TRAFFIC_HDR5_2_ptr
                0x000b6586                TRAFFIC_HDR5_1_ptr
                0x000b6588                TRAFFIC_HDR5_0_ptr
                0x000b658a                TRAFFIC_HDR6_3_ptr
                0x000b658c                TRAFFIC_HDR6_2_ptr
                0x000b658e                TRAFFIC_HDR6_1_ptr
                0x000b6590                TRAFFIC_HDR6_0_ptr
                0x000b6592                TRAFFIC_HDR7_3_ptr
                0x000b6594                TRAFFIC_HDR7_2_ptr
                0x000b6596                TRAFFIC_HDR7_1_ptr
                0x000b6598                TRAFFIC_HDR7_0_ptr
                0x000b659a                TRAFFIC_HDR8_3_ptr
                0x000b659c                TRAFFIC_HDR8_2_ptr
                0x000b659e                TRAFFIC_HDR8_1_ptr
                0x000b65a0                TRAFFIC_HDR8_0_ptr
                0x000b65a2                TRAFFIC_HDR9_3_ptr
                0x000b65a4                TRAFFIC_HDR9_2_ptr
                0x000b65a6                TRAFFIC_HDR9_1_ptr
                0x000b65a8                TRAFFIC_HDR9_0_ptr
                0x000b65aa                TRAFFIC_HDR10_3_ptr
                0x000b65ac                TRAFFIC_HDR10_2_ptr
                0x000b65ae                TRAFFIC_HDR10_1_ptr
                0x000b65b0                TRAFFIC_HDR10_0_ptr
                0x000b65b2                TRAFFIC_HDR11_3_ptr
                0x000b65b4                TRAFFIC_HDR11_2_ptr
                0x000b65b6                TRAFFIC_HDR11_1_ptr
                0x000b65b8                TRAFFIC_HDR11_0_ptr
                0x000b65ba                TRAFFIC_HDR12_3_ptr
                0x000b65bc                TRAFFIC_HDR12_2_ptr
                0x000b65be                TRAFFIC_HDR12_1_ptr
                0x000b65c0                TRAFFIC_HDR12_0_ptr
                0x000b65c2                TRAFFIC_HDR13_3_ptr
                0x000b65c4                TRAFFIC_HDR13_2_ptr
                0x000b65c6                TRAFFIC_HDR13_1_ptr
                0x000b65c8                TRAFFIC_HDR13_0_ptr
                0x000b65ca                TRAFFIC_HDR14_3_ptr
                0x000b65cc                TRAFFIC_HDR14_2_ptr
                0x000b65ce                TRAFFIC_HDR14_1_ptr
                0x000b65d0                TRAFFIC_HDR14_0_ptr
                0x000b65d2                TRAFFIC_HDR15_3_ptr
                0x000b65d4                TRAFFIC_HDR15_2_ptr
                0x000b65d6                TRAFFIC_HDR15_1_ptr
                0x000b65d8                TRAFFIC_HDR15_0_ptr
                0x000b65da                TRAFFIC_HDR16_3_ptr
                0x000b65dc                TRAFFIC_HDR16_2_ptr
                0x000b65de                TRAFFIC_HDR16_1_ptr
                0x000b65e0                TRAFFIC_HDR16_0_ptr
                0x000b65e2                TRAFFIC_HDR17_3_ptr
                0x000b65e4                TRAFFIC_HDR17_2_ptr
                0x000b65e6                TRAFFIC_HDR17_1_ptr
                0x000b65e8                TRAFFIC_HDR17_0_ptr
                0x000b65ea                TRAFFIC_HDR18_3_ptr
                0x000b65ec                TRAFFIC_HDR18_2_ptr
                0x000b65ee                TRAFFIC_HDR18_1_ptr
                0x000b65f0                TRAFFIC_HDR18_0_ptr
                0x000b65f2                TRAFFIC_HDR19_3_ptr
                0x000b65f4                TRAFFIC_HDR19_2_ptr
                0x000b65f6                TRAFFIC_HDR19_1_ptr
                0x000b65f8                TRAFFIC_HDR19_0_ptr
                0x000b65fa                TRAFFIC_HDR20_3_ptr
                0x000b65fc                TRAFFIC_HDR20_2_ptr
                0x000b65fe                TRAFFIC_HDR20_1_ptr
                0x000b6600                TRAFFIC_HDR20_0_ptr
                0x000b6602                TRAFFIC_HDR21_3_ptr
                0x000b6604                TRAFFIC_HDR21_2_ptr
                0x000b6606                TRAFFIC_HDR21_1_ptr
                0x000b6608                TRAFFIC_HDR21_0_ptr
                0x000b660a                TRAFFIC_HDR22_3_ptr
                0x000b660c                TRAFFIC_HDR22_2_ptr
                0x000b660e                TRAFFIC_HDR22_1_ptr
                0x000b6610                TRAFFIC_HDR22_0_ptr
                0x000b6612                TRAFFIC_HDR23_3_ptr
                0x000b6614                TRAFFIC_HDR23_2_ptr
                0x000b6616                TRAFFIC_HDR23_1_ptr
                0x000b6618                TRAFFIC_HDR23_0_ptr
                0x000b661a                TRAFFIC_HDR24_3_ptr
                0x000b661c                TRAFFIC_HDR24_2_ptr
                0x000b661e                TRAFFIC_HDR24_1_ptr
                0x000b6620                TRAFFIC_HDR24_0_ptr
                0x000b6622                TRAFFIC_HDR25_3_ptr
                0x000b6624                TRAFFIC_HDR25_2_ptr
                0x000b6626                TRAFFIC_HDR25_1_ptr
                0x000b6628                TRAFFIC_HDR25_0_ptr
                0x000b662a                TRAFFIC_HDR26_3_ptr
                0x000b662c                TRAFFIC_HDR26_2_ptr
                0x000b662e                TRAFFIC_HDR26_1_ptr
                0x000b6630                TRAFFIC_HDR26_0_ptr
                0x000b6632                TRAFFIC_HDR27_3_ptr
                0x000b6634                TRAFFIC_HDR27_2_ptr
                0x000b6636                TRAFFIC_HDR27_1_ptr
                0x000b6638                TRAFFIC_HDR27_0_ptr
                0x000b663a                TRAFFIC_HDR28_3_ptr
                0x000b663c                TRAFFIC_HDR28_2_ptr
                0x000b663e                TRAFFIC_HDR28_1_ptr
                0x000b6640                TRAFFIC_HDR28_0_ptr
                0x000b6642                TRAFFIC_HDR29_3_ptr
                0x000b6644                TRAFFIC_HDR29_2_ptr
                0x000b6646                TRAFFIC_HDR29_1_ptr
                0x000b6648                TRAFFIC_HDR29_0_ptr
                0x000b664a                TRAFFIC_HDR30_3_ptr
                0x000b664c                TRAFFIC_HDR30_2_ptr
                0x000b664e                TRAFFIC_HDR30_1_ptr
                0x000b6650                TRAFFIC_HDR30_0_ptr
                0x000b6652                TRAFFIC_HDR31_3_ptr
                0x000b6654                TRAFFIC_HDR31_2_ptr
                0x000b6656                TRAFFIC_HDR31_1_ptr
                0x000b6658                TRAFFIC_HDR31_0_ptr
                0x000b665a                TRAFFIC_MSK0_3_ptr
                0x000b665c                TRAFFIC_MSK0_2_ptr
                0x000b665e                TRAFFIC_MSK0_1_ptr
                0x000b6660                TRAFFIC_MSK0_0_ptr
                0x000b6662                TRAFFIC_MSK1_3_ptr
                0x000b6664                TRAFFIC_MSK1_2_ptr
                0x000b6666                TRAFFIC_MSK1_1_ptr
                0x000b6668                TRAFFIC_MSK1_0_ptr
                0x000b666a                TRAFFIC_MSK2_3_ptr
                0x000b666c                TRAFFIC_MSK2_2_ptr
                0x000b666e                TRAFFIC_MSK2_1_ptr
                0x000b6670                TRAFFIC_MSK2_0_ptr
                0x000b6672                TRAFFIC_MSK3_3_ptr
                0x000b6674                TRAFFIC_MSK3_2_ptr
                0x000b6676                TRAFFIC_MSK3_1_ptr
                0x000b6678                TRAFFIC_MSK3_0_ptr
                0x000b667a                TRAFFIC_MSK4_3_ptr
                0x000b667c                TRAFFIC_MSK4_2_ptr
                0x000b667e                TRAFFIC_MSK4_1_ptr
                0x000b6680                TRAFFIC_MSK4_0_ptr
                0x000b6682                TRAFFIC_MSK5_3_ptr
                0x000b6684                TRAFFIC_MSK5_2_ptr
                0x000b6686                TRAFFIC_MSK5_1_ptr
                0x000b6688                TRAFFIC_MSK5_0_ptr
                0x000b668a                TRAFFIC_MSK6_3_ptr
                0x000b668c                TRAFFIC_MSK6_2_ptr
                0x000b668e                TRAFFIC_MSK6_1_ptr
                0x000b6690                TRAFFIC_MSK6_0_ptr
                0x000b6692                TRAFFIC_MSK7_3_ptr
                0x000b6694                TRAFFIC_MSK7_2_ptr
                0x000b6696                TRAFFIC_MSK7_1_ptr
                0x000b6698                TRAFFIC_MSK7_0_ptr
                0x000b669a                TRAFFIC_MSK8_3_ptr
                0x000b669c                TRAFFIC_MSK8_2_ptr
                0x000b669e                TRAFFIC_MSK8_1_ptr
                0x000b66a0                TRAFFIC_MSK8_0_ptr
                0x000b66a2                TRAFFIC_MSK9_3_ptr
                0x000b66a4                TRAFFIC_MSK9_2_ptr
                0x000b66a6                TRAFFIC_MSK9_1_ptr
                0x000b66a8                TRAFFIC_MSK9_0_ptr
                0x000b66aa                TRAFFIC_MSK10_3_ptr
                0x000b66ac                TRAFFIC_MSK10_2_ptr
                0x000b66ae                TRAFFIC_MSK10_1_ptr
                0x000b66b0                TRAFFIC_MSK10_0_ptr
                0x000b66b2                TRAFFIC_MSK11_3_ptr
                0x000b66b4                TRAFFIC_MSK11_2_ptr
                0x000b66b6                TRAFFIC_MSK11_1_ptr
                0x000b66b8                TRAFFIC_MSK11_0_ptr
                0x000b66ba                TRAFFIC_MSK12_3_ptr
                0x000b66bc                TRAFFIC_MSK12_2_ptr
                0x000b66be                TRAFFIC_MSK12_1_ptr
                0x000b66c0                TRAFFIC_MSK12_0_ptr
                0x000b66c2                TRAFFIC_MSK13_3_ptr
                0x000b66c4                TRAFFIC_MSK13_2_ptr
                0x000b66c6                TRAFFIC_MSK13_1_ptr
                0x000b66c8                TRAFFIC_MSK13_0_ptr
                0x000b66ca                TRAFFIC_MSK14_3_ptr
                0x000b66cc                TRAFFIC_MSK14_2_ptr
                0x000b66ce                TRAFFIC_MSK14_1_ptr
                0x000b66d0                TRAFFIC_MSK14_0_ptr
                0x000b66d2                TRAFFIC_MSK15_3_ptr
                0x000b66d4                TRAFFIC_MSK15_2_ptr
                0x000b66d6                TRAFFIC_MSK15_1_ptr
                0x000b66d8                TRAFFIC_MSK15_0_ptr
                0x000b66da                TRAFFIC_MSK16_3_ptr
                0x000b66dc                TRAFFIC_MSK16_2_ptr
                0x000b66de                TRAFFIC_MSK16_1_ptr
                0x000b66e0                TRAFFIC_MSK16_0_ptr
                0x000b66e2                TRAFFIC_MSK17_3_ptr
                0x000b66e4                TRAFFIC_MSK17_2_ptr
                0x000b66e6                TRAFFIC_MSK17_1_ptr
                0x000b66e8                TRAFFIC_MSK17_0_ptr
                0x000b66ea                TRAFFIC_MSK18_3_ptr
                0x000b66ec                TRAFFIC_MSK18_2_ptr
                0x000b66ee                TRAFFIC_MSK18_1_ptr
                0x000b66f0                TRAFFIC_MSK18_0_ptr
                0x000b66f2                TRAFFIC_MSK19_3_ptr
                0x000b66f4                TRAFFIC_MSK19_2_ptr
                0x000b66f6                TRAFFIC_MSK19_1_ptr
                0x000b66f8                TRAFFIC_MSK19_0_ptr
                0x000b66fa                TRAFFIC_MSK20_3_ptr
                0x000b66fc                TRAFFIC_MSK20_2_ptr
                0x000b66fe                TRAFFIC_MSK20_1_ptr
                0x000b6700                TRAFFIC_MSK20_0_ptr
                0x000b6702                TRAFFIC_MSK21_3_ptr
                0x000b6704                TRAFFIC_MSK21_2_ptr
                0x000b6706                TRAFFIC_MSK21_1_ptr
                0x000b6708                TRAFFIC_MSK21_0_ptr
                0x000b670a                TRAFFIC_MSK22_3_ptr
                0x000b670c                TRAFFIC_MSK22_2_ptr
                0x000b670e                TRAFFIC_MSK22_1_ptr
                0x000b6710                TRAFFIC_MSK22_0_ptr
                0x000b6712                TRAFFIC_MSK23_3_ptr
                0x000b6714                TRAFFIC_MSK23_2_ptr
                0x000b6716                TRAFFIC_MSK23_1_ptr
                0x000b6718                TRAFFIC_MSK23_0_ptr
                0x000b671a                TRAFFIC_MSK24_3_ptr
                0x000b671c                TRAFFIC_MSK24_2_ptr
                0x000b671e                TRAFFIC_MSK24_1_ptr
                0x000b6720                TRAFFIC_MSK24_0_ptr
                0x000b6722                TRAFFIC_MSK25_3_ptr
                0x000b6724                TRAFFIC_MSK25_2_ptr
                0x000b6726                TRAFFIC_MSK25_1_ptr
                0x000b6728                TRAFFIC_MSK25_0_ptr
                0x000b672a                TRAFFIC_MSK26_3_ptr
                0x000b672c                TRAFFIC_MSK26_2_ptr
                0x000b672e                TRAFFIC_MSK26_1_ptr
                0x000b6730                TRAFFIC_MSK26_0_ptr
                0x000b6732                TRAFFIC_MSK27_3_ptr
                0x000b6734                TRAFFIC_MSK27_2_ptr
                0x000b6736                TRAFFIC_MSK27_1_ptr
                0x000b6738                TRAFFIC_MSK27_0_ptr
                0x000b673a                TRAFFIC_MSK28_3_ptr
                0x000b673c                TRAFFIC_MSK28_2_ptr
                0x000b673e                TRAFFIC_MSK28_1_ptr
                0x000b6740                TRAFFIC_MSK28_0_ptr
                0x000b6742                TRAFFIC_MSK29_3_ptr
                0x000b6744                TRAFFIC_MSK29_2_ptr
                0x000b6746                TRAFFIC_MSK29_1_ptr
                0x000b6748                TRAFFIC_MSK29_0_ptr
                0x000b674a                TRAFFIC_MSK30_3_ptr
                0x000b674c                TRAFFIC_MSK30_2_ptr
                0x000b674e                TRAFFIC_MSK30_1_ptr
                0x000b6750                TRAFFIC_MSK30_0_ptr
                0x000b6752                TRAFFIC_MSK31_3_ptr
                0x000b6754                TRAFFIC_MSK31_2_ptr
                0x000b6756                TRAFFIC_MSK31_1_ptr
                0x000b6758                TRAFFIC_MSK31_0_ptr
                0x000b675a                ConfigChecksum2
 .sdata         0x000b675c        0x8 c:/altera/11.1/nios2eds/bin/gnu/h-i686-mingw32/bin/../lib/gcc/nios2-elf/4.1.2/../../../../nios2-elf/lib/mhw-mulx\libc.a(lib_a-impure.o)
                0x000b675c                _impure_ptr
                0x000b6760                _global_impure_ptr
 .sdata         0x000b6764        0x8 c:/altera/11.1/nios2eds/bin/gnu/h-i686-mingw32/bin/../lib/gcc/nios2-elf/4.1.2/../../../../nios2-elf/lib/mhw-mulx\libc.a(lib_a-locale.o)
                0x000b6764                __mb_cur_max
 .sdata         0x000b676c        0x8 c:/altera/11.1/nios2eds/bin/gnu/h-i686-mingw32/bin/../lib/gcc/nios2-elf/4.1.2/../../../../nios2-elf/lib/mhw-mulx\libc.a(lib_a-mallocr.o)
                0x000b676c                __malloc_trim_threshold
                0x000b6770                __malloc_sbrk_base
 .sdata         0x000b6774       0x14 ../GIGLE10_bsp\libucosii_bsp.a(alt_dev.o)
                0x000b6774                alt_fs_list
                0x000b677c                alt_dev_list
                0x000b6784                alt_max_fd
 .sdata         0x000b6788        0x4 ../GIGLE10_bsp\libucosii_bsp.a(alt_errno.o)
                0x000b6788                alt_errno
 .sdata         0x000b678c        0x8 ../GIGLE10_bsp\libucosii_bsp.a(alt_flash_dev.o)
                0x000b678c                alt_flash_dev_list
 .sdata         0x000b6794        0x4 ../GIGLE10_bsp\libucosii_bsp.a(alt_irq_vars.o)
                0x000b6794                alt_priority_mask
 .sdata         0x000b6798        0x4 ../GIGLE10_bsp\libucosii_bsp.a(alt_sbrk.o)
 .sdata         0x000b679c        0x8 ../GIGLE10_bsp\libucosii_bsp.a(alt_tick.o)
                0x000b679c                alt_alarm_list
 .sdata         0x000b67a4        0x4 ../GIGLE10_bsp\libucosii_bsp.a(alt_env_lock.o)
 .sdata         0x000b67a8        0x4 ../GIGLE10_bsp\libucosii_bsp.a(alt_malloc_lock.o)
 .sdata         0x000b67ac       0x74 ../GIGLE10_bsp\libucosii_bsp.a(os_dbg.o)
                0x000b67ac                OSDebugEn
                0x000b67b0                OSEndiannessTest
                0x000b67b4                OSEventEn
                0x000b67b6                OSEventMax
                0x000b67b8                OSEventNameSize
                0x000b67ba                OSEventSize
                0x000b67bc                OSEventTblSize
                0x000b67be                OSEventMultiEn
                0x000b67c0                OSFlagEn
                0x000b67c2                OSFlagGrpSize
                0x000b67c4                OSFlagNodeSize
                0x000b67c6                OSFlagWidth
                0x000b67c8                OSFlagMax
                0x000b67ca                OSFlagNameSize
                0x000b67cc                OSLowestPrio
                0x000b67ce                OSMboxEn
                0x000b67d0                OSMemEn
                0x000b67d2                OSMemMax
                0x000b67d4                OSMemNameSize
                0x000b67d6                OSMemSize
                0x000b67d8                OSMemTblSize
                0x000b67da                OSMutexEn
                0x000b67dc                OSPtrSize
                0x000b67de                OSQEn
                0x000b67e0                OSQMax
                0x000b67e2                OSQSize
                0x000b67e4                OSRdyTblSize
                0x000b67e6                OSSemEn
                0x000b67e8                OSStkWidth
                0x000b67ea                OSTaskCreateEn
                0x000b67ec                OSTaskCreateExtEn
                0x000b67ee                OSTaskDelEn
                0x000b67f0                OSTaskIdleStkSize
                0x000b67f2                OSTaskProfileEn
                0x000b67f4                OSTaskMax
                0x000b67f6                OSTaskNameSize
                0x000b67f8                OSTaskStatEn
                0x000b67fa                OSTaskStatStkSize
                0x000b67fc                OSTaskStatStkChkEn
                0x000b67fe                OSTaskSwHookEn
                0x000b6800                OSTCBPrioTblMax
                0x000b6802                OSTCBSize
                0x000b6804                OSTicksPerSec
                0x000b6806                OSTimeTickHookEn
                0x000b6808                OSVersionNbr
                0x000b680a                OSTmrEn
                0x000b680c                OSTmrCfgMax
                0x000b680e                OSTmrCfgNameSize
                0x000b6810                OSTmrCfgWheelSize
                0x000b6812                OSTmrCfgTicksPerSec
                0x000b6814                OSTmrSize
                0x000b6816                OSTmrTblSize
                0x000b6818                OSTmrWheelSize
                0x000b681a                OSTmrWheelTblSize
                0x000b681c                OSDataSize
 *(.sdata2 .sdata2.* .gnu.linkonce.s2.*)
                0x000b6820                . = ALIGN (0x4)
                0x000b6820                _edata = ABSOLUTE (.)
                0x000b6820                PROVIDE (edata, ABSOLUTE (.))
                0x000b6820                PROVIDE (__ram_rwdata_end, ABSOLUTE (.))
                0x000b4440                PROVIDE (__flash_rwdata_start, LOADADDR (.rwdata))

.bss            0x000b6820     0xfef8
                0x000b6820                __bss_start = ABSOLUTE (.)
                0x000b6820                PROVIDE (__sbss_start, ABSOLUTE (.))
                0x000b6820                PROVIDE (___sbss_start, ABSOLUTE (.))
 *(.dynsbss)
 *(.sbss .sbss.* .gnu.linkonce.sb.*)
 .sbss          0x000b6820        0x0 obj/Debug/alt_2_wire.o
 .sbss          0x000b6820      0x150 obj/Debug/main.o
                0x000b6820                gCUSTOM_TEST_START
                0x000b6821                gCUSTOM_TEST_STOP
                0x000b6822                gPACKET_TEST_TIMEOUT
                0x000b6823                END_TO_END_TEST
                0x000b6824                SEND_SFPA_DATA
                0x000b6825                SEND_SFPB_DATA
                0x000b6826                SEND_SFP10A_DATA
                0x000b6827                READ_SFPA_DATA
                0x000b6828                READ_SFPB_DATA
                0x000b6829                READ_SFP10A_DATA
                0x000b682a                SEND_LPBK_DATA
                0x000b682b                SEND_LPBK10G_DATA
                0x000b682c                SFP_10G_PRESENT
                0x000b682d                SEND_MS_PACKET
                0x000b682e                MS_PKT_RCVD
                0x000b682f                SENDING_MS_CONFIG
                0x000b6830                SENDING_STD_PKT
                0x000b6831                RxBuffer_RDY
                0x000b6832                buff_ptr
                0x000b6834                tbuff_ptr
                0x000b6836                RxTIMEOUT
                0x000b6838                UART_CONTROL_REG
                0x000b6839                TIMER1_CONTROL_REG
                0x000b683a                GIGE_STATUS
                0x000b683b                C3794_State
                0x000b683c                C3794_status
                0x000b683e                PPM_offset
                0x000b6840                BERT_SYNC
                0x000b6841                BERT_INVERT
                0x000b6842                ERRORS_LED
                0x000b6843                HISTORY_LED
                0x000b6844                CLKCTRL_register
                0x000b6848                BERT
                0x000b684c                BERT_STATUS
                0x000b684d                incntr
                0x000b684e                outcntr
                0x000b684f                BERT_STATE
                0x000b6850                Misc_stat37
                0x000b6854                USER_PAT
                0x000b6858                LOSCNT
                0x000b685a                OOFCNT
                0x000b685c                YELCNT
                0x000b685e                PIO2_Content
                0x000b6860                number_packet_msb
                0x000b6864                MAC10A_COMMAND_CONFIG
                0x000b6868                MAC_0
                0x000b686c                MAC_1
                0x000b6870                MAC_0B
                0x000b6874                MAC_1B
                0x000b6878                GIGE10
                0x000b687c                MAC10G_0
                0x000b6880                MAC10G_0B
                0x000b6884                MAC10G_1
                0x000b6888                MAC10G_1B
                0x000b688c                total_num_packets
                0x000b6894                SET_SWAP_A_TOGGLE
                0x000b6895                SET_SWAP_10GA_TOGGLE
                0x000b6898                maxRxBustinessVal
                0x000b689c                LOOK_FOR_RESPONSE
                0x000b689d                loopup_prev
                0x000b689e                loopdown_prev
                0x000b689f                DETECT_REMOTE_LOOPBACK_TSEA
                0x000b68a0                DETECT_REMOTE_LOOPBACK_TSEB
                0x000b68a1                DETECT_REMOTE_LOOPBACK_10GA
                0x000b68a2                responseUnits
                0x000b68a3                LOOPBACK_EVENT
                0x000b68a4                SWAP_IP
                0x000b68a5                FRAME_TYPE_LLC
                0x000b68a6                ipv4B_active
                0x000b68a7                ipv6B_active
                0x000b68a8                stream_no
                0x000b68ac                tot_locycles
                0x000b68b0                tot_hibytes
                0x000b68b4                tot_packets_rcvd
                0x000b68bc                tot_rx_broadcast_cnt1
                0x000b68c0                tot_seconds
                0x000b68c8                test_options
                0x000b68c9                emix
                0x000b68ca                vlanTags
                0x000b68cb                mplsTags
                0x000b68cc                rndPayload
                0x000b68d0                burst_packets
                0x000b68d8                MS_PKT
                0x000b68d9                MS_TEST_ACTIVE
                0x000b68da                ETH_PKT
                0x000b68db                RCVING_MS_PKT
                0x000b68dc                ETH_PACKET
                0x000b68e0                tot_packets_act_transmit
                0x000b68e4                tot_packets_to_transmit
                0x000b68e8                source_10g_addr1
                0x000b68ec                destination_10g_addr0
                0x000b68f0                irq_aggr_capture
                0x000b68f4                tot_good_pkts_rcvd1
                0x000b68fc                tot_lobytes
                0x000b6900                destination_tse_addr0
                0x000b6904                tot_avg_pkt_size
                0x000b690c                tot_good_pkts_rcvd
                0x000b6914                tot_bad_pkts_rcvd1
                0x000b691c                tot_packets_to_transmit1
                0x000b6920                source_10g_addr0
                0x000b6924                tot_sumbytes
                0x000b692c                tot_hicycles
                0x000b6930                tot_packets_act_transmit1
                0x000b6934                tot_traffic_mon_delay_max
                0x000b6938                source_tse_addr1
                0x000b693c                EXTERNAL_PHY_BOOT_COMPLETE
                0x000b6940                tot_traffic_mon_delay_sum
                0x000b6944                destination_tse_addr1
                0x000b6948                tot_cycles_used
                0x000b694c                tot_rcvd_bytes
                0x000b6954                tot_traffic_mon_delay_min
                0x000b6958                tot_bad_pkts_rcvd
                0x000b6960                tot_rx_broadcast_cnt
                0x000b6964                source_tse_addr0
                0x000b6968                destination_10g_addr1
                0x000b696c                pio_edge_capture
 .sbss          0x000b6970        0x8 obj/Debug/packet10g.o
                0x000b6970                SUM_DURATION_CYCLES
 .sbss          0x000b6978        0xc c:/altera/11.1/nios2eds/bin/gnu/h-i686-mingw32/bin/../lib/gcc/nios2-elf/4.1.2/../../../../nios2-elf/lib/mhw-mulx\libc.a(lib_a-locale.o)
                0x000b6978                __nlocale_changed
                0x000b697c                __mlocale_changed
                0x000b6980                _PathLocale
 .sbss          0x000b6984        0xc c:/altera/11.1/nios2eds/bin/gnu/h-i686-mingw32/bin/../lib/gcc/nios2-elf/4.1.2/../../../../nios2-elf/lib/mhw-mulx\libc.a(lib_a-mallocr.o)
                0x000b6984                __malloc_top_pad
                0x000b6988                __malloc_max_sbrked_mem
                0x000b698c                __malloc_max_total_mem
 .sbss          0x000b6990        0x4 c:/altera/11.1/nios2eds/bin/gnu/h-i686-mingw32/bin/../lib/gcc/nios2-elf/4.1.2/../../../../nios2-elf/lib/mhw-mulx\libc.a(lib_a-int_errno.o)
                0x000b6990                errno
 .sbss          0x000b6994        0x4 ../GIGLE10_bsp\libucosii_bsp.a(alt_dev.o)
                0x000b6994                alt_fd_list_lock
 .sbss          0x000b6998        0x4 ../GIGLE10_bsp\libucosii_bsp.a(alt_irq_vars.o)
                0x000b6998                alt_irq_active
 .sbss          0x000b699c        0xc ../GIGLE10_bsp\libucosii_bsp.a(alt_main.o)
                0x000b699c                alt_argc
                0x000b69a0                alt_argv
                0x000b69a4                alt_envp
 .sbss          0x000b69a8        0x8 ../GIGLE10_bsp\libucosii_bsp.a(alt_tick.o)
                0x000b69a8                _alt_tick_rate
                0x000b69ac                _alt_nticks
 .sbss          0x000b69b0        0x8 ../GIGLE10_bsp\libucosii_bsp.a(alt_env_lock.o)
                0x000b69b4                alt_envsem
 .sbss          0x000b69b8        0x8 ../GIGLE10_bsp\libucosii_bsp.a(alt_malloc_lock.o)
                0x000b69bc                alt_heapsem
 .sbss          0x000b69c0       0x50 ../GIGLE10_bsp\libucosii_bsp.a(os_core.o)
                0x000b69c0                OSLockNesting
                0x000b69c1                OSRunning
                0x000b69c4                OSIdleCtr
                0x000b69c8                OSPrioHighRdy
                0x000b69c9                OSPrioCur
                0x000b69cc                OSTCBList
                0x000b69d0                OSTickStepState
                0x000b69d4                OSCtxSwCtr
                0x000b69d8                OSIdleCtrMax
                0x000b69dc                OSTCBFreeList
                0x000b69e0                OSCPUUsage
                0x000b69e1                OSTaskCtr
                0x000b69e4                OSMemFreeList
                0x000b69e8                OSTCBHighRdy
                0x000b69ec                OSQFreeList
                0x000b69f0                OSRdyGrp
                0x000b69f1                OSRdyTbl
                0x000b69f4                OSEventFreeList
                0x000b69f8                OSIntNesting
                0x000b69fc                OSTCBCur
                0x000b6a00                OSTime
                0x000b6a04                OSFlagFreeList
                0x000b6a08                OSStatRdy
                0x000b6a0c                OSIdleCtrRun
 *(.sbss2 .sbss2.* .gnu.linkonce.sb2.*)
 *(.scommon)
                0x000b6a10                PROVIDE (__sbss_end, ABSOLUTE (.))
                0x000b6a10                PROVIDE (___sbss_end, ABSOLUTE (.))
 *(.dynbss)
 *(.bss .bss.* .gnu.linkonce.b.*)
 .bss           0x000b6a10        0x0 ../GIGLE10_bsp/obj/HAL/src/crt0.o
 .bss           0x000b6a10        0x0 obj/Debug/alt_2_wire.o
 .bss           0x000b6a10        0x0 obj/Debug/c37dot94.o
 .bss           0x000b6a10        0x0 obj/Debug/c37dot94_task.o
 .bss           0x000b6a10        0x0 obj/Debug/c37dot94bert.o
 .bss           0x000b6a10        0x0 obj/Debug/cfg10_hw.o
 .bss           0x000b6a10        0x0 obj/Debug/cfg_c37.o
 .bss           0x000b6a10        0x0 obj/Debug/cfg_frame.o
 .bss           0x000b6a10        0x0 obj/Debug/cfg_hw.o
 .bss           0x000b6a10        0x0 obj/Debug/config.o
 .bss           0x000b6a10        0x0 obj/Debug/config10g.o
 .bss           0x000b6a10        0x0 obj/Debug/config_multistream.o
 .bss           0x000b6a10        0x0 obj/Debug/flash.o
 .bss           0x000b6a10        0x0 obj/Debug/functions.o
 .bss           0x000b6a10        0x0 obj/Debug/gui_link.o
 .bss           0x000b6a10        0x0 obj/Debug/helpers.o
 .bss           0x000b6a10        0x0 obj/Debug/init.o
 .bss           0x000b6a10        0x0 obj/Debug/intr.o
 .bss           0x000b6a10        0x0 obj/Debug/link_task.o
 .bss           0x000b6a10        0x0 obj/Debug/loopback.o
 .bss           0x000b6a10        0x0 obj/Debug/main.o
 .bss           0x000b6a10        0x0 obj/Debug/onesec_alrm.o
 .bss           0x000b6a10        0x0 obj/Debug/packet10g.o
 .bss           0x000b6a10        0x0 obj/Debug/results.o
 .bss           0x000b6a10        0x0 obj/Debug/sfp.o
 .bss           0x000b6a10        0x0 obj/Debug/status.o
 .bss           0x000b6a10        0x0 obj/Debug/update_headers.o
 .bss           0x000b6a10        0x0 c:/altera/11.1/nios2eds/bin/gnu/h-i686-mingw32/bin/../lib/gcc/nios2-elf/4.1.2/../../../../nios2-elf/lib/mhw-mulx\libm.a(lib_a-s_round.o)
 .bss           0x000b6a10        0x0 c:/altera/11.1/nios2eds/bin/gnu/h-i686-mingw32/bin/../lib/gcc/nios2-elf/4.1.2/mhw-mulx\libgcc.a(_fixunssfsi.o)
 .bss           0x000b6a10        0x0 c:/altera/11.1/nios2eds/bin/gnu/h-i686-mingw32/bin/../lib/gcc/nios2-elf/4.1.2/mhw-mulx\libgcc.a(_fixunsdfsi.o)
 .bss           0x000b6a10        0x0 c:/altera/11.1/nios2eds/bin/gnu/h-i686-mingw32/bin/../lib/gcc/nios2-elf/4.1.2/mhw-mulx\libgcc.a(_fixunsdfdi.o)
 .bss           0x000b6a10        0x0 c:/altera/11.1/nios2eds/bin/gnu/h-i686-mingw32/bin/../lib/gcc/nios2-elf/4.1.2/mhw-mulx\libgcc.a(_floatdidf.o)
 .bss           0x000b6a10        0x0 c:/altera/11.1/nios2eds/bin/gnu/h-i686-mingw32/bin/../lib/gcc/nios2-elf/4.1.2/mhw-mulx\libgcc.a(_floatundidf.o)
 .bss           0x000b6a10        0x0 c:/altera/11.1/nios2eds/bin/gnu/h-i686-mingw32/bin/../lib/gcc/nios2-elf/4.1.2/mhw-mulx\libgcc.a(_divdi3.o)
 .bss           0x000b6a10        0x0 c:/altera/11.1/nios2eds/bin/gnu/h-i686-mingw32/bin/../lib/gcc/nios2-elf/4.1.2/mhw-mulx\libgcc.a(_addsub_sf.o)
 .bss           0x000b6a10        0x0 c:/altera/11.1/nios2eds/bin/gnu/h-i686-mingw32/bin/../lib/gcc/nios2-elf/4.1.2/mhw-mulx\libgcc.a(_mul_sf.o)
 .bss           0x000b6a10        0x0 c:/altera/11.1/nios2eds/bin/gnu/h-i686-mingw32/bin/../lib/gcc/nios2-elf/4.1.2/mhw-mulx\libgcc.a(_eq_sf.o)
 .bss           0x000b6a10        0x0 c:/altera/11.1/nios2eds/bin/gnu/h-i686-mingw32/bin/../lib/gcc/nios2-elf/4.1.2/mhw-mulx\libgcc.a(_ge_sf.o)
 .bss           0x000b6a10        0x0 c:/altera/11.1/nios2eds/bin/gnu/h-i686-mingw32/bin/../lib/gcc/nios2-elf/4.1.2/mhw-mulx\libgcc.a(_sf_to_si.o)
 .bss           0x000b6a10        0x0 c:/altera/11.1/nios2eds/bin/gnu/h-i686-mingw32/bin/../lib/gcc/nios2-elf/4.1.2/mhw-mulx\libgcc.a(_sf_to_df.o)
 .bss           0x000b6a10        0x0 c:/altera/11.1/nios2eds/bin/gnu/h-i686-mingw32/bin/../lib/gcc/nios2-elf/4.1.2/mhw-mulx\libgcc.a(_thenan_sf.o)
 .bss           0x000b6a10        0x0 c:/altera/11.1/nios2eds/bin/gnu/h-i686-mingw32/bin/../lib/gcc/nios2-elf/4.1.2/mhw-mulx\libgcc.a(_usi_to_sf.o)
 .bss           0x000b6a10        0x0 c:/altera/11.1/nios2eds/bin/gnu/h-i686-mingw32/bin/../lib/gcc/nios2-elf/4.1.2/mhw-mulx\libgcc.a(_addsub_df.o)
 .bss           0x000b6a10        0x0 c:/altera/11.1/nios2eds/bin/gnu/h-i686-mingw32/bin/../lib/gcc/nios2-elf/4.1.2/mhw-mulx\libgcc.a(_mul_df.o)
 .bss           0x000b6a10        0x0 c:/altera/11.1/nios2eds/bin/gnu/h-i686-mingw32/bin/../lib/gcc/nios2-elf/4.1.2/mhw-mulx\libgcc.a(_div_df.o)
 .bss           0x000b6a10        0x0 c:/altera/11.1/nios2eds/bin/gnu/h-i686-mingw32/bin/../lib/gcc/nios2-elf/4.1.2/mhw-mulx\libgcc.a(_gt_df.o)
 .bss           0x000b6a10        0x0 c:/altera/11.1/nios2eds/bin/gnu/h-i686-mingw32/bin/../lib/gcc/nios2-elf/4.1.2/mhw-mulx\libgcc.a(_ge_df.o)
 .bss           0x000b6a10        0x0 c:/altera/11.1/nios2eds/bin/gnu/h-i686-mingw32/bin/../lib/gcc/nios2-elf/4.1.2/mhw-mulx\libgcc.a(_si_to_df.o)
 .bss           0x000b6a10        0x0 c:/altera/11.1/nios2eds/bin/gnu/h-i686-mingw32/bin/../lib/gcc/nios2-elf/4.1.2/mhw-mulx\libgcc.a(_df_to_si.o)
 .bss           0x000b6a10        0x0 c:/altera/11.1/nios2eds/bin/gnu/h-i686-mingw32/bin/../lib/gcc/nios2-elf/4.1.2/mhw-mulx\libgcc.a(_make_df.o)
 .bss           0x000b6a10        0x0 c:/altera/11.1/nios2eds/bin/gnu/h-i686-mingw32/bin/../lib/gcc/nios2-elf/4.1.2/mhw-mulx\libgcc.a(_df_to_sf.o)
 .bss           0x000b6a10        0x0 c:/altera/11.1/nios2eds/bin/gnu/h-i686-mingw32/bin/../lib/gcc/nios2-elf/4.1.2/mhw-mulx\libgcc.a(_thenan_df.o)
 .bss           0x000b6a10        0x0 c:/altera/11.1/nios2eds/bin/gnu/h-i686-mingw32/bin/../lib/gcc/nios2-elf/4.1.2/mhw-mulx\libgcc.a(_usi_to_df.o)
 .bss           0x000b6a10        0x0 c:/altera/11.1/nios2eds/bin/gnu/h-i686-mingw32/bin/../lib/gcc/nios2-elf/4.1.2/mhw-mulx\libgcc.a(lib2-divmod.o)
 .bss           0x000b6a10        0x0 c:/altera/11.1/nios2eds/bin/gnu/h-i686-mingw32/bin/../lib/gcc/nios2-elf/4.1.2/mhw-mulx\libgcc.a(_clz.o)
 .bss           0x000b6a10        0x0 c:/altera/11.1/nios2eds/bin/gnu/h-i686-mingw32/bin/../lib/gcc/nios2-elf/4.1.2/mhw-mulx\libgcc.a(_clzsi2.o)
 .bss           0x000b6a10        0x0 c:/altera/11.1/nios2eds/bin/gnu/h-i686-mingw32/bin/../lib/gcc/nios2-elf/4.1.2/mhw-mulx\libgcc.a(_pack_sf.o)
 .bss           0x000b6a10        0x0 c:/altera/11.1/nios2eds/bin/gnu/h-i686-mingw32/bin/../lib/gcc/nios2-elf/4.1.2/mhw-mulx\libgcc.a(_unpack_sf.o)
 .bss           0x000b6a10        0x0 c:/altera/11.1/nios2eds/bin/gnu/h-i686-mingw32/bin/../lib/gcc/nios2-elf/4.1.2/mhw-mulx\libgcc.a(_fpcmp_parts_sf.o)
 .bss           0x000b6a10        0x0 c:/altera/11.1/nios2eds/bin/gnu/h-i686-mingw32/bin/../lib/gcc/nios2-elf/4.1.2/mhw-mulx\libgcc.a(_make_sf.o)
 .bss           0x000b6a10        0x0 c:/altera/11.1/nios2eds/bin/gnu/h-i686-mingw32/bin/../lib/gcc/nios2-elf/4.1.2/mhw-mulx\libgcc.a(_pack_df.o)
 .bss           0x000b6a10        0x0 c:/altera/11.1/nios2eds/bin/gnu/h-i686-mingw32/bin/../lib/gcc/nios2-elf/4.1.2/mhw-mulx\libgcc.a(_unpack_df.o)
 .bss           0x000b6a10        0x0 c:/altera/11.1/nios2eds/bin/gnu/h-i686-mingw32/bin/../lib/gcc/nios2-elf/4.1.2/mhw-mulx\libgcc.a(_fpcmp_parts_df.o)
 .bss           0x000b6a10        0x0 c:/altera/11.1/nios2eds/bin/gnu/h-i686-mingw32/bin/../lib/gcc/nios2-elf/4.1.2/../../../../nios2-elf/lib/mhw-mulx\libc.a(lib_a-printf.o)
 .bss           0x000b6a10        0x0 c:/altera/11.1/nios2eds/bin/gnu/h-i686-mingw32/bin/../lib/gcc/nios2-elf/4.1.2/../../../../nios2-elf/lib/mhw-mulx\libc.a(lib_a-putchar.o)
 .bss           0x000b6a10        0x0 c:/altera/11.1/nios2eds/bin/gnu/h-i686-mingw32/bin/../lib/gcc/nios2-elf/4.1.2/../../../../nios2-elf/lib/mhw-mulx\libc.a(lib_a-puts.o)
 .bss           0x000b6a10        0x0 c:/altera/11.1/nios2eds/bin/gnu/h-i686-mingw32/bin/../lib/gcc/nios2-elf/4.1.2/../../../../nios2-elf/lib/mhw-mulx\libc.a(lib_a-strlen.o)
 .bss           0x000b6a10        0x0 c:/altera/11.1/nios2eds/bin/gnu/h-i686-mingw32/bin/../lib/gcc/nios2-elf/4.1.2/../../../../nios2-elf/lib/mhw-mulx\libc.a(lib_a-strncmp.o)
 .bss           0x000b6a10        0x0 c:/altera/11.1/nios2eds/bin/gnu/h-i686-mingw32/bin/../lib/gcc/nios2-elf/4.1.2/../../../../nios2-elf/lib/mhw-mulx\libc.a(lib_a-vfprintf.o)
 .bss           0x000b6a10        0x0 c:/altera/11.1/nios2eds/bin/gnu/h-i686-mingw32/bin/../lib/gcc/nios2-elf/4.1.2/../../../../nios2-elf/lib/mhw-mulx\libc.a(lib_a-wsetup.o)
 .bss           0x000b6a10        0x0 c:/altera/11.1/nios2eds/bin/gnu/h-i686-mingw32/bin/../lib/gcc/nios2-elf/4.1.2/../../../../nios2-elf/lib/mhw-mulx\libc.a(lib_a-dtoa.o)
 .bss           0x000b6a10        0x0 c:/altera/11.1/nios2eds/bin/gnu/h-i686-mingw32/bin/../lib/gcc/nios2-elf/4.1.2/../../../../nios2-elf/lib/mhw-mulx\libc.a(lib_a-fflush.o)
 .bss           0x000b6a10        0x0 c:/altera/11.1/nios2eds/bin/gnu/h-i686-mingw32/bin/../lib/gcc/nios2-elf/4.1.2/../../../../nios2-elf/lib/mhw-mulx\libc.a(lib_a-findfp.o)
 .bss           0x000b6a10        0x0 c:/altera/11.1/nios2eds/bin/gnu/h-i686-mingw32/bin/../lib/gcc/nios2-elf/4.1.2/../../../../nios2-elf/lib/mhw-mulx\libc.a(lib_a-freer.o)
 .bss           0x000b6a10        0x0 c:/altera/11.1/nios2eds/bin/gnu/h-i686-mingw32/bin/../lib/gcc/nios2-elf/4.1.2/../../../../nios2-elf/lib/mhw-mulx\libc.a(lib_a-fvwrite.o)
 .bss           0x000b6a10        0x0 c:/altera/11.1/nios2eds/bin/gnu/h-i686-mingw32/bin/../lib/gcc/nios2-elf/4.1.2/../../../../nios2-elf/lib/mhw-mulx\libc.a(lib_a-fwalk.o)
 .bss           0x000b6a10        0x0 c:/altera/11.1/nios2eds/bin/gnu/h-i686-mingw32/bin/../lib/gcc/nios2-elf/4.1.2/../../../../nios2-elf/lib/mhw-mulx\libc.a(lib_a-impure.o)
 .bss           0x000b6a10        0x0 c:/altera/11.1/nios2eds/bin/gnu/h-i686-mingw32/bin/../lib/gcc/nios2-elf/4.1.2/../../../../nios2-elf/lib/mhw-mulx\libc.a(lib_a-locale.o)
 .bss           0x000b6a10        0x0 c:/altera/11.1/nios2eds/bin/gnu/h-i686-mingw32/bin/../lib/gcc/nios2-elf/4.1.2/../../../../nios2-elf/lib/mhw-mulx\libc.a(lib_a-makebuf.o)
 .bss           0x000b6a10       0x28 c:/altera/11.1/nios2eds/bin/gnu/h-i686-mingw32/bin/../lib/gcc/nios2-elf/4.1.2/../../../../nios2-elf/lib/mhw-mulx\libc.a(lib_a-mallocr.o)
                0x000b6a10                __malloc_current_mallinfo
 .bss           0x000b6a38        0x0 c:/altera/11.1/nios2eds/bin/gnu/h-i686-mingw32/bin/../lib/gcc/nios2-elf/4.1.2/../../../../nios2-elf/lib/mhw-mulx\libc.a(lib_a-memchr.o)
 .bss           0x000b6a38        0x0 c:/altera/11.1/nios2eds/bin/gnu/h-i686-mingw32/bin/../lib/gcc/nios2-elf/4.1.2/../../../../nios2-elf/lib/mhw-mulx\libc.a(lib_a-memcpy.o)
 .bss           0x000b6a38        0x0 c:/altera/11.1/nios2eds/bin/gnu/h-i686-mingw32/bin/../lib/gcc/nios2-elf/4.1.2/../../../../nios2-elf/lib/mhw-mulx\libc.a(lib_a-memmove.o)
 .bss           0x000b6a38        0x0 c:/altera/11.1/nios2eds/bin/gnu/h-i686-mingw32/bin/../lib/gcc/nios2-elf/4.1.2/../../../../nios2-elf/lib/mhw-mulx\libc.a(lib_a-memset.o)
 .bss           0x000b6a38        0x0 c:/altera/11.1/nios2eds/bin/gnu/h-i686-mingw32/bin/../lib/gcc/nios2-elf/4.1.2/../../../../nios2-elf/lib/mhw-mulx\libc.a(lib_a-mprec.o)
 .bss           0x000b6a38        0x0 c:/altera/11.1/nios2eds/bin/gnu/h-i686-mingw32/bin/../lib/gcc/nios2-elf/4.1.2/../../../../nios2-elf/lib/mhw-mulx\libc.a(lib_a-putc.o)
 .bss           0x000b6a38        0x0 c:/altera/11.1/nios2eds/bin/gnu/h-i686-mingw32/bin/../lib/gcc/nios2-elf/4.1.2/../../../../nios2-elf/lib/mhw-mulx\libc.a(lib_a-reallocr.o)
 .bss           0x000b6a38        0x0 c:/altera/11.1/nios2eds/bin/gnu/h-i686-mingw32/bin/../lib/gcc/nios2-elf/4.1.2/../../../../nios2-elf/lib/mhw-mulx\libc.a(lib_a-s_isinfd.o)
 .bss           0x000b6a38        0x0 c:/altera/11.1/nios2eds/bin/gnu/h-i686-mingw32/bin/../lib/gcc/nios2-elf/4.1.2/../../../../nios2-elf/lib/mhw-mulx\libc.a(lib_a-s_isnand.o)
 .bss           0x000b6a38        0x0 c:/altera/11.1/nios2eds/bin/gnu/h-i686-mingw32/bin/../lib/gcc/nios2-elf/4.1.2/../../../../nios2-elf/lib/mhw-mulx\libc.a(lib_a-sbrkr.o)
 .bss           0x000b6a38        0x0 c:/altera/11.1/nios2eds/bin/gnu/h-i686-mingw32/bin/../lib/gcc/nios2-elf/4.1.2/../../../../nios2-elf/lib/mhw-mulx\libc.a(lib_a-stdio.o)
 .bss           0x000b6a38        0x0 c:/altera/11.1/nios2eds/bin/gnu/h-i686-mingw32/bin/../lib/gcc/nios2-elf/4.1.2/../../../../nios2-elf/lib/mhw-mulx\libc.a(lib_a-strcmp.o)
 .bss           0x000b6a38        0x0 c:/altera/11.1/nios2eds/bin/gnu/h-i686-mingw32/bin/../lib/gcc/nios2-elf/4.1.2/../../../../nios2-elf/lib/mhw-mulx\libc.a(lib_a-wbuf.o)
 .bss           0x000b6a38        0x0 c:/altera/11.1/nios2eds/bin/gnu/h-i686-mingw32/bin/../lib/gcc/nios2-elf/4.1.2/../../../../nios2-elf/lib/mhw-mulx\libc.a(lib_a-writer.o)
 .bss           0x000b6a38        0x0 c:/altera/11.1/nios2eds/bin/gnu/h-i686-mingw32/bin/../lib/gcc/nios2-elf/4.1.2/../../../../nios2-elf/lib/mhw-mulx\libc.a(lib_a-callocr.o)
 .bss           0x000b6a38        0x0 c:/altera/11.1/nios2eds/bin/gnu/h-i686-mingw32/bin/../lib/gcc/nios2-elf/4.1.2/../../../../nios2-elf/lib/mhw-mulx\libc.a(lib_a-closer.o)
 .bss           0x000b6a38        0x0 c:/altera/11.1/nios2eds/bin/gnu/h-i686-mingw32/bin/../lib/gcc/nios2-elf/4.1.2/../../../../nios2-elf/lib/mhw-mulx\libc.a(lib_a-fclose.o)
 .bss           0x000b6a38        0x0 c:/altera/11.1/nios2eds/bin/gnu/h-i686-mingw32/bin/../lib/gcc/nios2-elf/4.1.2/../../../../nios2-elf/lib/mhw-mulx\libc.a(lib_a-fstatr.o)
 .bss           0x000b6a38        0x0 c:/altera/11.1/nios2eds/bin/gnu/h-i686-mingw32/bin/../lib/gcc/nios2-elf/4.1.2/../../../../nios2-elf/lib/mhw-mulx\libc.a(lib_a-int_errno.o)
 .bss           0x000b6a38        0x0 c:/altera/11.1/nios2eds/bin/gnu/h-i686-mingw32/bin/../lib/gcc/nios2-elf/4.1.2/../../../../nios2-elf/lib/mhw-mulx\libc.a(lib_a-isattyr.o)
 .bss           0x000b6a38        0x0 c:/altera/11.1/nios2eds/bin/gnu/h-i686-mingw32/bin/../lib/gcc/nios2-elf/4.1.2/../../../../nios2-elf/lib/mhw-mulx\libc.a(lib_a-lseekr.o)
 .bss           0x000b6a38        0x0 c:/altera/11.1/nios2eds/bin/gnu/h-i686-mingw32/bin/../lib/gcc/nios2-elf/4.1.2/../../../../nios2-elf/lib/mhw-mulx\libc.a(lib_a-readr.o)
 .bss           0x000b6a38        0x0 c:/altera/11.1/nios2eds/bin/gnu/h-i686-mingw32/bin/../lib/gcc/nios2-elf/4.1.2/mhw-mulx\libgcc.a(_udivdi3.o)
 .bss           0x000b6a38        0x0 c:/altera/11.1/nios2eds/bin/gnu/h-i686-mingw32/bin/../lib/gcc/nios2-elf/4.1.2/mhw-mulx\libgcc.a(_umoddi3.o)
 .bss           0x000b6a38        0x0 c:/altera/11.1/nios2eds/bin/gnu/h-i686-mingw32/bin/../lib/gcc/nios2-elf/4.1.2/mhw-mulx\libgcc.a(_eq_df.o)
 .bss           0x000b6a38        0x0 c:/altera/11.1/nios2eds/bin/gnu/h-i686-mingw32/bin/../lib/gcc/nios2-elf/4.1.2/mhw-mulx\libgcc.a(_ne_df.o)
 .bss           0x000b6a38        0x0 c:/altera/11.1/nios2eds/bin/gnu/h-i686-mingw32/bin/../lib/gcc/nios2-elf/4.1.2/mhw-mulx\libgcc.a(_lt_df.o)
 .bss           0x000b6a38        0x0 ../GIGLE10_bsp\libucosii_bsp.a(alt_alarm_start.o)
 .bss           0x000b6a38        0x0 ../GIGLE10_bsp\libucosii_bsp.a(alt_close.o)
 .bss           0x000b6a38        0x0 ../GIGLE10_bsp\libucosii_bsp.a(alt_dcache_flush.o)
 .bss           0x000b6a38        0x0 ../GIGLE10_bsp\libucosii_bsp.a(alt_dev.o)
 .bss           0x000b6a38        0x0 ../GIGLE10_bsp\libucosii_bsp.a(alt_errno.o)
 .bss           0x000b6a38        0x0 ../GIGLE10_bsp\libucosii_bsp.a(alt_flash_dev.o)
 .bss           0x000b6a38        0x0 ../GIGLE10_bsp\libucosii_bsp.a(alt_fstat.o)
 .bss           0x000b6a38        0x0 ../GIGLE10_bsp\libucosii_bsp.a(alt_iic.o)
 .bss           0x000b6a38        0x0 ../GIGLE10_bsp\libucosii_bsp.a(alt_iic_isr_register.o)
 .bss           0x000b6a38        0x0 ../GIGLE10_bsp\libucosii_bsp.a(alt_irq_entry.o)
 .bss           0x000b6a38        0x0 ../GIGLE10_bsp\libucosii_bsp.a(alt_irq_handler.o)
 .bss           0x000b6a38        0x0 ../GIGLE10_bsp\libucosii_bsp.a(alt_irq_vars.o)
 .bss           0x000b6a38        0x0 ../GIGLE10_bsp\libucosii_bsp.a(alt_isatty.o)
 .bss           0x000b6a38        0x0 ../GIGLE10_bsp\libucosii_bsp.a(alt_lseek.o)
 .bss           0x000b6a38        0x0 ../GIGLE10_bsp\libucosii_bsp.a(alt_main.o)
 .bss           0x000b6a38        0x0 ../GIGLE10_bsp\libucosii_bsp.a(alt_read.o)
 .bss           0x000b6a38        0x0 ../GIGLE10_bsp\libucosii_bsp.a(alt_release_fd.o)
 .bss           0x000b6a38        0x0 ../GIGLE10_bsp\libucosii_bsp.a(alt_sbrk.o)
 .bss           0x000b6a38        0x0 ../GIGLE10_bsp\libucosii_bsp.a(alt_tick.o)
 .bss           0x000b6a38        0x0 ../GIGLE10_bsp\libucosii_bsp.a(alt_usleep.o)
 .bss           0x000b6a38        0x0 ../GIGLE10_bsp\libucosii_bsp.a(alt_write.o)
 .bss           0x000b6a38        0x0 ../GIGLE10_bsp\libucosii_bsp.a(alt_env_lock.o)
 .bss           0x000b6a38        0x0 ../GIGLE10_bsp\libucosii_bsp.a(alt_malloc_lock.o)
 .bss           0x000b6a38        0x0 ../GIGLE10_bsp\libucosii_bsp.a(os_core.o)
 .bss           0x000b6a38        0x0 ../GIGLE10_bsp\libucosii_bsp.a(os_dbg.o)
 .bss           0x000b6a38        0x0 ../GIGLE10_bsp\libucosii_bsp.a(os_flag.o)
 .bss           0x000b6a38        0x0 ../GIGLE10_bsp\libucosii_bsp.a(os_mem.o)
 .bss           0x000b6a38        0x0 ../GIGLE10_bsp\libucosii_bsp.a(os_q.o)
 .bss           0x000b6a38        0x0 ../GIGLE10_bsp\libucosii_bsp.a(os_sem.o)
 .bss           0x000b6a38        0x0 ../GIGLE10_bsp\libucosii_bsp.a(os_task.o)
 .bss           0x000b6a38        0x0 ../GIGLE10_bsp\libucosii_bsp.a(os_time.o)
 .bss           0x000b6a38        0x0 ../GIGLE10_bsp\libucosii_bsp.a(alt_sys_init.o)
 .bss           0x000b6a38        0x0 ../GIGLE10_bsp\libucosii_bsp.a(altera_avalon_epcs_flash_controller.o)
 .bss           0x000b6a38        0x0 ../GIGLE10_bsp\libucosii_bsp.a(altera_avalon_jtag_uart_fd.o)
 .bss           0x000b6a38        0x0 ../GIGLE10_bsp\libucosii_bsp.a(altera_avalon_jtag_uart_init.o)
 .bss           0x000b6a38        0x0 ../GIGLE10_bsp\libucosii_bsp.a(altera_avalon_jtag_uart_ioctl.o)
 .bss           0x000b6a38        0x0 ../GIGLE10_bsp\libucosii_bsp.a(altera_avalon_jtag_uart_read.o)
 .bss           0x000b6a38        0x0 ../GIGLE10_bsp\libucosii_bsp.a(altera_avalon_jtag_uart_write.o)
 .bss           0x000b6a38        0x0 ../GIGLE10_bsp\libucosii_bsp.a(altera_avalon_timer_sc.o)
 .bss           0x000b6a38        0x0 ../GIGLE10_bsp\libucosii_bsp.a(altera_avalon_uart_fd.o)
 .bss           0x000b6a38        0x0 ../GIGLE10_bsp\libucosii_bsp.a(altera_avalon_uart_init.o)
 .bss           0x000b6a38        0x0 ../GIGLE10_bsp\libucosii_bsp.a(altera_avalon_uart_read.o)
 .bss           0x000b6a38        0x0 ../GIGLE10_bsp\libucosii_bsp.a(altera_avalon_uart_write.o)
 .bss           0x000b6a38        0x0 ../GIGLE10_bsp\libucosii_bsp.a(epcs_commands.o)
 .bss           0x000b6a38        0x0 ../GIGLE10_bsp\libucosii_bsp.a(alt_busy_sleep.o)
 .bss           0x000b6a38        0x0 ../GIGLE10_bsp\libucosii_bsp.a(alt_dev_llist_insert.o)
 .bss           0x000b6a38        0x0 ../GIGLE10_bsp\libucosii_bsp.a(alt_exception_entry.o)
 .bss           0x000b6a38        0x0 ../GIGLE10_bsp\libucosii_bsp.a(alt_find_dev.o)
 .bss           0x000b6a38        0x0 ../GIGLE10_bsp\libucosii_bsp.a(alt_io_redirect.o)
 .bss           0x000b6a38        0x0 ../GIGLE10_bsp\libucosii_bsp.a(alt_open.o)
 .bss           0x000b6a38        0x0 ../GIGLE10_bsp\libucosii_bsp.a(altera_nios2_qsys_irq.o)
 .bss           0x000b6a38        0x0 ../GIGLE10_bsp\libucosii_bsp.a(os_cpu_a.o)
 .bss           0x000b6a38        0x0 ../GIGLE10_bsp\libucosii_bsp.a(os_cpu_c.o)
 .bss           0x000b6a38        0x0 ../GIGLE10_bsp\libucosii_bsp.a(altera_avalon_spi.o)
 .bss           0x000b6a38        0x0 ../GIGLE10_bsp\libucosii_bsp.a(alt_find_file.o)
 .bss           0x000b6a38        0x0 ../GIGLE10_bsp\libucosii_bsp.a(alt_get_fd.o)
 .bss           0x000b6a38        0x0 c:/altera/11.1/nios2eds/bin/gnu/h-i686-mingw32/bin/../lib/gcc/nios2-elf/4.1.2/../../../../nios2-elf/lib/mhw-mulx\libc.a(lib_a-exit.o)
 .bss           0x000b6a38        0x0 c:/altera/11.1/nios2eds/bin/gnu/h-i686-mingw32/bin/../lib/gcc/nios2-elf/4.1.2/../../../../nios2-elf/lib/mhw-mulx\libc.a(lib_a-memcmp.o)
 .bss           0x000b6a38        0x0 c:/altera/11.1/nios2eds/bin/gnu/h-i686-mingw32/bin/../lib/gcc/nios2-elf/4.1.2/../../../../nios2-elf/lib/mhw-mulx\libc.a(lib_a-__call_atexit.o)
 .bss           0x000b6a38        0x0 ../GIGLE10_bsp\libucosii_bsp.a(alt_exit.o)
 *(COMMON)
 COMMON         0x000b6a38     0xc9a4 obj/Debug/main.o
                0x000b6a38                ConfigStat10GB
                0x000b6dc1                Special10GStat
                0x000b714a                ConfigMS
                0x000b86c8                ConfigStatB
                0x000b8a51                SpecialStat
                0x000b8dda                FlashQTX
                0x000b8e5a                SpecialStatB
                0x000b91e4                c3794_task_stk
                0x000bb1e4                LoopbackStat
                0x000bb56d                ConfigStat
                0x000bb8f6                ConfigStat10G
                0x000bbc7f                LoopbackStatB
                0x000bc008                ConfigStatC37
                0x000bc0d0                RxBuffer
                0x000bd650                link_task_stk
                0x000bf650                TxBuffer
                0x000c0bd0                main_task_stk
                0x000c2bd0                Special10GStatB
                0x000c2f59                LoopbackStat10G
                0x000c32e2                FlashParameters
 COMMON         0x000c33dc       0x18 obj/Debug/onesec_alrm.o
                0x000c33dc                one_sec_alarm
 COMMON         0x000c33f4      0x100 ../GIGLE10_bsp\libucosii_bsp.a(alt_irq_handler.o)
                0x000c33f4                alt_irq
 COMMON         0x000c34f4     0x3224 ../GIGLE10_bsp\libucosii_bsp.a(os_core.o)
                0x000c34f4                OSFlagTbl
                0x000c3864                OSMemTbl
                0x000c4494                OSTaskStatStk
                0x000c4c94                OSQTbl
                0x000c4e74                OSTaskIdleStk
                0x000c5674                OSEventTbl
                0x000c61b4                OSTCBTbl
                0x000c66c4                OSTCBPrioTbl
                0x000c6718                . = ALIGN (0x4)
                0x000c6718                __bss_end = ABSOLUTE (.)

.epcs_flash_controller_0
                0x00000020        0x0
                0x00000020                PROVIDE (_alt_partition_epcs_flash_controller_0_start, ABSOLUTE (.))
 *(.epcs_flash_controller_0. epcs_flash_controller_0.*)
                0x00000020                . = ALIGN (0x4)
                0x00000020                PROVIDE (_alt_partition_epcs_flash_controller_0_end, ABSOLUTE (.))
                0x00000020                PROVIDE (_alt_partition_epcs_flash_controller_0_load_addr, LOADADDR (.epcs_flash_controller_0))

.onchip_mem     0x000c6718        0x0
                0x000c6718                PROVIDE (_alt_partition_onchip_mem_start, ABSOLUTE (.))
 *(.onchip_mem. onchip_mem.*)
                0x000c6718                . = ALIGN (0x4)
                0x000c6718                PROVIDE (_alt_partition_onchip_mem_end, ABSOLUTE (.))
                0x000c6718                _end = ABSOLUTE (.)
                0x000c6718                end = ABSOLUTE (.)
                0x000c6718                __alt_stack_base = ABSOLUTE (.)
                0x000c6718                PROVIDE (_alt_partition_onchip_mem_load_addr, LOADADDR (.onchip_mem))

.stab
 *(.stab)

.stabstr
 *(.stabstr)

.stab.excl
 *(.stab.excl)

.stab.exclstr
 *(.stab.exclstr)

.stab.index
 *(.stab.index)

.stab.indexstr
 *(.stab.indexstr)

.comment        0x00000000       0x23
 *(.comment)
 .comment       0x00000000       0x23 obj/Debug/alt_2_wire.o
                                 0x24 (size before relaxing)
 .comment       0x00000000       0x24 obj/Debug/c37dot94.o
 .comment       0x00000000       0x24 obj/Debug/c37dot94_task.o
 .comment       0x00000000       0x24 obj/Debug/c37dot94bert.o
 .comment       0x00000000       0x24 obj/Debug/cfg10_hw.o
 .comment       0x00000000       0x24 obj/Debug/cfg_c37.o
 .comment       0x00000000       0x24 obj/Debug/cfg_frame.o
 .comment       0x00000000       0x24 obj/Debug/cfg_hw.o
 .comment       0x00000000       0x24 obj/Debug/config.o
 .comment       0x00000000       0x24 obj/Debug/config10g.o
 .comment       0x00000000       0x24 obj/Debug/config_multistream.o
 .comment       0x00000000       0x24 obj/Debug/flash.o
 .comment       0x00000000       0x24 obj/Debug/functions.o
 .comment       0x00000000       0x24 obj/Debug/gui_link.o
 .comment       0x00000000       0x24 obj/Debug/helpers.o
 .comment       0x00000000       0x24 obj/Debug/init.o
 .comment       0x00000000       0x24 obj/Debug/intr.o
 .comment       0x00000000       0x24 obj/Debug/link_task.o
 .comment       0x00000000       0x24 obj/Debug/loopback.o
 .comment       0x00000000       0x24 obj/Debug/main.o
 .comment       0x00000000       0x24 obj/Debug/onesec_alrm.o
 .comment       0x00000000       0x24 obj/Debug/packet10g.o
 .comment       0x00000000       0x24 obj/Debug/results.o
 .comment       0x00000000       0x24 obj/Debug/sfp.o
 .comment       0x00000000       0x24 obj/Debug/status.o
 .comment       0x00000000       0x24 obj/Debug/update_headers.o
 .comment       0x00000000       0x24 c:/altera/11.1/nios2eds/bin/gnu/h-i686-mingw32/bin/../lib/gcc/nios2-elf/4.1.2/../../../../nios2-elf/lib/mhw-mulx\libm.a(lib_a-s_round.o)
 .comment       0x00000000       0x24 c:/altera/11.1/nios2eds/bin/gnu/h-i686-mingw32/bin/../lib/gcc/nios2-elf/4.1.2/mhw-mulx\libgcc.a(_fixunssfsi.o)
 .comment       0x00000000       0x24 c:/altera/11.1/nios2eds/bin/gnu/h-i686-mingw32/bin/../lib/gcc/nios2-elf/4.1.2/mhw-mulx\libgcc.a(_fixunsdfsi.o)
 .comment       0x00000000       0x24 c:/altera/11.1/nios2eds/bin/gnu/h-i686-mingw32/bin/../lib/gcc/nios2-elf/4.1.2/mhw-mulx\libgcc.a(_fixunsdfdi.o)
 .comment       0x00000000       0x24 c:/altera/11.1/nios2eds/bin/gnu/h-i686-mingw32/bin/../lib/gcc/nios2-elf/4.1.2/mhw-mulx\libgcc.a(_floatdidf.o)
 .comment       0x00000000       0x24 c:/altera/11.1/nios2eds/bin/gnu/h-i686-mingw32/bin/../lib/gcc/nios2-elf/4.1.2/mhw-mulx\libgcc.a(_floatundidf.o)
 .comment       0x00000000       0x24 c:/altera/11.1/nios2eds/bin/gnu/h-i686-mingw32/bin/../lib/gcc/nios2-elf/4.1.2/mhw-mulx\libgcc.a(_divdi3.o)
 .comment       0x00000000       0x24 c:/altera/11.1/nios2eds/bin/gnu/h-i686-mingw32/bin/../lib/gcc/nios2-elf/4.1.2/mhw-mulx\libgcc.a(_addsub_sf.o)
 .comment       0x00000000       0x24 c:/altera/11.1/nios2eds/bin/gnu/h-i686-mingw32/bin/../lib/gcc/nios2-elf/4.1.2/mhw-mulx\libgcc.a(_mul_sf.o)
 .comment       0x00000000       0x24 c:/altera/11.1/nios2eds/bin/gnu/h-i686-mingw32/bin/../lib/gcc/nios2-elf/4.1.2/mhw-mulx\libgcc.a(_eq_sf.o)
 .comment       0x00000000       0x24 c:/altera/11.1/nios2eds/bin/gnu/h-i686-mingw32/bin/../lib/gcc/nios2-elf/4.1.2/mhw-mulx\libgcc.a(_ge_sf.o)
 .comment       0x00000000       0x24 c:/altera/11.1/nios2eds/bin/gnu/h-i686-mingw32/bin/../lib/gcc/nios2-elf/4.1.2/mhw-mulx\libgcc.a(_sf_to_si.o)
 .comment       0x00000000       0x24 c:/altera/11.1/nios2eds/bin/gnu/h-i686-mingw32/bin/../lib/gcc/nios2-elf/4.1.2/mhw-mulx\libgcc.a(_sf_to_df.o)
 .comment       0x00000000       0x24 c:/altera/11.1/nios2eds/bin/gnu/h-i686-mingw32/bin/../lib/gcc/nios2-elf/4.1.2/mhw-mulx\libgcc.a(_thenan_sf.o)
 .comment       0x00000000       0x24 c:/altera/11.1/nios2eds/bin/gnu/h-i686-mingw32/bin/../lib/gcc/nios2-elf/4.1.2/mhw-mulx\libgcc.a(_usi_to_sf.o)
 .comment       0x00000000       0x24 c:/altera/11.1/nios2eds/bin/gnu/h-i686-mingw32/bin/../lib/gcc/nios2-elf/4.1.2/mhw-mulx\libgcc.a(_addsub_df.o)
 .comment       0x00000000       0x24 c:/altera/11.1/nios2eds/bin/gnu/h-i686-mingw32/bin/../lib/gcc/nios2-elf/4.1.2/mhw-mulx\libgcc.a(_mul_df.o)
 .comment       0x00000000       0x24 c:/altera/11.1/nios2eds/bin/gnu/h-i686-mingw32/bin/../lib/gcc/nios2-elf/4.1.2/mhw-mulx\libgcc.a(_div_df.o)
 .comment       0x00000000       0x24 c:/altera/11.1/nios2eds/bin/gnu/h-i686-mingw32/bin/../lib/gcc/nios2-elf/4.1.2/mhw-mulx\libgcc.a(_gt_df.o)
 .comment       0x00000000       0x24 c:/altera/11.1/nios2eds/bin/gnu/h-i686-mingw32/bin/../lib/gcc/nios2-elf/4.1.2/mhw-mulx\libgcc.a(_ge_df.o)
 .comment       0x00000000       0x24 c:/altera/11.1/nios2eds/bin/gnu/h-i686-mingw32/bin/../lib/gcc/nios2-elf/4.1.2/mhw-mulx\libgcc.a(_si_to_df.o)
 .comment       0x00000000       0x24 c:/altera/11.1/nios2eds/bin/gnu/h-i686-mingw32/bin/../lib/gcc/nios2-elf/4.1.2/mhw-mulx\libgcc.a(_df_to_si.o)
 .comment       0x00000000       0x24 c:/altera/11.1/nios2eds/bin/gnu/h-i686-mingw32/bin/../lib/gcc/nios2-elf/4.1.2/mhw-mulx\libgcc.a(_make_df.o)
 .comment       0x00000000       0x24 c:/altera/11.1/nios2eds/bin/gnu/h-i686-mingw32/bin/../lib/gcc/nios2-elf/4.1.2/mhw-mulx\libgcc.a(_df_to_sf.o)
 .comment       0x00000000       0x24 c:/altera/11.1/nios2eds/bin/gnu/h-i686-mingw32/bin/../lib/gcc/nios2-elf/4.1.2/mhw-mulx\libgcc.a(_thenan_df.o)
 .comment       0x00000000       0x24 c:/altera/11.1/nios2eds/bin/gnu/h-i686-mingw32/bin/../lib/gcc/nios2-elf/4.1.2/mhw-mulx\libgcc.a(_usi_to_df.o)
 .comment       0x00000000       0x24 c:/altera/11.1/nios2eds/bin/gnu/h-i686-mingw32/bin/../lib/gcc/nios2-elf/4.1.2/mhw-mulx\libgcc.a(lib2-divmod.o)
 .comment       0x00000000       0x24 c:/altera/11.1/nios2eds/bin/gnu/h-i686-mingw32/bin/../lib/gcc/nios2-elf/4.1.2/mhw-mulx\libgcc.a(_clz.o)
 .comment       0x00000000       0x24 c:/altera/11.1/nios2eds/bin/gnu/h-i686-mingw32/bin/../lib/gcc/nios2-elf/4.1.2/mhw-mulx\libgcc.a(_clzsi2.o)
 .comment       0x00000000       0x24 c:/altera/11.1/nios2eds/bin/gnu/h-i686-mingw32/bin/../lib/gcc/nios2-elf/4.1.2/mhw-mulx\libgcc.a(_pack_sf.o)
 .comment       0x00000000       0x24 c:/altera/11.1/nios2eds/bin/gnu/h-i686-mingw32/bin/../lib/gcc/nios2-elf/4.1.2/mhw-mulx\libgcc.a(_unpack_sf.o)
 .comment       0x00000000       0x24 c:/altera/11.1/nios2eds/bin/gnu/h-i686-mingw32/bin/../lib/gcc/nios2-elf/4.1.2/mhw-mulx\libgcc.a(_fpcmp_parts_sf.o)
 .comment       0x00000000       0x24 c:/altera/11.1/nios2eds/bin/gnu/h-i686-mingw32/bin/../lib/gcc/nios2-elf/4.1.2/mhw-mulx\libgcc.a(_make_sf.o)
 .comment       0x00000000       0x24 c:/altera/11.1/nios2eds/bin/gnu/h-i686-mingw32/bin/../lib/gcc/nios2-elf/4.1.2/mhw-mulx\libgcc.a(_pack_df.o)
 .comment       0x00000000       0x24 c:/altera/11.1/nios2eds/bin/gnu/h-i686-mingw32/bin/../lib/gcc/nios2-elf/4.1.2/mhw-mulx\libgcc.a(_unpack_df.o)
 .comment       0x00000000       0x24 c:/altera/11.1/nios2eds/bin/gnu/h-i686-mingw32/bin/../lib/gcc/nios2-elf/4.1.2/mhw-mulx\libgcc.a(_fpcmp_parts_df.o)
 .comment       0x00000000       0x24 c:/altera/11.1/nios2eds/bin/gnu/h-i686-mingw32/bin/../lib/gcc/nios2-elf/4.1.2/../../../../nios2-elf/lib/mhw-mulx\libc.a(lib_a-printf.o)
 .comment       0x00000000       0x24 c:/altera/11.1/nios2eds/bin/gnu/h-i686-mingw32/bin/../lib/gcc/nios2-elf/4.1.2/../../../../nios2-elf/lib/mhw-mulx\libc.a(lib_a-putchar.o)
 .comment       0x00000000       0x24 c:/altera/11.1/nios2eds/bin/gnu/h-i686-mingw32/bin/../lib/gcc/nios2-elf/4.1.2/../../../../nios2-elf/lib/mhw-mulx\libc.a(lib_a-puts.o)
 .comment       0x00000000       0x24 c:/altera/11.1/nios2eds/bin/gnu/h-i686-mingw32/bin/../lib/gcc/nios2-elf/4.1.2/../../../../nios2-elf/lib/mhw-mulx\libc.a(lib_a-strlen.o)
 .comment       0x00000000       0x24 c:/altera/11.1/nios2eds/bin/gnu/h-i686-mingw32/bin/../lib/gcc/nios2-elf/4.1.2/../../../../nios2-elf/lib/mhw-mulx\libc.a(lib_a-strncmp.o)
 .comment       0x00000000       0x24 c:/altera/11.1/nios2eds/bin/gnu/h-i686-mingw32/bin/../lib/gcc/nios2-elf/4.1.2/../../../../nios2-elf/lib/mhw-mulx\libc.a(lib_a-vfprintf.o)
 .comment       0x00000000       0x24 c:/altera/11.1/nios2eds/bin/gnu/h-i686-mingw32/bin/../lib/gcc/nios2-elf/4.1.2/../../../../nios2-elf/lib/mhw-mulx\libc.a(lib_a-wsetup.o)
 .comment       0x00000000       0x24 c:/altera/11.1/nios2eds/bin/gnu/h-i686-mingw32/bin/../lib/gcc/nios2-elf/4.1.2/../../../../nios2-elf/lib/mhw-mulx\libc.a(lib_a-dtoa.o)
 .comment       0x00000000       0x24 c:/altera/11.1/nios2eds/bin/gnu/h-i686-mingw32/bin/../lib/gcc/nios2-elf/4.1.2/../../../../nios2-elf/lib/mhw-mulx\libc.a(lib_a-fflush.o)
 .comment       0x00000000       0x24 c:/altera/11.1/nios2eds/bin/gnu/h-i686-mingw32/bin/../lib/gcc/nios2-elf/4.1.2/../../../../nios2-elf/lib/mhw-mulx\libc.a(lib_a-findfp.o)
 .comment       0x00000000       0x24 c:/altera/11.1/nios2eds/bin/gnu/h-i686-mingw32/bin/../lib/gcc/nios2-elf/4.1.2/../../../../nios2-elf/lib/mhw-mulx\libc.a(lib_a-freer.o)
 .comment       0x00000000       0x24 c:/altera/11.1/nios2eds/bin/gnu/h-i686-mingw32/bin/../lib/gcc/nios2-elf/4.1.2/../../../../nios2-elf/lib/mhw-mulx\libc.a(lib_a-fvwrite.o)
 .comment       0x00000000       0x24 c:/altera/11.1/nios2eds/bin/gnu/h-i686-mingw32/bin/../lib/gcc/nios2-elf/4.1.2/../../../../nios2-elf/lib/mhw-mulx\libc.a(lib_a-fwalk.o)
 .comment       0x00000000       0x24 c:/altera/11.1/nios2eds/bin/gnu/h-i686-mingw32/bin/../lib/gcc/nios2-elf/4.1.2/../../../../nios2-elf/lib/mhw-mulx\libc.a(lib_a-impure.o)
 .comment       0x00000000       0x24 c:/altera/11.1/nios2eds/bin/gnu/h-i686-mingw32/bin/../lib/gcc/nios2-elf/4.1.2/../../../../nios2-elf/lib/mhw-mulx\libc.a(lib_a-locale.o)
 .comment       0x00000000       0x24 c:/altera/11.1/nios2eds/bin/gnu/h-i686-mingw32/bin/../lib/gcc/nios2-elf/4.1.2/../../../../nios2-elf/lib/mhw-mulx\libc.a(lib_a-makebuf.o)
 .comment       0x00000000       0x24 c:/altera/11.1/nios2eds/bin/gnu/h-i686-mingw32/bin/../lib/gcc/nios2-elf/4.1.2/../../../../nios2-elf/lib/mhw-mulx\libc.a(lib_a-mallocr.o)
 .comment       0x00000000       0x24 c:/altera/11.1/nios2eds/bin/gnu/h-i686-mingw32/bin/../lib/gcc/nios2-elf/4.1.2/../../../../nios2-elf/lib/mhw-mulx\libc.a(lib_a-memchr.o)
 .comment       0x00000000       0x24 c:/altera/11.1/nios2eds/bin/gnu/h-i686-mingw32/bin/../lib/gcc/nios2-elf/4.1.2/../../../../nios2-elf/lib/mhw-mulx\libc.a(lib_a-memcpy.o)
 .comment       0x00000000       0x24 c:/altera/11.1/nios2eds/bin/gnu/h-i686-mingw32/bin/../lib/gcc/nios2-elf/4.1.2/../../../../nios2-elf/lib/mhw-mulx\libc.a(lib_a-memmove.o)
 .comment       0x00000000       0x24 c:/altera/11.1/nios2eds/bin/gnu/h-i686-mingw32/bin/../lib/gcc/nios2-elf/4.1.2/../../../../nios2-elf/lib/mhw-mulx\libc.a(lib_a-memset.o)
 .comment       0x00000000       0x24 c:/altera/11.1/nios2eds/bin/gnu/h-i686-mingw32/bin/../lib/gcc/nios2-elf/4.1.2/../../../../nios2-elf/lib/mhw-mulx\libc.a(lib_a-mprec.o)
 .comment       0x00000000       0x24 c:/altera/11.1/nios2eds/bin/gnu/h-i686-mingw32/bin/../lib/gcc/nios2-elf/4.1.2/../../../../nios2-elf/lib/mhw-mulx\libc.a(lib_a-putc.o)
 .comment       0x00000000       0x24 c:/altera/11.1/nios2eds/bin/gnu/h-i686-mingw32/bin/../lib/gcc/nios2-elf/4.1.2/../../../../nios2-elf/lib/mhw-mulx\libc.a(lib_a-reallocr.o)
 .comment       0x00000000       0x24 c:/altera/11.1/nios2eds/bin/gnu/h-i686-mingw32/bin/../lib/gcc/nios2-elf/4.1.2/../../../../nios2-elf/lib/mhw-mulx\libc.a(lib_a-s_isinfd.o)
 .comment       0x00000000       0x24 c:/altera/11.1/nios2eds/bin/gnu/h-i686-mingw32/bin/../lib/gcc/nios2-elf/4.1.2/../../../../nios2-elf/lib/mhw-mulx\libc.a(lib_a-s_isnand.o)
 .comment       0x00000000       0x24 c:/altera/11.1/nios2eds/bin/gnu/h-i686-mingw32/bin/../lib/gcc/nios2-elf/4.1.2/../../../../nios2-elf/lib/mhw-mulx\libc.a(lib_a-sbrkr.o)
 .comment       0x00000000       0x24 c:/altera/11.1/nios2eds/bin/gnu/h-i686-mingw32/bin/../lib/gcc/nios2-elf/4.1.2/../../../../nios2-elf/lib/mhw-mulx\libc.a(lib_a-stdio.o)
 .comment       0x00000000       0x24 c:/altera/11.1/nios2eds/bin/gnu/h-i686-mingw32/bin/../lib/gcc/nios2-elf/4.1.2/../../../../nios2-elf/lib/mhw-mulx\libc.a(lib_a-strcmp.o)
 .comment       0x00000000       0x24 c:/altera/11.1/nios2eds/bin/gnu/h-i686-mingw32/bin/../lib/gcc/nios2-elf/4.1.2/../../../../nios2-elf/lib/mhw-mulx\libc.a(lib_a-wbuf.o)
 .comment       0x00000000       0x24 c:/altera/11.1/nios2eds/bin/gnu/h-i686-mingw32/bin/../lib/gcc/nios2-elf/4.1.2/../../../../nios2-elf/lib/mhw-mulx\libc.a(lib_a-writer.o)
 .comment       0x00000000       0x24 c:/altera/11.1/nios2eds/bin/gnu/h-i686-mingw32/bin/../lib/gcc/nios2-elf/4.1.2/../../../../nios2-elf/lib/mhw-mulx\libc.a(lib_a-callocr.o)
 .comment       0x00000000       0x24 c:/altera/11.1/nios2eds/bin/gnu/h-i686-mingw32/bin/../lib/gcc/nios2-elf/4.1.2/../../../../nios2-elf/lib/mhw-mulx\libc.a(lib_a-closer.o)
 .comment       0x00000000       0x24 c:/altera/11.1/nios2eds/bin/gnu/h-i686-mingw32/bin/../lib/gcc/nios2-elf/4.1.2/../../../../nios2-elf/lib/mhw-mulx\libc.a(lib_a-fclose.o)
 .comment       0x00000000       0x24 c:/altera/11.1/nios2eds/bin/gnu/h-i686-mingw32/bin/../lib/gcc/nios2-elf/4.1.2/../../../../nios2-elf/lib/mhw-mulx\libc.a(lib_a-fstatr.o)
 .comment       0x00000000       0x24 c:/altera/11.1/nios2eds/bin/gnu/h-i686-mingw32/bin/../lib/gcc/nios2-elf/4.1.2/../../../../nios2-elf/lib/mhw-mulx\libc.a(lib_a-int_errno.o)
 .comment       0x00000000       0x24 c:/altera/11.1/nios2eds/bin/gnu/h-i686-mingw32/bin/../lib/gcc/nios2-elf/4.1.2/../../../../nios2-elf/lib/mhw-mulx\libc.a(lib_a-isattyr.o)
 .comment       0x00000000       0x24 c:/altera/11.1/nios2eds/bin/gnu/h-i686-mingw32/bin/../lib/gcc/nios2-elf/4.1.2/../../../../nios2-elf/lib/mhw-mulx\libc.a(lib_a-lseekr.o)
 .comment       0x00000000       0x24 c:/altera/11.1/nios2eds/bin/gnu/h-i686-mingw32/bin/../lib/gcc/nios2-elf/4.1.2/../../../../nios2-elf/lib/mhw-mulx\libc.a(lib_a-readr.o)
 .comment       0x00000000       0x24 c:/altera/11.1/nios2eds/bin/gnu/h-i686-mingw32/bin/../lib/gcc/nios2-elf/4.1.2/mhw-mulx\libgcc.a(_udivdi3.o)
 .comment       0x00000000       0x24 c:/altera/11.1/nios2eds/bin/gnu/h-i686-mingw32/bin/../lib/gcc/nios2-elf/4.1.2/mhw-mulx\libgcc.a(_umoddi3.o)
 .comment       0x00000000       0x24 c:/altera/11.1/nios2eds/bin/gnu/h-i686-mingw32/bin/../lib/gcc/nios2-elf/4.1.2/mhw-mulx\libgcc.a(_eq_df.o)
 .comment       0x00000000       0x24 c:/altera/11.1/nios2eds/bin/gnu/h-i686-mingw32/bin/../lib/gcc/nios2-elf/4.1.2/mhw-mulx\libgcc.a(_ne_df.o)
 .comment       0x00000000       0x24 c:/altera/11.1/nios2eds/bin/gnu/h-i686-mingw32/bin/../lib/gcc/nios2-elf/4.1.2/mhw-mulx\libgcc.a(_lt_df.o)
 .comment       0x00000000       0x24 ../GIGLE10_bsp\libucosii_bsp.a(alt_alarm_start.o)
 .comment       0x00000000       0x24 ../GIGLE10_bsp\libucosii_bsp.a(alt_close.o)
 .comment       0x00000000       0x24 ../GIGLE10_bsp\libucosii_bsp.a(alt_dcache_flush.o)
 .comment       0x00000000       0x24 ../GIGLE10_bsp\libucosii_bsp.a(alt_dev.o)
 .comment       0x00000000       0x24 ../GIGLE10_bsp\libucosii_bsp.a(alt_errno.o)
 .comment       0x00000000       0x24 ../GIGLE10_bsp\libucosii_bsp.a(alt_flash_dev.o)
 .comment       0x00000000       0x24 ../GIGLE10_bsp\libucosii_bsp.a(alt_fstat.o)
 .comment       0x00000000       0x24 ../GIGLE10_bsp\libucosii_bsp.a(alt_iic.o)
 .comment       0x00000000       0x24 ../GIGLE10_bsp\libucosii_bsp.a(alt_iic_isr_register.o)
 .comment       0x00000000       0x24 ../GIGLE10_bsp\libucosii_bsp.a(alt_irq_handler.o)
 .comment       0x00000000       0x24 ../GIGLE10_bsp\libucosii_bsp.a(alt_irq_vars.o)
 .comment       0x00000000       0x24 ../GIGLE10_bsp\libucosii_bsp.a(alt_isatty.o)
 .comment       0x00000000       0x24 ../GIGLE10_bsp\libucosii_bsp.a(alt_lseek.o)
 .comment       0x00000000       0x24 ../GIGLE10_bsp\libucosii_bsp.a(alt_main.o)
 .comment       0x00000000       0x24 ../GIGLE10_bsp\libucosii_bsp.a(alt_read.o)
 .comment       0x00000000       0x24 ../GIGLE10_bsp\libucosii_bsp.a(alt_release_fd.o)
 .comment       0x00000000       0x24 ../GIGLE10_bsp\libucosii_bsp.a(alt_sbrk.o)
 .comment       0x00000000       0x24 ../GIGLE10_bsp\libucosii_bsp.a(alt_tick.o)
 .comment       0x00000000       0x24 ../GIGLE10_bsp\libucosii_bsp.a(alt_usleep.o)
 .comment       0x00000000       0x24 ../GIGLE10_bsp\libucosii_bsp.a(alt_write.o)
 .comment       0x00000000       0x24 ../GIGLE10_bsp\libucosii_bsp.a(alt_env_lock.o)
 .comment       0x00000000       0x24 ../GIGLE10_bsp\libucosii_bsp.a(alt_malloc_lock.o)
 .comment       0x00000000       0x24 ../GIGLE10_bsp\libucosii_bsp.a(os_core.o)
 .comment       0x00000000       0x24 ../GIGLE10_bsp\libucosii_bsp.a(os_dbg.o)
 .comment       0x00000000       0x24 ../GIGLE10_bsp\libucosii_bsp.a(os_flag.o)
 .comment       0x00000000       0x24 ../GIGLE10_bsp\libucosii_bsp.a(os_mem.o)
 .comment       0x00000000       0x24 ../GIGLE10_bsp\libucosii_bsp.a(os_q.o)
 .comment       0x00000000       0x24 ../GIGLE10_bsp\libucosii_bsp.a(os_sem.o)
 .comment       0x00000000       0x24 ../GIGLE10_bsp\libucosii_bsp.a(os_task.o)
 .comment       0x00000000       0x24 ../GIGLE10_bsp\libucosii_bsp.a(os_time.o)
 .comment       0x00000000       0x24 ../GIGLE10_bsp\libucosii_bsp.a(alt_sys_init.o)
 .comment       0x00000000       0x24 ../GIGLE10_bsp\libucosii_bsp.a(altera_avalon_epcs_flash_controller.o)
 .comment       0x00000000       0x24 ../GIGLE10_bsp\libucosii_bsp.a(altera_avalon_jtag_uart_fd.o)
 .comment       0x00000000       0x24 ../GIGLE10_bsp\libucosii_bsp.a(altera_avalon_jtag_uart_init.o)
 .comment       0x00000000       0x24 ../GIGLE10_bsp\libucosii_bsp.a(altera_avalon_jtag_uart_ioctl.o)
 .comment       0x00000000       0x24 ../GIGLE10_bsp\libucosii_bsp.a(altera_avalon_jtag_uart_read.o)
 .comment       0x00000000       0x24 ../GIGLE10_bsp\libucosii_bsp.a(altera_avalon_jtag_uart_write.o)
 .comment       0x00000000       0x24 ../GIGLE10_bsp\libucosii_bsp.a(altera_avalon_timer_sc.o)
 .comment       0x00000000       0x24 ../GIGLE10_bsp\libucosii_bsp.a(altera_avalon_uart_fd.o)
 .comment       0x00000000       0x24 ../GIGLE10_bsp\libucosii_bsp.a(altera_avalon_uart_init.o)
 .comment       0x00000000       0x24 ../GIGLE10_bsp\libucosii_bsp.a(altera_avalon_uart_read.o)
 .comment       0x00000000       0x24 ../GIGLE10_bsp\libucosii_bsp.a(altera_avalon_uart_write.o)
 .comment       0x00000000       0x24 ../GIGLE10_bsp\libucosii_bsp.a(epcs_commands.o)
 .comment       0x00000000       0x24 ../GIGLE10_bsp\libucosii_bsp.a(alt_busy_sleep.o)
 .comment       0x00000000       0x24 ../GIGLE10_bsp\libucosii_bsp.a(alt_dev_llist_insert.o)
 .comment       0x00000000       0x24 ../GIGLE10_bsp\libucosii_bsp.a(alt_find_dev.o)
 .comment       0x00000000       0x24 ../GIGLE10_bsp\libucosii_bsp.a(alt_io_redirect.o)
 .comment       0x00000000       0x24 ../GIGLE10_bsp\libucosii_bsp.a(alt_open.o)
 .comment       0x00000000       0x24 ../GIGLE10_bsp\libucosii_bsp.a(altera_nios2_qsys_irq.o)
 .comment       0x00000000       0x24 ../GIGLE10_bsp\libucosii_bsp.a(os_cpu_c.o)
 .comment       0x00000000       0x24 ../GIGLE10_bsp\libucosii_bsp.a(altera_avalon_spi.o)
 .comment       0x00000000       0x24 ../GIGLE10_bsp\libucosii_bsp.a(alt_find_file.o)
 .comment       0x00000000       0x24 ../GIGLE10_bsp\libucosii_bsp.a(alt_get_fd.o)
 .comment       0x00000000       0x24 c:/altera/11.1/nios2eds/bin/gnu/h-i686-mingw32/bin/../lib/gcc/nios2-elf/4.1.2/../../../../nios2-elf/lib/mhw-mulx\libc.a(lib_a-exit.o)
 .comment       0x00000000       0x24 c:/altera/11.1/nios2eds/bin/gnu/h-i686-mingw32/bin/../lib/gcc/nios2-elf/4.1.2/../../../../nios2-elf/lib/mhw-mulx\libc.a(lib_a-memcmp.o)
 .comment       0x00000000       0x24 c:/altera/11.1/nios2eds/bin/gnu/h-i686-mingw32/bin/../lib/gcc/nios2-elf/4.1.2/../../../../nios2-elf/lib/mhw-mulx\libc.a(lib_a-__call_atexit.o)
 .comment       0x00000000       0x24 ../GIGLE10_bsp\libucosii_bsp.a(alt_exit.o)

.debug
 *(.debug)

.line
 *(.line)

.debug_srcinfo
 *(.debug_srcinfo)

.debug_sfnames
 *(.debug_sfnames)

.debug_aranges  0x00000000      0xda8
 *(.debug_aranges)
 .debug_aranges
                0x00000000       0x20 ../GIGLE10_bsp/obj/HAL/src/crt0.o
 .debug_aranges
                0x00000020       0x20 obj/Debug/alt_2_wire.o
 .debug_aranges
                0x00000040       0x20 obj/Debug/c37dot94.o
 .debug_aranges
                0x00000060       0x20 obj/Debug/c37dot94_task.o
 .debug_aranges
                0x00000080       0x20 obj/Debug/c37dot94bert.o
 .debug_aranges
                0x000000a0       0x20 obj/Debug/cfg10_hw.o
 .debug_aranges
                0x000000c0       0x20 obj/Debug/cfg_c37.o
 .debug_aranges
                0x000000e0       0x20 obj/Debug/cfg_frame.o
 .debug_aranges
                0x00000100       0x20 obj/Debug/cfg_hw.o
 .debug_aranges
                0x00000120       0x20 obj/Debug/config.o
 .debug_aranges
                0x00000140       0x20 obj/Debug/config10g.o
 .debug_aranges
                0x00000160       0x20 obj/Debug/config_multistream.o
 .debug_aranges
                0x00000180       0x20 obj/Debug/flash.o
 .debug_aranges
                0x000001a0       0x20 obj/Debug/functions.o
 .debug_aranges
                0x000001c0       0x20 obj/Debug/gui_link.o
 .debug_aranges
                0x000001e0       0x20 obj/Debug/helpers.o
 .debug_aranges
                0x00000200       0x20 obj/Debug/init.o
 .debug_aranges
                0x00000220       0x20 obj/Debug/intr.o
 .debug_aranges
                0x00000240       0x20 obj/Debug/link_task.o
 .debug_aranges
                0x00000260       0x20 obj/Debug/loopback.o
 .debug_aranges
                0x00000280       0x20 obj/Debug/main.o
 .debug_aranges
                0x000002a0       0x20 obj/Debug/onesec_alrm.o
 .debug_aranges
                0x000002c0       0x20 obj/Debug/packet10g.o
 .debug_aranges
                0x000002e0       0x20 obj/Debug/results.o
 .debug_aranges
                0x00000300       0x20 obj/Debug/sfp.o
 .debug_aranges
                0x00000320       0x20 obj/Debug/status.o
 .debug_aranges
                0x00000340       0x20 obj/Debug/update_headers.o
 .debug_aranges
                0x00000360       0x20 c:/altera/11.1/nios2eds/bin/gnu/h-i686-mingw32/bin/../lib/gcc/nios2-elf/4.1.2/../../../../nios2-elf/lib/mhw-mulx\libm.a(lib_a-s_round.o)
 .debug_aranges
                0x00000380       0x20 c:/altera/11.1/nios2eds/bin/gnu/h-i686-mingw32/bin/../lib/gcc/nios2-elf/4.1.2/mhw-mulx\libgcc.a(_fixunssfsi.o)
 .debug_aranges
                0x000003a0       0x20 c:/altera/11.1/nios2eds/bin/gnu/h-i686-mingw32/bin/../lib/gcc/nios2-elf/4.1.2/mhw-mulx\libgcc.a(_fixunsdfsi.o)
 .debug_aranges
                0x000003c0       0x20 c:/altera/11.1/nios2eds/bin/gnu/h-i686-mingw32/bin/../lib/gcc/nios2-elf/4.1.2/mhw-mulx\libgcc.a(_fixunsdfdi.o)
 .debug_aranges
                0x000003e0       0x20 c:/altera/11.1/nios2eds/bin/gnu/h-i686-mingw32/bin/../lib/gcc/nios2-elf/4.1.2/mhw-mulx\libgcc.a(_floatdidf.o)
 .debug_aranges
                0x00000400       0x20 c:/altera/11.1/nios2eds/bin/gnu/h-i686-mingw32/bin/../lib/gcc/nios2-elf/4.1.2/mhw-mulx\libgcc.a(_floatundidf.o)
 .debug_aranges
                0x00000420       0x20 c:/altera/11.1/nios2eds/bin/gnu/h-i686-mingw32/bin/../lib/gcc/nios2-elf/4.1.2/mhw-mulx\libgcc.a(_divdi3.o)
 .debug_aranges
                0x00000440       0x20 c:/altera/11.1/nios2eds/bin/gnu/h-i686-mingw32/bin/../lib/gcc/nios2-elf/4.1.2/mhw-mulx\libgcc.a(_addsub_sf.o)
 .debug_aranges
                0x00000460       0x20 c:/altera/11.1/nios2eds/bin/gnu/h-i686-mingw32/bin/../lib/gcc/nios2-elf/4.1.2/mhw-mulx\libgcc.a(_mul_sf.o)
 .debug_aranges
                0x00000480       0x20 c:/altera/11.1/nios2eds/bin/gnu/h-i686-mingw32/bin/../lib/gcc/nios2-elf/4.1.2/mhw-mulx\libgcc.a(_eq_sf.o)
 .debug_aranges
                0x000004a0       0x20 c:/altera/11.1/nios2eds/bin/gnu/h-i686-mingw32/bin/../lib/gcc/nios2-elf/4.1.2/mhw-mulx\libgcc.a(_ge_sf.o)
 .debug_aranges
                0x000004c0       0x20 c:/altera/11.1/nios2eds/bin/gnu/h-i686-mingw32/bin/../lib/gcc/nios2-elf/4.1.2/mhw-mulx\libgcc.a(_sf_to_si.o)
 .debug_aranges
                0x000004e0       0x20 c:/altera/11.1/nios2eds/bin/gnu/h-i686-mingw32/bin/../lib/gcc/nios2-elf/4.1.2/mhw-mulx\libgcc.a(_sf_to_df.o)
 .debug_aranges
                0x00000500       0x20 c:/altera/11.1/nios2eds/bin/gnu/h-i686-mingw32/bin/../lib/gcc/nios2-elf/4.1.2/mhw-mulx\libgcc.a(_usi_to_sf.o)
 .debug_aranges
                0x00000520       0x20 c:/altera/11.1/nios2eds/bin/gnu/h-i686-mingw32/bin/../lib/gcc/nios2-elf/4.1.2/mhw-mulx\libgcc.a(_addsub_df.o)
 .debug_aranges
                0x00000540       0x20 c:/altera/11.1/nios2eds/bin/gnu/h-i686-mingw32/bin/../lib/gcc/nios2-elf/4.1.2/mhw-mulx\libgcc.a(_mul_df.o)
 .debug_aranges
                0x00000560       0x20 c:/altera/11.1/nios2eds/bin/gnu/h-i686-mingw32/bin/../lib/gcc/nios2-elf/4.1.2/mhw-mulx\libgcc.a(_div_df.o)
 .debug_aranges
                0x00000580       0x20 c:/altera/11.1/nios2eds/bin/gnu/h-i686-mingw32/bin/../lib/gcc/nios2-elf/4.1.2/mhw-mulx\libgcc.a(_gt_df.o)
 .debug_aranges
                0x000005a0       0x20 c:/altera/11.1/nios2eds/bin/gnu/h-i686-mingw32/bin/../lib/gcc/nios2-elf/4.1.2/mhw-mulx\libgcc.a(_ge_df.o)
 .debug_aranges
                0x000005c0       0x20 c:/altera/11.1/nios2eds/bin/gnu/h-i686-mingw32/bin/../lib/gcc/nios2-elf/4.1.2/mhw-mulx\libgcc.a(_si_to_df.o)
 .debug_aranges
                0x000005e0       0x20 c:/altera/11.1/nios2eds/bin/gnu/h-i686-mingw32/bin/../lib/gcc/nios2-elf/4.1.2/mhw-mulx\libgcc.a(_df_to_si.o)
 .debug_aranges
                0x00000600       0x20 c:/altera/11.1/nios2eds/bin/gnu/h-i686-mingw32/bin/../lib/gcc/nios2-elf/4.1.2/mhw-mulx\libgcc.a(_make_df.o)
 .debug_aranges
                0x00000620       0x20 c:/altera/11.1/nios2eds/bin/gnu/h-i686-mingw32/bin/../lib/gcc/nios2-elf/4.1.2/mhw-mulx\libgcc.a(_df_to_sf.o)
 .debug_aranges
                0x00000640       0x20 c:/altera/11.1/nios2eds/bin/gnu/h-i686-mingw32/bin/../lib/gcc/nios2-elf/4.1.2/mhw-mulx\libgcc.a(_usi_to_df.o)
 .debug_aranges
                0x00000660       0x20 c:/altera/11.1/nios2eds/bin/gnu/h-i686-mingw32/bin/../lib/gcc/nios2-elf/4.1.2/mhw-mulx\libgcc.a(lib2-divmod.o)
 .debug_aranges
                0x00000680       0x20 c:/altera/11.1/nios2eds/bin/gnu/h-i686-mingw32/bin/../lib/gcc/nios2-elf/4.1.2/mhw-mulx\libgcc.a(_clzsi2.o)
 .debug_aranges
                0x000006a0       0x20 c:/altera/11.1/nios2eds/bin/gnu/h-i686-mingw32/bin/../lib/gcc/nios2-elf/4.1.2/mhw-mulx\libgcc.a(_pack_sf.o)
 .debug_aranges
                0x000006c0       0x20 c:/altera/11.1/nios2eds/bin/gnu/h-i686-mingw32/bin/../lib/gcc/nios2-elf/4.1.2/mhw-mulx\libgcc.a(_unpack_sf.o)
 .debug_aranges
                0x000006e0       0x20 c:/altera/11.1/nios2eds/bin/gnu/h-i686-mingw32/bin/../lib/gcc/nios2-elf/4.1.2/mhw-mulx\libgcc.a(_fpcmp_parts_sf.o)
 .debug_aranges
                0x00000700       0x20 c:/altera/11.1/nios2eds/bin/gnu/h-i686-mingw32/bin/../lib/gcc/nios2-elf/4.1.2/mhw-mulx\libgcc.a(_make_sf.o)
 .debug_aranges
                0x00000720       0x20 c:/altera/11.1/nios2eds/bin/gnu/h-i686-mingw32/bin/../lib/gcc/nios2-elf/4.1.2/mhw-mulx\libgcc.a(_pack_df.o)
 .debug_aranges
                0x00000740       0x20 c:/altera/11.1/nios2eds/bin/gnu/h-i686-mingw32/bin/../lib/gcc/nios2-elf/4.1.2/mhw-mulx\libgcc.a(_unpack_df.o)
 .debug_aranges
                0x00000760       0x20 c:/altera/11.1/nios2eds/bin/gnu/h-i686-mingw32/bin/../lib/gcc/nios2-elf/4.1.2/mhw-mulx\libgcc.a(_fpcmp_parts_df.o)
 .debug_aranges
                0x00000780       0x20 c:/altera/11.1/nios2eds/bin/gnu/h-i686-mingw32/bin/../lib/gcc/nios2-elf/4.1.2/../../../../nios2-elf/lib/mhw-mulx\libc.a(lib_a-printf.o)
 .debug_aranges
                0x000007a0       0x20 c:/altera/11.1/nios2eds/bin/gnu/h-i686-mingw32/bin/../lib/gcc/nios2-elf/4.1.2/../../../../nios2-elf/lib/mhw-mulx\libc.a(lib_a-putchar.o)
 .debug_aranges
                0x000007c0       0x20 c:/altera/11.1/nios2eds/bin/gnu/h-i686-mingw32/bin/../lib/gcc/nios2-elf/4.1.2/../../../../nios2-elf/lib/mhw-mulx\libc.a(lib_a-puts.o)
 .debug_aranges
                0x000007e0       0x20 c:/altera/11.1/nios2eds/bin/gnu/h-i686-mingw32/bin/../lib/gcc/nios2-elf/4.1.2/../../../../nios2-elf/lib/mhw-mulx\libc.a(lib_a-strlen.o)
 .debug_aranges
                0x00000800       0x20 c:/altera/11.1/nios2eds/bin/gnu/h-i686-mingw32/bin/../lib/gcc/nios2-elf/4.1.2/../../../../nios2-elf/lib/mhw-mulx\libc.a(lib_a-strncmp.o)
 .debug_aranges
                0x00000820       0x20 c:/altera/11.1/nios2eds/bin/gnu/h-i686-mingw32/bin/../lib/gcc/nios2-elf/4.1.2/../../../../nios2-elf/lib/mhw-mulx\libc.a(lib_a-vfprintf.o)
 .debug_aranges
                0x00000840       0x20 c:/altera/11.1/nios2eds/bin/gnu/h-i686-mingw32/bin/../lib/gcc/nios2-elf/4.1.2/../../../../nios2-elf/lib/mhw-mulx\libc.a(lib_a-wsetup.o)
 .debug_aranges
                0x00000860       0x20 c:/altera/11.1/nios2eds/bin/gnu/h-i686-mingw32/bin/../lib/gcc/nios2-elf/4.1.2/../../../../nios2-elf/lib/mhw-mulx\libc.a(lib_a-dtoa.o)
 .debug_aranges
                0x00000880       0x20 c:/altera/11.1/nios2eds/bin/gnu/h-i686-mingw32/bin/../lib/gcc/nios2-elf/4.1.2/../../../../nios2-elf/lib/mhw-mulx\libc.a(lib_a-fflush.o)
 .debug_aranges
                0x000008a0       0x20 c:/altera/11.1/nios2eds/bin/gnu/h-i686-mingw32/bin/../lib/gcc/nios2-elf/4.1.2/../../../../nios2-elf/lib/mhw-mulx\libc.a(lib_a-findfp.o)
 .debug_aranges
                0x000008c0       0x20 c:/altera/11.1/nios2eds/bin/gnu/h-i686-mingw32/bin/../lib/gcc/nios2-elf/4.1.2/../../../../nios2-elf/lib/mhw-mulx\libc.a(lib_a-freer.o)
 .debug_aranges
                0x000008e0       0x20 c:/altera/11.1/nios2eds/bin/gnu/h-i686-mingw32/bin/../lib/gcc/nios2-elf/4.1.2/../../../../nios2-elf/lib/mhw-mulx\libc.a(lib_a-fvwrite.o)
 .debug_aranges
                0x00000900       0x20 c:/altera/11.1/nios2eds/bin/gnu/h-i686-mingw32/bin/../lib/gcc/nios2-elf/4.1.2/../../../../nios2-elf/lib/mhw-mulx\libc.a(lib_a-fwalk.o)
 .debug_aranges
                0x00000920       0x20 c:/altera/11.1/nios2eds/bin/gnu/h-i686-mingw32/bin/../lib/gcc/nios2-elf/4.1.2/../../../../nios2-elf/lib/mhw-mulx\libc.a(lib_a-locale.o)
 .debug_aranges
                0x00000940       0x20 c:/altera/11.1/nios2eds/bin/gnu/h-i686-mingw32/bin/../lib/gcc/nios2-elf/4.1.2/../../../../nios2-elf/lib/mhw-mulx\libc.a(lib_a-makebuf.o)
 .debug_aranges
                0x00000960       0x20 c:/altera/11.1/nios2eds/bin/gnu/h-i686-mingw32/bin/../lib/gcc/nios2-elf/4.1.2/../../../../nios2-elf/lib/mhw-mulx\libc.a(lib_a-mallocr.o)
 .debug_aranges
                0x00000980       0x20 c:/altera/11.1/nios2eds/bin/gnu/h-i686-mingw32/bin/../lib/gcc/nios2-elf/4.1.2/../../../../nios2-elf/lib/mhw-mulx\libc.a(lib_a-memchr.o)
 .debug_aranges
                0x000009a0       0x20 c:/altera/11.1/nios2eds/bin/gnu/h-i686-mingw32/bin/../lib/gcc/nios2-elf/4.1.2/../../../../nios2-elf/lib/mhw-mulx\libc.a(lib_a-memcpy.o)
 .debug_aranges
                0x000009c0       0x20 c:/altera/11.1/nios2eds/bin/gnu/h-i686-mingw32/bin/../lib/gcc/nios2-elf/4.1.2/../../../../nios2-elf/lib/mhw-mulx\libc.a(lib_a-memmove.o)
 .debug_aranges
                0x000009e0       0x20 c:/altera/11.1/nios2eds/bin/gnu/h-i686-mingw32/bin/../lib/gcc/nios2-elf/4.1.2/../../../../nios2-elf/lib/mhw-mulx\libc.a(lib_a-memset.o)
 .debug_aranges
                0x00000a00       0x20 c:/altera/11.1/nios2eds/bin/gnu/h-i686-mingw32/bin/../lib/gcc/nios2-elf/4.1.2/../../../../nios2-elf/lib/mhw-mulx\libc.a(lib_a-mprec.o)
 .debug_aranges
                0x00000a20       0x20 c:/altera/11.1/nios2eds/bin/gnu/h-i686-mingw32/bin/../lib/gcc/nios2-elf/4.1.2/../../../../nios2-elf/lib/mhw-mulx\libc.a(lib_a-putc.o)
 .debug_aranges
                0x00000a40       0x20 c:/altera/11.1/nios2eds/bin/gnu/h-i686-mingw32/bin/../lib/gcc/nios2-elf/4.1.2/../../../../nios2-elf/lib/mhw-mulx\libc.a(lib_a-reallocr.o)
 .debug_aranges
                0x00000a60       0x20 c:/altera/11.1/nios2eds/bin/gnu/h-i686-mingw32/bin/../lib/gcc/nios2-elf/4.1.2/../../../../nios2-elf/lib/mhw-mulx\libc.a(lib_a-s_isinfd.o)
 .debug_aranges
                0x00000a80       0x20 c:/altera/11.1/nios2eds/bin/gnu/h-i686-mingw32/bin/../lib/gcc/nios2-elf/4.1.2/../../../../nios2-elf/lib/mhw-mulx\libc.a(lib_a-s_isnand.o)
 .debug_aranges
                0x00000aa0       0x20 c:/altera/11.1/nios2eds/bin/gnu/h-i686-mingw32/bin/../lib/gcc/nios2-elf/4.1.2/../../../../nios2-elf/lib/mhw-mulx\libc.a(lib_a-sbrkr.o)
 .debug_aranges
                0x00000ac0       0x20 c:/altera/11.1/nios2eds/bin/gnu/h-i686-mingw32/bin/../lib/gcc/nios2-elf/4.1.2/../../../../nios2-elf/lib/mhw-mulx\libc.a(lib_a-stdio.o)
 .debug_aranges
                0x00000ae0       0x20 c:/altera/11.1/nios2eds/bin/gnu/h-i686-mingw32/bin/../lib/gcc/nios2-elf/4.1.2/../../../../nios2-elf/lib/mhw-mulx\libc.a(lib_a-strcmp.o)
 .debug_aranges
                0x00000b00       0x20 c:/altera/11.1/nios2eds/bin/gnu/h-i686-mingw32/bin/../lib/gcc/nios2-elf/4.1.2/../../../../nios2-elf/lib/mhw-mulx\libc.a(lib_a-wbuf.o)
 .debug_aranges
                0x00000b20       0x20 c:/altera/11.1/nios2eds/bin/gnu/h-i686-mingw32/bin/../lib/gcc/nios2-elf/4.1.2/../../../../nios2-elf/lib/mhw-mulx\libc.a(lib_a-writer.o)
 .debug_aranges
                0x00000b40       0x20 c:/altera/11.1/nios2eds/bin/gnu/h-i686-mingw32/bin/../lib/gcc/nios2-elf/4.1.2/../../../../nios2-elf/lib/mhw-mulx\libc.a(lib_a-callocr.o)
 .debug_aranges
                0x00000b60       0x20 c:/altera/11.1/nios2eds/bin/gnu/h-i686-mingw32/bin/../lib/gcc/nios2-elf/4.1.2/../../../../nios2-elf/lib/mhw-mulx\libc.a(lib_a-closer.o)
 .debug_aranges
                0x00000b80       0x20 c:/altera/11.1/nios2eds/bin/gnu/h-i686-mingw32/bin/../lib/gcc/nios2-elf/4.1.2/../../../../nios2-elf/lib/mhw-mulx\libc.a(lib_a-fclose.o)
 .debug_aranges
                0x00000ba0       0x20 c:/altera/11.1/nios2eds/bin/gnu/h-i686-mingw32/bin/../lib/gcc/nios2-elf/4.1.2/../../../../nios2-elf/lib/mhw-mulx\libc.a(lib_a-fstatr.o)
 .debug_aranges
                0x00000bc0       0x20 c:/altera/11.1/nios2eds/bin/gnu/h-i686-mingw32/bin/../lib/gcc/nios2-elf/4.1.2/../../../../nios2-elf/lib/mhw-mulx\libc.a(lib_a-isattyr.o)
 .debug_aranges
                0x00000be0       0x20 c:/altera/11.1/nios2eds/bin/gnu/h-i686-mingw32/bin/../lib/gcc/nios2-elf/4.1.2/../../../../nios2-elf/lib/mhw-mulx\libc.a(lib_a-lseekr.o)
 .debug_aranges
                0x00000c00       0x20 c:/altera/11.1/nios2eds/bin/gnu/h-i686-mingw32/bin/../lib/gcc/nios2-elf/4.1.2/../../../../nios2-elf/lib/mhw-mulx\libc.a(lib_a-readr.o)
 .debug_aranges
                0x00000c20       0x20 c:/altera/11.1/nios2eds/bin/gnu/h-i686-mingw32/bin/../lib/gcc/nios2-elf/4.1.2/mhw-mulx\libgcc.a(_udivdi3.o)
 .debug_aranges
                0x00000c40       0x20 c:/altera/11.1/nios2eds/bin/gnu/h-i686-mingw32/bin/../lib/gcc/nios2-elf/4.1.2/mhw-mulx\libgcc.a(_umoddi3.o)
 .debug_aranges
                0x00000c60       0x20 c:/altera/11.1/nios2eds/bin/gnu/h-i686-mingw32/bin/../lib/gcc/nios2-elf/4.1.2/mhw-mulx\libgcc.a(_eq_df.o)
 .debug_aranges
                0x00000c80       0x20 c:/altera/11.1/nios2eds/bin/gnu/h-i686-mingw32/bin/../lib/gcc/nios2-elf/4.1.2/mhw-mulx\libgcc.a(_ne_df.o)
 .debug_aranges
                0x00000ca0       0x20 c:/altera/11.1/nios2eds/bin/gnu/h-i686-mingw32/bin/../lib/gcc/nios2-elf/4.1.2/mhw-mulx\libgcc.a(_lt_df.o)
 .debug_aranges
                0x00000cc0       0x30 ../GIGLE10_bsp\libucosii_bsp.a(alt_irq_entry.o)
 .debug_aranges
                0x00000cf0       0x38 ../GIGLE10_bsp\libucosii_bsp.a(alt_exception_entry.o)
 .debug_aranges
                0x00000d28       0x20 ../GIGLE10_bsp\libucosii_bsp.a(os_cpu_a.o)
 .debug_aranges
                0x00000d48       0x20 c:/altera/11.1/nios2eds/bin/gnu/h-i686-mingw32/bin/../lib/gcc/nios2-elf/4.1.2/../../../../nios2-elf/lib/mhw-mulx\libc.a(lib_a-exit.o)
 .debug_aranges
                0x00000d68       0x20 c:/altera/11.1/nios2eds/bin/gnu/h-i686-mingw32/bin/../lib/gcc/nios2-elf/4.1.2/../../../../nios2-elf/lib/mhw-mulx\libc.a(lib_a-memcmp.o)
 .debug_aranges
                0x00000d88       0x20 c:/altera/11.1/nios2eds/bin/gnu/h-i686-mingw32/bin/../lib/gcc/nios2-elf/4.1.2/../../../../nios2-elf/lib/mhw-mulx\libc.a(lib_a-__call_atexit.o)

.debug_pubnames
                0x00000000     0x5782
 *(.debug_pubnames)
 .debug_pubnames
                0x00000000      0x14f obj/Debug/alt_2_wire.o
 .debug_pubnames
                0x0000014f      0x25e obj/Debug/c37dot94.o
 .debug_pubnames
                0x000003ad       0x6a obj/Debug/c37dot94_task.o
 .debug_pubnames
                0x00000417      0x16e obj/Debug/c37dot94bert.o
 .debug_pubnames
                0x00000585       0x34 obj/Debug/cfg10_hw.o
 .debug_pubnames
                0x000005b9       0x3c obj/Debug/cfg_c37.o
 .debug_pubnames
                0x000005f5       0x38 obj/Debug/cfg_frame.o
 .debug_pubnames
                0x0000062d       0x31 obj/Debug/cfg_hw.o
 .debug_pubnames
                0x0000065e      0x2bc obj/Debug/config.o
 .debug_pubnames
                0x0000091a      0x310 obj/Debug/config10g.o
 .debug_pubnames
                0x00000c2a       0x34 obj/Debug/config_multistream.o
 .debug_pubnames
                0x00000c5e       0xfd obj/Debug/flash.o
 .debug_pubnames
                0x00000d5b       0xa8 obj/Debug/functions.o
 .debug_pubnames
                0x00000e03       0x31 obj/Debug/gui_link.o
 .debug_pubnames
                0x00000e34       0x97 obj/Debug/helpers.o
 .debug_pubnames
                0x00000ecb       0x2b obj/Debug/init.o
 .debug_pubnames
                0x00000ef6       0x62 obj/Debug/intr.o
 .debug_pubnames
                0x00000f58       0x2b obj/Debug/link_task.o
 .debug_pubnames
                0x00000f83       0x8f obj/Debug/loopback.o
 .debug_pubnames
                0x00001012     0x2f50 obj/Debug/main.o
 .debug_pubnames
                0x00003f62       0x8d obj/Debug/onesec_alrm.o
 .debug_pubnames
                0x00003fef      0x62a obj/Debug/packet10g.o
 .debug_pubnames
                0x00004619       0xcb obj/Debug/results.o
 .debug_pubnames
                0x000046e4      0x127 obj/Debug/sfp.o
 .debug_pubnames
                0x0000480b       0xba obj/Debug/status.o
 .debug_pubnames
                0x000048c5       0x30 obj/Debug/update_headers.o
 .debug_pubnames
                0x000048f5       0x1c c:/altera/11.1/nios2eds/bin/gnu/h-i686-mingw32/bin/../lib/gcc/nios2-elf/4.1.2/../../../../nios2-elf/lib/mhw-mulx\libm.a(lib_a-s_round.o)
 .debug_pubnames
                0x00004911       0x23 c:/altera/11.1/nios2eds/bin/gnu/h-i686-mingw32/bin/../lib/gcc/nios2-elf/4.1.2/mhw-mulx\libgcc.a(_fixunssfsi.o)
 .debug_pubnames
                0x00004934       0x23 c:/altera/11.1/nios2eds/bin/gnu/h-i686-mingw32/bin/../lib/gcc/nios2-elf/4.1.2/mhw-mulx\libgcc.a(_fixunsdfsi.o)
 .debug_pubnames
                0x00004957       0x23 c:/altera/11.1/nios2eds/bin/gnu/h-i686-mingw32/bin/../lib/gcc/nios2-elf/4.1.2/mhw-mulx\libgcc.a(_fixunsdfdi.o)
 .debug_pubnames
                0x0000497a       0x22 c:/altera/11.1/nios2eds/bin/gnu/h-i686-mingw32/bin/../lib/gcc/nios2-elf/4.1.2/mhw-mulx\libgcc.a(_floatdidf.o)
 .debug_pubnames
                0x0000499c       0x24 c:/altera/11.1/nios2eds/bin/gnu/h-i686-mingw32/bin/../lib/gcc/nios2-elf/4.1.2/mhw-mulx\libgcc.a(_floatundidf.o)
 .debug_pubnames
                0x000049c0       0x1f c:/altera/11.1/nios2eds/bin/gnu/h-i686-mingw32/bin/../lib/gcc/nios2-elf/4.1.2/mhw-mulx\libgcc.a(_divdi3.o)
 .debug_pubnames
                0x000049df       0x2c c:/altera/11.1/nios2eds/bin/gnu/h-i686-mingw32/bin/../lib/gcc/nios2-elf/4.1.2/mhw-mulx\libgcc.a(_addsub_sf.o)
 .debug_pubnames
                0x00004a0b       0x1f c:/altera/11.1/nios2eds/bin/gnu/h-i686-mingw32/bin/../lib/gcc/nios2-elf/4.1.2/mhw-mulx\libgcc.a(_mul_sf.o)
 .debug_pubnames
                0x00004a2a       0x1e c:/altera/11.1/nios2eds/bin/gnu/h-i686-mingw32/bin/../lib/gcc/nios2-elf/4.1.2/mhw-mulx\libgcc.a(_eq_sf.o)
 .debug_pubnames
                0x00004a48       0x1e c:/altera/11.1/nios2eds/bin/gnu/h-i686-mingw32/bin/../lib/gcc/nios2-elf/4.1.2/mhw-mulx\libgcc.a(_ge_sf.o)
 .debug_pubnames
                0x00004a66       0x20 c:/altera/11.1/nios2eds/bin/gnu/h-i686-mingw32/bin/../lib/gcc/nios2-elf/4.1.2/mhw-mulx\libgcc.a(_sf_to_si.o)
 .debug_pubnames
                0x00004a86       0x24 c:/altera/11.1/nios2eds/bin/gnu/h-i686-mingw32/bin/../lib/gcc/nios2-elf/4.1.2/mhw-mulx\libgcc.a(_sf_to_df.o)
 .debug_pubnames
                0x00004aaa       0x22 c:/altera/11.1/nios2eds/bin/gnu/h-i686-mingw32/bin/../lib/gcc/nios2-elf/4.1.2/mhw-mulx\libgcc.a(_thenan_sf.o)
 .debug_pubnames
                0x00004acc       0x24 c:/altera/11.1/nios2eds/bin/gnu/h-i686-mingw32/bin/../lib/gcc/nios2-elf/4.1.2/mhw-mulx\libgcc.a(_usi_to_sf.o)
 .debug_pubnames
                0x00004af0       0x2c c:/altera/11.1/nios2eds/bin/gnu/h-i686-mingw32/bin/../lib/gcc/nios2-elf/4.1.2/mhw-mulx\libgcc.a(_addsub_df.o)
 .debug_pubnames
                0x00004b1c       0x1f c:/altera/11.1/nios2eds/bin/gnu/h-i686-mingw32/bin/../lib/gcc/nios2-elf/4.1.2/mhw-mulx\libgcc.a(_mul_df.o)
 .debug_pubnames
                0x00004b3b       0x1f c:/altera/11.1/nios2eds/bin/gnu/h-i686-mingw32/bin/../lib/gcc/nios2-elf/4.1.2/mhw-mulx\libgcc.a(_div_df.o)
 .debug_pubnames
                0x00004b5a       0x1e c:/altera/11.1/nios2eds/bin/gnu/h-i686-mingw32/bin/../lib/gcc/nios2-elf/4.1.2/mhw-mulx\libgcc.a(_gt_df.o)
 .debug_pubnames
                0x00004b78       0x1e c:/altera/11.1/nios2eds/bin/gnu/h-i686-mingw32/bin/../lib/gcc/nios2-elf/4.1.2/mhw-mulx\libgcc.a(_ge_df.o)
 .debug_pubnames
                0x00004b96       0x22 c:/altera/11.1/nios2eds/bin/gnu/h-i686-mingw32/bin/../lib/gcc/nios2-elf/4.1.2/mhw-mulx\libgcc.a(_si_to_df.o)
 .debug_pubnames
                0x00004bb8       0x20 c:/altera/11.1/nios2eds/bin/gnu/h-i686-mingw32/bin/../lib/gcc/nios2-elf/4.1.2/mhw-mulx\libgcc.a(_df_to_si.o)
 .debug_pubnames
                0x00004bd8       0x20 c:/altera/11.1/nios2eds/bin/gnu/h-i686-mingw32/bin/../lib/gcc/nios2-elf/4.1.2/mhw-mulx\libgcc.a(_make_df.o)
 .debug_pubnames
                0x00004bf8       0x23 c:/altera/11.1/nios2eds/bin/gnu/h-i686-mingw32/bin/../lib/gcc/nios2-elf/4.1.2/mhw-mulx\libgcc.a(_df_to_sf.o)
 .debug_pubnames
                0x00004c1b       0x22 c:/altera/11.1/nios2eds/bin/gnu/h-i686-mingw32/bin/../lib/gcc/nios2-elf/4.1.2/mhw-mulx\libgcc.a(_thenan_df.o)
 .debug_pubnames
                0x00004c3d       0x24 c:/altera/11.1/nios2eds/bin/gnu/h-i686-mingw32/bin/../lib/gcc/nios2-elf/4.1.2/mhw-mulx\libgcc.a(_usi_to_df.o)
 .debug_pubnames
                0x00004c61       0x48 c:/altera/11.1/nios2eds/bin/gnu/h-i686-mingw32/bin/../lib/gcc/nios2-elf/4.1.2/mhw-mulx\libgcc.a(lib2-divmod.o)
 .debug_pubnames
                0x00004ca9       0x20 c:/altera/11.1/nios2eds/bin/gnu/h-i686-mingw32/bin/../lib/gcc/nios2-elf/4.1.2/mhw-mulx\libgcc.a(_clz.o)
 .debug_pubnames
                0x00004cc9       0x1f c:/altera/11.1/nios2eds/bin/gnu/h-i686-mingw32/bin/../lib/gcc/nios2-elf/4.1.2/mhw-mulx\libgcc.a(_clzsi2.o)
 .debug_pubnames
                0x00004ce8       0x1f c:/altera/11.1/nios2eds/bin/gnu/h-i686-mingw32/bin/../lib/gcc/nios2-elf/4.1.2/mhw-mulx\libgcc.a(_pack_sf.o)
 .debug_pubnames
                0x00004d07       0x21 c:/altera/11.1/nios2eds/bin/gnu/h-i686-mingw32/bin/../lib/gcc/nios2-elf/4.1.2/mhw-mulx\libgcc.a(_unpack_sf.o)
 .debug_pubnames
                0x00004d28       0x26 c:/altera/11.1/nios2eds/bin/gnu/h-i686-mingw32/bin/../lib/gcc/nios2-elf/4.1.2/mhw-mulx\libgcc.a(_fpcmp_parts_sf.o)
 .debug_pubnames
                0x00004d4e       0x20 c:/altera/11.1/nios2eds/bin/gnu/h-i686-mingw32/bin/../lib/gcc/nios2-elf/4.1.2/mhw-mulx\libgcc.a(_make_sf.o)
 .debug_pubnames
                0x00004d6e       0x1f c:/altera/11.1/nios2eds/bin/gnu/h-i686-mingw32/bin/../lib/gcc/nios2-elf/4.1.2/mhw-mulx\libgcc.a(_pack_df.o)
 .debug_pubnames
                0x00004d8d       0x21 c:/altera/11.1/nios2eds/bin/gnu/h-i686-mingw32/bin/../lib/gcc/nios2-elf/4.1.2/mhw-mulx\libgcc.a(_unpack_df.o)
 .debug_pubnames
                0x00004dae       0x26 c:/altera/11.1/nios2eds/bin/gnu/h-i686-mingw32/bin/../lib/gcc/nios2-elf/4.1.2/mhw-mulx\libgcc.a(_fpcmp_parts_df.o)
 .debug_pubnames
                0x00004dd4       0x2b c:/altera/11.1/nios2eds/bin/gnu/h-i686-mingw32/bin/../lib/gcc/nios2-elf/4.1.2/../../../../nios2-elf/lib/mhw-mulx\libc.a(lib_a-printf.o)
 .debug_pubnames
                0x00004dff       0x2d c:/altera/11.1/nios2eds/bin/gnu/h-i686-mingw32/bin/../lib/gcc/nios2-elf/4.1.2/../../../../nios2-elf/lib/mhw-mulx\libc.a(lib_a-putchar.o)
 .debug_pubnames
                0x00004e2c       0x27 c:/altera/11.1/nios2eds/bin/gnu/h-i686-mingw32/bin/../lib/gcc/nios2-elf/4.1.2/../../../../nios2-elf/lib/mhw-mulx\libc.a(lib_a-puts.o)
 .debug_pubnames
                0x00004e53       0x1d c:/altera/11.1/nios2eds/bin/gnu/h-i686-mingw32/bin/../lib/gcc/nios2-elf/4.1.2/../../../../nios2-elf/lib/mhw-mulx\libc.a(lib_a-strlen.o)
 .debug_pubnames
                0x00004e70       0x1e c:/altera/11.1/nios2eds/bin/gnu/h-i686-mingw32/bin/../lib/gcc/nios2-elf/4.1.2/../../../../nios2-elf/lib/mhw-mulx\libc.a(lib_a-strncmp.o)
 .debug_pubnames
                0x00004e8e       0x45 c:/altera/11.1/nios2eds/bin/gnu/h-i686-mingw32/bin/../lib/gcc/nios2-elf/4.1.2/../../../../nios2-elf/lib/mhw-mulx\libc.a(lib_a-vfprintf.o)
 .debug_pubnames
                0x00004ed3       0x22 c:/altera/11.1/nios2eds/bin/gnu/h-i686-mingw32/bin/../lib/gcc/nios2-elf/4.1.2/../../../../nios2-elf/lib/mhw-mulx\libc.a(lib_a-wsetup.o)
 .debug_pubnames
                0x00004ef5       0x1e c:/altera/11.1/nios2eds/bin/gnu/h-i686-mingw32/bin/../lib/gcc/nios2-elf/4.1.2/../../../../nios2-elf/lib/mhw-mulx\libc.a(lib_a-dtoa.o)
 .debug_pubnames
                0x00004f13       0x2b c:/altera/11.1/nios2eds/bin/gnu/h-i686-mingw32/bin/../lib/gcc/nios2-elf/4.1.2/../../../../nios2-elf/lib/mhw-mulx\libc.a(lib_a-fflush.o)
 .debug_pubnames
                0x00004f3e       0xdb c:/altera/11.1/nios2eds/bin/gnu/h-i686-mingw32/bin/../lib/gcc/nios2-elf/4.1.2/../../../../nios2-elf/lib/mhw-mulx\libc.a(lib_a-findfp.o)
 .debug_pubnames
                0x00005019       0x31 c:/altera/11.1/nios2eds/bin/gnu/h-i686-mingw32/bin/../lib/gcc/nios2-elf/4.1.2/../../../../nios2-elf/lib/mhw-mulx\libc.a(lib_a-freer.o)
 .debug_pubnames
                0x0000504a       0x23 c:/altera/11.1/nios2eds/bin/gnu/h-i686-mingw32/bin/../lib/gcc/nios2-elf/4.1.2/../../../../nios2-elf/lib/mhw-mulx\libc.a(lib_a-fvwrite.o)
 .debug_pubnames
                0x0000506d       0x2e c:/altera/11.1/nios2eds/bin/gnu/h-i686-mingw32/bin/../lib/gcc/nios2-elf/4.1.2/../../../../nios2-elf/lib/mhw-mulx\libc.a(lib_a-fwalk.o)
 .debug_pubnames
                0x0000509b       0x39 c:/altera/11.1/nios2eds/bin/gnu/h-i686-mingw32/bin/../lib/gcc/nios2-elf/4.1.2/../../../../nios2-elf/lib/mhw-mulx\libc.a(lib_a-impure.o)
 .debug_pubnames
                0x000050d4       0xc3 c:/altera/11.1/nios2eds/bin/gnu/h-i686-mingw32/bin/../lib/gcc/nios2-elf/4.1.2/../../../../nios2-elf/lib/mhw-mulx\libc.a(lib_a-locale.o)
 .debug_pubnames
                0x00005197       0x23 c:/altera/11.1/nios2eds/bin/gnu/h-i686-mingw32/bin/../lib/gcc/nios2-elf/4.1.2/../../../../nios2-elf/lib/mhw-mulx\libc.a(lib_a-makebuf.o)
 .debug_pubnames
                0x000051ba       0xce c:/altera/11.1/nios2eds/bin/gnu/h-i686-mingw32/bin/../lib/gcc/nios2-elf/4.1.2/../../../../nios2-elf/lib/mhw-mulx\libc.a(lib_a-mallocr.o)
 .debug_pubnames
                0x00005288       0x1d c:/altera/11.1/nios2eds/bin/gnu/h-i686-mingw32/bin/../lib/gcc/nios2-elf/4.1.2/../../../../nios2-elf/lib/mhw-mulx\libc.a(lib_a-memchr.o)
 .debug_pubnames
                0x000052a5       0x1d c:/altera/11.1/nios2eds/bin/gnu/h-i686-mingw32/bin/../lib/gcc/nios2-elf/4.1.2/../../../../nios2-elf/lib/mhw-mulx\libc.a(lib_a-memcpy.o)
 .debug_pubnames
                0x000052c2       0x1e c:/altera/11.1/nios2eds/bin/gnu/h-i686-mingw32/bin/../lib/gcc/nios2-elf/4.1.2/../../../../nios2-elf/lib/mhw-mulx\libc.a(lib_a-memmove.o)
 .debug_pubnames
                0x000052e0       0x1d c:/altera/11.1/nios2eds/bin/gnu/h-i686-mingw32/bin/../lib/gcc/nios2-elf/4.1.2/../../../../nios2-elf/lib/mhw-mulx\libc.a(lib_a-memset.o)
 .debug_pubnames
                0x000052fd      0x13a c:/altera/11.1/nios2eds/bin/gnu/h-i686-mingw32/bin/../lib/gcc/nios2-elf/4.1.2/../../../../nios2-elf/lib/mhw-mulx\libc.a(lib_a-mprec.o)
 .debug_pubnames
                0x00005437       0x27 c:/altera/11.1/nios2eds/bin/gnu/h-i686-mingw32/bin/../lib/gcc/nios2-elf/4.1.2/../../../../nios2-elf/lib/mhw-mulx\libc.a(lib_a-putc.o)
 .debug_pubnames
                0x0000545e       0x21 c:/altera/11.1/nios2eds/bin/gnu/h-i686-mingw32/bin/../lib/gcc/nios2-elf/4.1.2/../../../../nios2-elf/lib/mhw-mulx\libc.a(lib_a-reallocr.o)
 .debug_pubnames
                0x0000547f       0x1f c:/altera/11.1/nios2eds/bin/gnu/h-i686-mingw32/bin/../lib/gcc/nios2-elf/4.1.2/../../../../nios2-elf/lib/mhw-mulx\libc.a(lib_a-s_isinfd.o)
 .debug_pubnames
                0x0000549e       0x1f c:/altera/11.1/nios2eds/bin/gnu/h-i686-mingw32/bin/../lib/gcc/nios2-elf/4.1.2/../../../../nios2-elf/lib/mhw-mulx\libc.a(lib_a-s_isnand.o)
 .debug_pubnames
                0x000054bd       0x1e c:/altera/11.1/nios2eds/bin/gnu/h-i686-mingw32/bin/../lib/gcc/nios2-elf/4.1.2/../../../../nios2-elf/lib/mhw-mulx\libc.a(lib_a-sbrkr.o)
 .debug_pubnames
                0x000054db       0x44 c:/altera/11.1/nios2eds/bin/gnu/h-i686-mingw32/bin/../lib/gcc/nios2-elf/4.1.2/../../../../nios2-elf/lib/mhw-mulx\libc.a(lib_a-stdio.o)
 .debug_pubnames
                0x0000551f       0x1d c:/altera/11.1/nios2eds/bin/gnu/h-i686-mingw32/bin/../lib/gcc/nios2-elf/4.1.2/../../../../nios2-elf/lib/mhw-mulx\libc.a(lib_a-strcmp.o)
 .debug_pubnames
                0x0000553c       0x2c c:/altera/11.1/nios2eds/bin/gnu/h-i686-mingw32/bin/../lib/gcc/nios2-elf/4.1.2/../../../../nios2-elf/lib/mhw-mulx\libc.a(lib_a-wbuf.o)
 .debug_pubnames
                0x00005568       0x1f c:/altera/11.1/nios2eds/bin/gnu/h-i686-mingw32/bin/../lib/gcc/nios2-elf/4.1.2/../../../../nios2-elf/lib/mhw-mulx\libc.a(lib_a-writer.o)
 .debug_pubnames
                0x00005587       0x20 c:/altera/11.1/nios2eds/bin/gnu/h-i686-mingw32/bin/../lib/gcc/nios2-elf/4.1.2/../../../../nios2-elf/lib/mhw-mulx\libc.a(lib_a-callocr.o)
 .debug_pubnames
                0x000055a7       0x1f c:/altera/11.1/nios2eds/bin/gnu/h-i686-mingw32/bin/../lib/gcc/nios2-elf/4.1.2/../../../../nios2-elf/lib/mhw-mulx\libc.a(lib_a-closer.o)
 .debug_pubnames
                0x000055c6       0x2b c:/altera/11.1/nios2eds/bin/gnu/h-i686-mingw32/bin/../lib/gcc/nios2-elf/4.1.2/../../../../nios2-elf/lib/mhw-mulx\libc.a(lib_a-fclose.o)
 .debug_pubnames
                0x000055f1       0x1f c:/altera/11.1/nios2eds/bin/gnu/h-i686-mingw32/bin/../lib/gcc/nios2-elf/4.1.2/../../../../nios2-elf/lib/mhw-mulx\libc.a(lib_a-fstatr.o)
 .debug_pubnames
                0x00005610       0x1c c:/altera/11.1/nios2eds/bin/gnu/h-i686-mingw32/bin/../lib/gcc/nios2-elf/4.1.2/../../../../nios2-elf/lib/mhw-mulx\libc.a(lib_a-int_errno.o)
 .debug_pubnames
                0x0000562c       0x20 c:/altera/11.1/nios2eds/bin/gnu/h-i686-mingw32/bin/../lib/gcc/nios2-elf/4.1.2/../../../../nios2-elf/lib/mhw-mulx\libc.a(lib_a-isattyr.o)
 .debug_pubnames
                0x0000564c       0x1f c:/altera/11.1/nios2eds/bin/gnu/h-i686-mingw32/bin/../lib/gcc/nios2-elf/4.1.2/../../../../nios2-elf/lib/mhw-mulx\libc.a(lib_a-lseekr.o)
 .debug_pubnames
                0x0000566b       0x1e c:/altera/11.1/nios2eds/bin/gnu/h-i686-mingw32/bin/../lib/gcc/nios2-elf/4.1.2/../../../../nios2-elf/lib/mhw-mulx\libc.a(lib_a-readr.o)
 .debug_pubnames
                0x00005689       0x20 c:/altera/11.1/nios2eds/bin/gnu/h-i686-mingw32/bin/../lib/gcc/nios2-elf/4.1.2/mhw-mulx\libgcc.a(_udivdi3.o)
 .debug_pubnames
                0x000056a9       0x20 c:/altera/11.1/nios2eds/bin/gnu/h-i686-mingw32/bin/../lib/gcc/nios2-elf/4.1.2/mhw-mulx\libgcc.a(_umoddi3.o)
 .debug_pubnames
                0x000056c9       0x1e c:/altera/11.1/nios2eds/bin/gnu/h-i686-mingw32/bin/../lib/gcc/nios2-elf/4.1.2/mhw-mulx\libgcc.a(_eq_df.o)
 .debug_pubnames
                0x000056e7       0x1e c:/altera/11.1/nios2eds/bin/gnu/h-i686-mingw32/bin/../lib/gcc/nios2-elf/4.1.2/mhw-mulx\libgcc.a(_ne_df.o)
 .debug_pubnames
                0x00005705       0x1e c:/altera/11.1/nios2eds/bin/gnu/h-i686-mingw32/bin/../lib/gcc/nios2-elf/4.1.2/mhw-mulx\libgcc.a(_lt_df.o)
 .debug_pubnames
                0x00005723       0x1b c:/altera/11.1/nios2eds/bin/gnu/h-i686-mingw32/bin/../lib/gcc/nios2-elf/4.1.2/../../../../nios2-elf/lib/mhw-mulx\libc.a(lib_a-exit.o)
 .debug_pubnames
                0x0000573e       0x1d c:/altera/11.1/nios2eds/bin/gnu/h-i686-mingw32/bin/../lib/gcc/nios2-elf/4.1.2/../../../../nios2-elf/lib/mhw-mulx\libc.a(lib_a-memcmp.o)
 .debug_pubnames
                0x0000575b       0x27 c:/altera/11.1/nios2eds/bin/gnu/h-i686-mingw32/bin/../lib/gcc/nios2-elf/4.1.2/../../../../nios2-elf/lib/mhw-mulx\libc.a(lib_a-__call_atexit.o)

.debug_info     0x00000000    0x27517
 *(.debug_info .gnu.linkonce.wi.*)
 .debug_info    0x00000000       0x5c ../GIGLE10_bsp/obj/HAL/src/crt0.o
 .debug_info    0x0000005c      0x45e obj/Debug/alt_2_wire.o
 .debug_info    0x000004ba      0x48e obj/Debug/c37dot94.o
 .debug_info    0x00000948      0x25c obj/Debug/c37dot94_task.o
 .debug_info    0x00000ba4      0x3c8 obj/Debug/c37dot94bert.o
 .debug_info    0x00000f6c      0x2ea obj/Debug/cfg10_hw.o
 .debug_info    0x00001256      0x221 obj/Debug/cfg_c37.o
 .debug_info    0x00001477       0xe4 obj/Debug/cfg_frame.o
 .debug_info    0x0000155b      0x40c obj/Debug/cfg_hw.o
 .debug_info    0x00001967      0x70d obj/Debug/config.o
 .debug_info    0x00002074      0x7a8 obj/Debug/config10g.o
 .debug_info    0x0000281c      0x158 obj/Debug/config_multistream.o
 .debug_info    0x00002974      0xafe obj/Debug/flash.o
 .debug_info    0x00003472      0x33a obj/Debug/functions.o
 .debug_info    0x000037ac      0x300 obj/Debug/gui_link.o
 .debug_info    0x00003aac      0x2d2 obj/Debug/helpers.o
 .debug_info    0x00003d7e      0x2de obj/Debug/init.o
 .debug_info    0x0000405c      0x65b obj/Debug/intr.o
 .debug_info    0x000046b7      0x11b obj/Debug/link_task.o
 .debug_info    0x000047d2      0x39e obj/Debug/loopback.o
 .debug_info    0x00004b70     0x2b51 obj/Debug/main.o
 .debug_info    0x000076c1      0x3be obj/Debug/onesec_alrm.o
 .debug_info    0x00007a7f     0x136d obj/Debug/packet10g.o
 .debug_info    0x00008dec      0x256 obj/Debug/results.o
 .debug_info    0x00009042      0x4d7 obj/Debug/sfp.o
 .debug_info    0x00009519      0x249 obj/Debug/status.o
 .debug_info    0x00009762     0x13c3 obj/Debug/update_headers.o
 .debug_info    0x0000ab25      0x1cc c:/altera/11.1/nios2eds/bin/gnu/h-i686-mingw32/bin/../lib/gcc/nios2-elf/4.1.2/../../../../nios2-elf/lib/mhw-mulx\libm.a(lib_a-s_round.o)
 .debug_info    0x0000acf1       0xce c:/altera/11.1/nios2eds/bin/gnu/h-i686-mingw32/bin/../lib/gcc/nios2-elf/4.1.2/mhw-mulx\libgcc.a(_fixunssfsi.o)
 .debug_info    0x0000adbf       0xce c:/altera/11.1/nios2eds/bin/gnu/h-i686-mingw32/bin/../lib/gcc/nios2-elf/4.1.2/mhw-mulx\libgcc.a(_fixunsdfsi.o)
 .debug_info    0x0000ae8d       0xfc c:/altera/11.1/nios2eds/bin/gnu/h-i686-mingw32/bin/../lib/gcc/nios2-elf/4.1.2/mhw-mulx\libgcc.a(_fixunsdfdi.o)
 .debug_info    0x0000af89       0xdc c:/altera/11.1/nios2eds/bin/gnu/h-i686-mingw32/bin/../lib/gcc/nios2-elf/4.1.2/mhw-mulx\libgcc.a(_floatdidf.o)
 .debug_info    0x0000b065       0xdc c:/altera/11.1/nios2eds/bin/gnu/h-i686-mingw32/bin/../lib/gcc/nios2-elf/4.1.2/mhw-mulx\libgcc.a(_floatundidf.o)
 .debug_info    0x0000b141      0x777 c:/altera/11.1/nios2eds/bin/gnu/h-i686-mingw32/bin/../lib/gcc/nios2-elf/4.1.2/mhw-mulx\libgcc.a(_divdi3.o)
 .debug_info    0x0000b8b8      0x47f c:/altera/11.1/nios2eds/bin/gnu/h-i686-mingw32/bin/../lib/gcc/nios2-elf/4.1.2/mhw-mulx\libgcc.a(_addsub_sf.o)
 .debug_info    0x0000bd37      0x3d1 c:/altera/11.1/nios2eds/bin/gnu/h-i686-mingw32/bin/../lib/gcc/nios2-elf/4.1.2/mhw-mulx\libgcc.a(_mul_sf.o)
 .debug_info    0x0000c108      0x290 c:/altera/11.1/nios2eds/bin/gnu/h-i686-mingw32/bin/../lib/gcc/nios2-elf/4.1.2/mhw-mulx\libgcc.a(_eq_sf.o)
 .debug_info    0x0000c398      0x290 c:/altera/11.1/nios2eds/bin/gnu/h-i686-mingw32/bin/../lib/gcc/nios2-elf/4.1.2/mhw-mulx\libgcc.a(_ge_sf.o)
 .debug_info    0x0000c628      0x2c1 c:/altera/11.1/nios2eds/bin/gnu/h-i686-mingw32/bin/../lib/gcc/nios2-elf/4.1.2/mhw-mulx\libgcc.a(_sf_to_si.o)
 .debug_info    0x0000c8e9      0x245 c:/altera/11.1/nios2eds/bin/gnu/h-i686-mingw32/bin/../lib/gcc/nios2-elf/4.1.2/mhw-mulx\libgcc.a(_sf_to_df.o)
 .debug_info    0x0000cb2e      0x164 c:/altera/11.1/nios2eds/bin/gnu/h-i686-mingw32/bin/../lib/gcc/nios2-elf/4.1.2/mhw-mulx\libgcc.a(_thenan_sf.o)
 .debug_info    0x0000cc92      0x213 c:/altera/11.1/nios2eds/bin/gnu/h-i686-mingw32/bin/../lib/gcc/nios2-elf/4.1.2/mhw-mulx\libgcc.a(_usi_to_sf.o)
 .debug_info    0x0000cea5      0x493 c:/altera/11.1/nios2eds/bin/gnu/h-i686-mingw32/bin/../lib/gcc/nios2-elf/4.1.2/mhw-mulx\libgcc.a(_addsub_df.o)
 .debug_info    0x0000d338      0x488 c:/altera/11.1/nios2eds/bin/gnu/h-i686-mingw32/bin/../lib/gcc/nios2-elf/4.1.2/mhw-mulx\libgcc.a(_mul_df.o)
 .debug_info    0x0000d7c0      0x39b c:/altera/11.1/nios2eds/bin/gnu/h-i686-mingw32/bin/../lib/gcc/nios2-elf/4.1.2/mhw-mulx\libgcc.a(_div_df.o)
 .debug_info    0x0000db5b      0x29d c:/altera/11.1/nios2eds/bin/gnu/h-i686-mingw32/bin/../lib/gcc/nios2-elf/4.1.2/mhw-mulx\libgcc.a(_gt_df.o)
 .debug_info    0x0000ddf8      0x29d c:/altera/11.1/nios2eds/bin/gnu/h-i686-mingw32/bin/../lib/gcc/nios2-elf/4.1.2/mhw-mulx\libgcc.a(_ge_df.o)
 .debug_info    0x0000e095      0x218 c:/altera/11.1/nios2eds/bin/gnu/h-i686-mingw32/bin/../lib/gcc/nios2-elf/4.1.2/mhw-mulx\libgcc.a(_si_to_df.o)
 .debug_info    0x0000e2ad      0x2cd c:/altera/11.1/nios2eds/bin/gnu/h-i686-mingw32/bin/../lib/gcc/nios2-elf/4.1.2/mhw-mulx\libgcc.a(_df_to_si.o)
 .debug_info    0x0000e57a      0x1d6 c:/altera/11.1/nios2eds/bin/gnu/h-i686-mingw32/bin/../lib/gcc/nios2-elf/4.1.2/mhw-mulx\libgcc.a(_make_df.o)
 .debug_info    0x0000e750      0x261 c:/altera/11.1/nios2eds/bin/gnu/h-i686-mingw32/bin/../lib/gcc/nios2-elf/4.1.2/mhw-mulx\libgcc.a(_df_to_sf.o)
 .debug_info    0x0000e9b1      0x164 c:/altera/11.1/nios2eds/bin/gnu/h-i686-mingw32/bin/../lib/gcc/nios2-elf/4.1.2/mhw-mulx\libgcc.a(_thenan_df.o)
 .debug_info    0x0000eb15      0x213 c:/altera/11.1/nios2eds/bin/gnu/h-i686-mingw32/bin/../lib/gcc/nios2-elf/4.1.2/mhw-mulx\libgcc.a(_usi_to_df.o)
 .debug_info    0x0000ed28      0x21c c:/altera/11.1/nios2eds/bin/gnu/h-i686-mingw32/bin/../lib/gcc/nios2-elf/4.1.2/mhw-mulx\libgcc.a(lib2-divmod.o)
 .debug_info    0x0000ef44       0xc9 c:/altera/11.1/nios2eds/bin/gnu/h-i686-mingw32/bin/../lib/gcc/nios2-elf/4.1.2/mhw-mulx\libgcc.a(_clz.o)
 .debug_info    0x0000f00d      0x130 c:/altera/11.1/nios2eds/bin/gnu/h-i686-mingw32/bin/../lib/gcc/nios2-elf/4.1.2/mhw-mulx\libgcc.a(_clzsi2.o)
 .debug_info    0x0000f13d      0x2f2 c:/altera/11.1/nios2eds/bin/gnu/h-i686-mingw32/bin/../lib/gcc/nios2-elf/4.1.2/mhw-mulx\libgcc.a(_pack_sf.o)
 .debug_info    0x0000f42f      0x25a c:/altera/11.1/nios2eds/bin/gnu/h-i686-mingw32/bin/../lib/gcc/nios2-elf/4.1.2/mhw-mulx\libgcc.a(_unpack_sf.o)
 .debug_info    0x0000f689      0x21f c:/altera/11.1/nios2eds/bin/gnu/h-i686-mingw32/bin/../lib/gcc/nios2-elf/4.1.2/mhw-mulx\libgcc.a(_fpcmp_parts_sf.o)
 .debug_info    0x0000f8a8      0x1d7 c:/altera/11.1/nios2eds/bin/gnu/h-i686-mingw32/bin/../lib/gcc/nios2-elf/4.1.2/mhw-mulx\libgcc.a(_make_sf.o)
 .debug_info    0x0000fa7f      0x2fc c:/altera/11.1/nios2eds/bin/gnu/h-i686-mingw32/bin/../lib/gcc/nios2-elf/4.1.2/mhw-mulx\libgcc.a(_pack_df.o)
 .debug_info    0x0000fd7b      0x268 c:/altera/11.1/nios2eds/bin/gnu/h-i686-mingw32/bin/../lib/gcc/nios2-elf/4.1.2/mhw-mulx\libgcc.a(_unpack_df.o)
 .debug_info    0x0000ffe3      0x21b c:/altera/11.1/nios2eds/bin/gnu/h-i686-mingw32/bin/../lib/gcc/nios2-elf/4.1.2/mhw-mulx\libgcc.a(_fpcmp_parts_df.o)
 .debug_info    0x000101fe      0x9d1 c:/altera/11.1/nios2eds/bin/gnu/h-i686-mingw32/bin/../lib/gcc/nios2-elf/4.1.2/../../../../nios2-elf/lib/mhw-mulx\libc.a(lib_a-printf.o)
 .debug_info    0x00010bcf      0x972 c:/altera/11.1/nios2eds/bin/gnu/h-i686-mingw32/bin/../lib/gcc/nios2-elf/4.1.2/../../../../nios2-elf/lib/mhw-mulx\libc.a(lib_a-putchar.o)
 .debug_info    0x00011541      0xa25 c:/altera/11.1/nios2eds/bin/gnu/h-i686-mingw32/bin/../lib/gcc/nios2-elf/4.1.2/../../../../nios2-elf/lib/mhw-mulx\libc.a(lib_a-puts.o)
 .debug_info    0x00011f66       0xdb c:/altera/11.1/nios2eds/bin/gnu/h-i686-mingw32/bin/../lib/gcc/nios2-elf/4.1.2/../../../../nios2-elf/lib/mhw-mulx\libc.a(lib_a-strlen.o)
 .debug_info    0x00012041       0xf5 c:/altera/11.1/nios2eds/bin/gnu/h-i686-mingw32/bin/../lib/gcc/nios2-elf/4.1.2/../../../../nios2-elf/lib/mhw-mulx\libc.a(lib_a-strncmp.o)
 .debug_info    0x00012136     0x10d5 c:/altera/11.1/nios2eds/bin/gnu/h-i686-mingw32/bin/../lib/gcc/nios2-elf/4.1.2/../../../../nios2-elf/lib/mhw-mulx\libc.a(lib_a-vfprintf.o)
 .debug_info    0x0001320b      0x95d c:/altera/11.1/nios2eds/bin/gnu/h-i686-mingw32/bin/../lib/gcc/nios2-elf/4.1.2/../../../../nios2-elf/lib/mhw-mulx\libc.a(lib_a-wsetup.o)
 .debug_info    0x00013b68      0xd6f c:/altera/11.1/nios2eds/bin/gnu/h-i686-mingw32/bin/../lib/gcc/nios2-elf/4.1.2/../../../../nios2-elf/lib/mhw-mulx\libc.a(lib_a-dtoa.o)
 .debug_info    0x000148d7      0x9fe c:/altera/11.1/nios2eds/bin/gnu/h-i686-mingw32/bin/../lib/gcc/nios2-elf/4.1.2/../../../../nios2-elf/lib/mhw-mulx\libc.a(lib_a-fflush.o)
 .debug_info    0x000152d5      0xb72 c:/altera/11.1/nios2eds/bin/gnu/h-i686-mingw32/bin/../lib/gcc/nios2-elf/4.1.2/../../../../nios2-elf/lib/mhw-mulx\libc.a(lib_a-findfp.o)
 .debug_info    0x00015e47      0xbc9 c:/altera/11.1/nios2eds/bin/gnu/h-i686-mingw32/bin/../lib/gcc/nios2-elf/4.1.2/../../../../nios2-elf/lib/mhw-mulx\libc.a(lib_a-freer.o)
 .debug_info    0x00016a10      0xa88 c:/altera/11.1/nios2eds/bin/gnu/h-i686-mingw32/bin/../lib/gcc/nios2-elf/4.1.2/../../../../nios2-elf/lib/mhw-mulx\libc.a(lib_a-fvwrite.o)
 .debug_info    0x00017498      0xaed c:/altera/11.1/nios2eds/bin/gnu/h-i686-mingw32/bin/../lib/gcc/nios2-elf/4.1.2/../../../../nios2-elf/lib/mhw-mulx\libc.a(lib_a-fwalk.o)
 .debug_info    0x00017f85      0x93d c:/altera/11.1/nios2eds/bin/gnu/h-i686-mingw32/bin/../lib/gcc/nios2-elf/4.1.2/../../../../nios2-elf/lib/mhw-mulx\libc.a(lib_a-impure.o)
 .debug_info    0x000188c2      0xb97 c:/altera/11.1/nios2eds/bin/gnu/h-i686-mingw32/bin/../lib/gcc/nios2-elf/4.1.2/../../../../nios2-elf/lib/mhw-mulx\libc.a(lib_a-locale.o)
 .debug_info    0x00019459      0xb1a c:/altera/11.1/nios2eds/bin/gnu/h-i686-mingw32/bin/../lib/gcc/nios2-elf/4.1.2/../../../../nios2-elf/lib/mhw-mulx\libc.a(lib_a-makebuf.o)
 .debug_info    0x00019f73      0xcd0 c:/altera/11.1/nios2eds/bin/gnu/h-i686-mingw32/bin/../lib/gcc/nios2-elf/4.1.2/../../../../nios2-elf/lib/mhw-mulx\libc.a(lib_a-mallocr.o)
 .debug_info    0x0001ac43      0x138 c:/altera/11.1/nios2eds/bin/gnu/h-i686-mingw32/bin/../lib/gcc/nios2-elf/4.1.2/../../../../nios2-elf/lib/mhw-mulx\libc.a(lib_a-memchr.o)
 .debug_info    0x0001ad7b      0x106 c:/altera/11.1/nios2eds/bin/gnu/h-i686-mingw32/bin/../lib/gcc/nios2-elf/4.1.2/../../../../nios2-elf/lib/mhw-mulx\libc.a(lib_a-memcpy.o)
 .debug_info    0x0001ae81      0x13e c:/altera/11.1/nios2eds/bin/gnu/h-i686-mingw32/bin/../lib/gcc/nios2-elf/4.1.2/../../../../nios2-elf/lib/mhw-mulx\libc.a(lib_a-memmove.o)
 .debug_info    0x0001afbf      0x113 c:/altera/11.1/nios2eds/bin/gnu/h-i686-mingw32/bin/../lib/gcc/nios2-elf/4.1.2/../../../../nios2-elf/lib/mhw-mulx\libc.a(lib_a-memset.o)
 .debug_info    0x0001b0d2     0x1437 c:/altera/11.1/nios2eds/bin/gnu/h-i686-mingw32/bin/../lib/gcc/nios2-elf/4.1.2/../../../../nios2-elf/lib/mhw-mulx\libc.a(lib_a-mprec.o)
 .debug_info    0x0001c509      0x9c1 c:/altera/11.1/nios2eds/bin/gnu/h-i686-mingw32/bin/../lib/gcc/nios2-elf/4.1.2/../../../../nios2-elf/lib/mhw-mulx\libc.a(lib_a-putc.o)
 .debug_info    0x0001ceca      0xbd7 c:/altera/11.1/nios2eds/bin/gnu/h-i686-mingw32/bin/../lib/gcc/nios2-elf/4.1.2/../../../../nios2-elf/lib/mhw-mulx\libc.a(lib_a-reallocr.o)
 .debug_info    0x0001daa1       0xd7 c:/altera/11.1/nios2eds/bin/gnu/h-i686-mingw32/bin/../lib/gcc/nios2-elf/4.1.2/../../../../nios2-elf/lib/mhw-mulx\libc.a(lib_a-s_isinfd.o)
 .debug_info    0x0001db78       0xd5 c:/altera/11.1/nios2eds/bin/gnu/h-i686-mingw32/bin/../lib/gcc/nios2-elf/4.1.2/../../../../nios2-elf/lib/mhw-mulx\libc.a(lib_a-s_isnand.o)
 .debug_info    0x0001dc4d      0x962 c:/altera/11.1/nios2eds/bin/gnu/h-i686-mingw32/bin/../lib/gcc/nios2-elf/4.1.2/../../../../nios2-elf/lib/mhw-mulx\libc.a(lib_a-sbrkr.o)
 .debug_info    0x0001e5af      0xaac c:/altera/11.1/nios2eds/bin/gnu/h-i686-mingw32/bin/../lib/gcc/nios2-elf/4.1.2/../../../../nios2-elf/lib/mhw-mulx\libc.a(lib_a-stdio.o)
 .debug_info    0x0001f05b       0xdd c:/altera/11.1/nios2eds/bin/gnu/h-i686-mingw32/bin/../lib/gcc/nios2-elf/4.1.2/../../../../nios2-elf/lib/mhw-mulx\libc.a(lib_a-strcmp.o)
 .debug_info    0x0001f138      0x9ae c:/altera/11.1/nios2eds/bin/gnu/h-i686-mingw32/bin/../lib/gcc/nios2-elf/4.1.2/../../../../nios2-elf/lib/mhw-mulx\libc.a(lib_a-wbuf.o)
 .debug_info    0x0001fae6      0x993 c:/altera/11.1/nios2eds/bin/gnu/h-i686-mingw32/bin/../lib/gcc/nios2-elf/4.1.2/../../../../nios2-elf/lib/mhw-mulx\libc.a(lib_a-writer.o)
 .debug_info    0x00020479      0xa1b c:/altera/11.1/nios2eds/bin/gnu/h-i686-mingw32/bin/../lib/gcc/nios2-elf/4.1.2/../../../../nios2-elf/lib/mhw-mulx\libc.a(lib_a-callocr.o)
 .debug_info    0x00020e94      0x958 c:/altera/11.1/nios2eds/bin/gnu/h-i686-mingw32/bin/../lib/gcc/nios2-elf/4.1.2/../../../../nios2-elf/lib/mhw-mulx\libc.a(lib_a-closer.o)
 .debug_info    0x000217ec      0x994 c:/altera/11.1/nios2eds/bin/gnu/h-i686-mingw32/bin/../lib/gcc/nios2-elf/4.1.2/../../../../nios2-elf/lib/mhw-mulx\libc.a(lib_a-fclose.o)
 .debug_info    0x00022180      0xafc c:/altera/11.1/nios2eds/bin/gnu/h-i686-mingw32/bin/../lib/gcc/nios2-elf/4.1.2/../../../../nios2-elf/lib/mhw-mulx\libc.a(lib_a-fstatr.o)
 .debug_info    0x00022c7c       0x8c c:/altera/11.1/nios2eds/bin/gnu/h-i686-mingw32/bin/../lib/gcc/nios2-elf/4.1.2/../../../../nios2-elf/lib/mhw-mulx\libc.a(lib_a-int_errno.o)
 .debug_info    0x00022d08      0x958 c:/altera/11.1/nios2eds/bin/gnu/h-i686-mingw32/bin/../lib/gcc/nios2-elf/4.1.2/../../../../nios2-elf/lib/mhw-mulx\libc.a(lib_a-isattyr.o)
 .debug_info    0x00023660      0x981 c:/altera/11.1/nios2eds/bin/gnu/h-i686-mingw32/bin/../lib/gcc/nios2-elf/4.1.2/../../../../nios2-elf/lib/mhw-mulx\libc.a(lib_a-lseekr.o)
 .debug_info    0x00023fe1      0x98c c:/altera/11.1/nios2eds/bin/gnu/h-i686-mingw32/bin/../lib/gcc/nios2-elf/4.1.2/../../../../nios2-elf/lib/mhw-mulx\libc.a(lib_a-readr.o)
 .debug_info    0x0002496d      0x724 c:/altera/11.1/nios2eds/bin/gnu/h-i686-mingw32/bin/../lib/gcc/nios2-elf/4.1.2/mhw-mulx\libgcc.a(_udivdi3.o)
 .debug_info    0x00025091      0x751 c:/altera/11.1/nios2eds/bin/gnu/h-i686-mingw32/bin/../lib/gcc/nios2-elf/4.1.2/mhw-mulx\libgcc.a(_umoddi3.o)
 .debug_info    0x000257e2      0x29d c:/altera/11.1/nios2eds/bin/gnu/h-i686-mingw32/bin/../lib/gcc/nios2-elf/4.1.2/mhw-mulx\libgcc.a(_eq_df.o)
 .debug_info    0x00025a7f      0x29d c:/altera/11.1/nios2eds/bin/gnu/h-i686-mingw32/bin/../lib/gcc/nios2-elf/4.1.2/mhw-mulx\libgcc.a(_ne_df.o)
 .debug_info    0x00025d1c      0x29d c:/altera/11.1/nios2eds/bin/gnu/h-i686-mingw32/bin/../lib/gcc/nios2-elf/4.1.2/mhw-mulx\libgcc.a(_lt_df.o)
 .debug_info    0x00025fb9       0x61 ../GIGLE10_bsp\libucosii_bsp.a(alt_irq_entry.o)
 .debug_info    0x0002601a       0x67 ../GIGLE10_bsp\libucosii_bsp.a(alt_exception_entry.o)
 .debug_info    0x00026081       0x60 ../GIGLE10_bsp\libucosii_bsp.a(os_cpu_a.o)
 .debug_info    0x000260e1      0x93f c:/altera/11.1/nios2eds/bin/gnu/h-i686-mingw32/bin/../lib/gcc/nios2-elf/4.1.2/../../../../nios2-elf/lib/mhw-mulx\libc.a(lib_a-exit.o)
 .debug_info    0x00026a20      0x115 c:/altera/11.1/nios2eds/bin/gnu/h-i686-mingw32/bin/../lib/gcc/nios2-elf/4.1.2/../../../../nios2-elf/lib/mhw-mulx\libc.a(lib_a-memcmp.o)
 .debug_info    0x00026b35      0x9e2 c:/altera/11.1/nios2eds/bin/gnu/h-i686-mingw32/bin/../lib/gcc/nios2-elf/4.1.2/../../../../nios2-elf/lib/mhw-mulx\libc.a(lib_a-__call_atexit.o)

.debug_abbrev   0x00000000     0x8c3d
 *(.debug_abbrev)
 .debug_abbrev  0x00000000       0x14 ../GIGLE10_bsp/obj/HAL/src/crt0.o
 .debug_abbrev  0x00000014      0x143 obj/Debug/alt_2_wire.o
 .debug_abbrev  0x00000157      0x155 obj/Debug/c37dot94.o
 .debug_abbrev  0x000002ac      0x11a obj/Debug/c37dot94_task.o
 .debug_abbrev  0x000003c6      0x183 obj/Debug/c37dot94bert.o
 .debug_abbrev  0x00000549       0xd9 obj/Debug/cfg10_hw.o
 .debug_abbrev  0x00000622       0xd8 obj/Debug/cfg_c37.o
 .debug_abbrev  0x000006fa       0x73 obj/Debug/cfg_frame.o
 .debug_abbrev  0x0000076d       0xf1 obj/Debug/cfg_hw.o
 .debug_abbrev  0x0000085e      0x162 obj/Debug/config.o
 .debug_abbrev  0x000009c0      0x1d4 obj/Debug/config10g.o
 .debug_abbrev  0x00000b94       0xa5 obj/Debug/config_multistream.o
 .debug_abbrev  0x00000c39      0x23f obj/Debug/flash.o
 .debug_abbrev  0x00000e78      0x103 obj/Debug/functions.o
 .debug_abbrev  0x00000f7b       0xc4 obj/Debug/gui_link.o
 .debug_abbrev  0x0000103f      0x100 obj/Debug/helpers.o
 .debug_abbrev  0x0000113f       0xa5 obj/Debug/init.o
 .debug_abbrev  0x000011e4      0x155 obj/Debug/intr.o
 .debug_abbrev  0x00001339       0x9f obj/Debug/link_task.o
 .debug_abbrev  0x000013d8      0x11d obj/Debug/loopback.o
 .debug_abbrev  0x000014f5      0x216 obj/Debug/main.o
 .debug_abbrev  0x0000170b      0x177 obj/Debug/onesec_alrm.o
 .debug_abbrev  0x00001882      0x1d7 obj/Debug/packet10g.o
 .debug_abbrev  0x00001a59      0x100 obj/Debug/results.o
 .debug_abbrev  0x00001b59      0x155 obj/Debug/sfp.o
 .debug_abbrev  0x00001cae      0x106 obj/Debug/status.o
 .debug_abbrev  0x00001db4       0x97 obj/Debug/update_headers.o
 .debug_abbrev  0x00001e4b       0xea c:/altera/11.1/nios2eds/bin/gnu/h-i686-mingw32/bin/../lib/gcc/nios2-elf/4.1.2/../../../../nios2-elf/lib/mhw-mulx\libm.a(lib_a-s_round.o)
 .debug_abbrev  0x00001f35       0x5d c:/altera/11.1/nios2eds/bin/gnu/h-i686-mingw32/bin/../lib/gcc/nios2-elf/4.1.2/mhw-mulx\libgcc.a(_fixunssfsi.o)
 .debug_abbrev  0x00001f92       0x5d c:/altera/11.1/nios2eds/bin/gnu/h-i686-mingw32/bin/../lib/gcc/nios2-elf/4.1.2/mhw-mulx\libgcc.a(_fixunsdfsi.o)
 .debug_abbrev  0x00001fef       0x82 c:/altera/11.1/nios2eds/bin/gnu/h-i686-mingw32/bin/../lib/gcc/nios2-elf/4.1.2/mhw-mulx\libgcc.a(_fixunsdfdi.o)
 .debug_abbrev  0x00002071       0x6c c:/altera/11.1/nios2eds/bin/gnu/h-i686-mingw32/bin/../lib/gcc/nios2-elf/4.1.2/mhw-mulx\libgcc.a(_floatdidf.o)
 .debug_abbrev  0x000020dd       0x6c c:/altera/11.1/nios2eds/bin/gnu/h-i686-mingw32/bin/../lib/gcc/nios2-elf/4.1.2/mhw-mulx\libgcc.a(_floatundidf.o)
 .debug_abbrev  0x00002149      0x183 c:/altera/11.1/nios2eds/bin/gnu/h-i686-mingw32/bin/../lib/gcc/nios2-elf/4.1.2/mhw-mulx\libgcc.a(_divdi3.o)
 .debug_abbrev  0x000022cc      0x1e1 c:/altera/11.1/nios2eds/bin/gnu/h-i686-mingw32/bin/../lib/gcc/nios2-elf/4.1.2/mhw-mulx\libgcc.a(_addsub_sf.o)
 .debug_abbrev  0x000024ad      0x1fd c:/altera/11.1/nios2eds/bin/gnu/h-i686-mingw32/bin/../lib/gcc/nios2-elf/4.1.2/mhw-mulx\libgcc.a(_mul_sf.o)
 .debug_abbrev  0x000026aa      0x151 c:/altera/11.1/nios2eds/bin/gnu/h-i686-mingw32/bin/../lib/gcc/nios2-elf/4.1.2/mhw-mulx\libgcc.a(_eq_sf.o)
 .debug_abbrev  0x000027fb      0x151 c:/altera/11.1/nios2eds/bin/gnu/h-i686-mingw32/bin/../lib/gcc/nios2-elf/4.1.2/mhw-mulx\libgcc.a(_ge_sf.o)
 .debug_abbrev  0x0000294c      0x176 c:/altera/11.1/nios2eds/bin/gnu/h-i686-mingw32/bin/../lib/gcc/nios2-elf/4.1.2/mhw-mulx\libgcc.a(_sf_to_si.o)
 .debug_abbrev  0x00002ac2      0x128 c:/altera/11.1/nios2eds/bin/gnu/h-i686-mingw32/bin/../lib/gcc/nios2-elf/4.1.2/mhw-mulx\libgcc.a(_sf_to_df.o)
 .debug_abbrev  0x00002bea       0xba c:/altera/11.1/nios2eds/bin/gnu/h-i686-mingw32/bin/../lib/gcc/nios2-elf/4.1.2/mhw-mulx\libgcc.a(_thenan_sf.o)
 .debug_abbrev  0x00002ca4      0x155 c:/altera/11.1/nios2eds/bin/gnu/h-i686-mingw32/bin/../lib/gcc/nios2-elf/4.1.2/mhw-mulx\libgcc.a(_usi_to_sf.o)
 .debug_abbrev  0x00002df9      0x1d2 c:/altera/11.1/nios2eds/bin/gnu/h-i686-mingw32/bin/../lib/gcc/nios2-elf/4.1.2/mhw-mulx\libgcc.a(_addsub_df.o)
 .debug_abbrev  0x00002fcb      0x204 c:/altera/11.1/nios2eds/bin/gnu/h-i686-mingw32/bin/../lib/gcc/nios2-elf/4.1.2/mhw-mulx\libgcc.a(_mul_df.o)
 .debug_abbrev  0x000031cf      0x1e3 c:/altera/11.1/nios2eds/bin/gnu/h-i686-mingw32/bin/../lib/gcc/nios2-elf/4.1.2/mhw-mulx\libgcc.a(_div_df.o)
 .debug_abbrev  0x000033b2      0x151 c:/altera/11.1/nios2eds/bin/gnu/h-i686-mingw32/bin/../lib/gcc/nios2-elf/4.1.2/mhw-mulx\libgcc.a(_gt_df.o)
 .debug_abbrev  0x00003503      0x151 c:/altera/11.1/nios2eds/bin/gnu/h-i686-mingw32/bin/../lib/gcc/nios2-elf/4.1.2/mhw-mulx\libgcc.a(_ge_df.o)
 .debug_abbrev  0x00003654      0x13f c:/altera/11.1/nios2eds/bin/gnu/h-i686-mingw32/bin/../lib/gcc/nios2-elf/4.1.2/mhw-mulx\libgcc.a(_si_to_df.o)
 .debug_abbrev  0x00003793      0x176 c:/altera/11.1/nios2eds/bin/gnu/h-i686-mingw32/bin/../lib/gcc/nios2-elf/4.1.2/mhw-mulx\libgcc.a(_df_to_si.o)
 .debug_abbrev  0x00003909      0x10f c:/altera/11.1/nios2eds/bin/gnu/h-i686-mingw32/bin/../lib/gcc/nios2-elf/4.1.2/mhw-mulx\libgcc.a(_make_df.o)
 .debug_abbrev  0x00003a18      0x137 c:/altera/11.1/nios2eds/bin/gnu/h-i686-mingw32/bin/../lib/gcc/nios2-elf/4.1.2/mhw-mulx\libgcc.a(_df_to_sf.o)
 .debug_abbrev  0x00003b4f       0xba c:/altera/11.1/nios2eds/bin/gnu/h-i686-mingw32/bin/../lib/gcc/nios2-elf/4.1.2/mhw-mulx\libgcc.a(_thenan_df.o)
 .debug_abbrev  0x00003c09      0x155 c:/altera/11.1/nios2eds/bin/gnu/h-i686-mingw32/bin/../lib/gcc/nios2-elf/4.1.2/mhw-mulx\libgcc.a(_usi_to_df.o)
 .debug_abbrev  0x00003d5e       0xe0 c:/altera/11.1/nios2eds/bin/gnu/h-i686-mingw32/bin/../lib/gcc/nios2-elf/4.1.2/mhw-mulx\libgcc.a(lib2-divmod.o)
 .debug_abbrev  0x00003e3e       0x61 c:/altera/11.1/nios2eds/bin/gnu/h-i686-mingw32/bin/../lib/gcc/nios2-elf/4.1.2/mhw-mulx\libgcc.a(_clz.o)
 .debug_abbrev  0x00003e9f       0xb9 c:/altera/11.1/nios2eds/bin/gnu/h-i686-mingw32/bin/../lib/gcc/nios2-elf/4.1.2/mhw-mulx\libgcc.a(_clzsi2.o)
 .debug_abbrev  0x00003f58      0x1aa c:/altera/11.1/nios2eds/bin/gnu/h-i686-mingw32/bin/../lib/gcc/nios2-elf/4.1.2/mhw-mulx\libgcc.a(_pack_sf.o)
 .debug_abbrev  0x00004102      0x158 c:/altera/11.1/nios2eds/bin/gnu/h-i686-mingw32/bin/../lib/gcc/nios2-elf/4.1.2/mhw-mulx\libgcc.a(_unpack_sf.o)
 .debug_abbrev  0x0000425a      0x132 c:/altera/11.1/nios2eds/bin/gnu/h-i686-mingw32/bin/../lib/gcc/nios2-elf/4.1.2/mhw-mulx\libgcc.a(_fpcmp_parts_sf.o)
 .debug_abbrev  0x0000438c      0x100 c:/altera/11.1/nios2eds/bin/gnu/h-i686-mingw32/bin/../lib/gcc/nios2-elf/4.1.2/mhw-mulx\libgcc.a(_make_sf.o)
 .debug_abbrev  0x0000448c      0x1b1 c:/altera/11.1/nios2eds/bin/gnu/h-i686-mingw32/bin/../lib/gcc/nios2-elf/4.1.2/mhw-mulx\libgcc.a(_pack_df.o)
 .debug_abbrev  0x0000463d      0x149 c:/altera/11.1/nios2eds/bin/gnu/h-i686-mingw32/bin/../lib/gcc/nios2-elf/4.1.2/mhw-mulx\libgcc.a(_unpack_df.o)
 .debug_abbrev  0x00004786      0x132 c:/altera/11.1/nios2eds/bin/gnu/h-i686-mingw32/bin/../lib/gcc/nios2-elf/4.1.2/mhw-mulx\libgcc.a(_fpcmp_parts_df.o)
 .debug_abbrev  0x000048b8      0x191 c:/altera/11.1/nios2eds/bin/gnu/h-i686-mingw32/bin/../lib/gcc/nios2-elf/4.1.2/../../../../nios2-elf/lib/mhw-mulx\libc.a(lib_a-printf.o)
 .debug_abbrev  0x00004a49      0x170 c:/altera/11.1/nios2eds/bin/gnu/h-i686-mingw32/bin/../lib/gcc/nios2-elf/4.1.2/../../../../nios2-elf/lib/mhw-mulx\libc.a(lib_a-putchar.o)
 .debug_abbrev  0x00004bb9      0x1ac c:/altera/11.1/nios2eds/bin/gnu/h-i686-mingw32/bin/../lib/gcc/nios2-elf/4.1.2/../../../../nios2-elf/lib/mhw-mulx\libc.a(lib_a-puts.o)
 .debug_abbrev  0x00004d65       0x8b c:/altera/11.1/nios2eds/bin/gnu/h-i686-mingw32/bin/../lib/gcc/nios2-elf/4.1.2/../../../../nios2-elf/lib/mhw-mulx\libc.a(lib_a-strlen.o)
 .debug_abbrev  0x00004df0       0x8d c:/altera/11.1/nios2eds/bin/gnu/h-i686-mingw32/bin/../lib/gcc/nios2-elf/4.1.2/../../../../nios2-elf/lib/mhw-mulx\libc.a(lib_a-strncmp.o)
 .debug_abbrev  0x00004e7d      0x30a c:/altera/11.1/nios2eds/bin/gnu/h-i686-mingw32/bin/../lib/gcc/nios2-elf/4.1.2/../../../../nios2-elf/lib/mhw-mulx\libc.a(lib_a-vfprintf.o)
 .debug_abbrev  0x00005187      0x170 c:/altera/11.1/nios2eds/bin/gnu/h-i686-mingw32/bin/../lib/gcc/nios2-elf/4.1.2/../../../../nios2-elf/lib/mhw-mulx\libc.a(lib_a-wsetup.o)
 .debug_abbrev  0x000052f7      0x232 c:/altera/11.1/nios2eds/bin/gnu/h-i686-mingw32/bin/../lib/gcc/nios2-elf/4.1.2/../../../../nios2-elf/lib/mhw-mulx\libc.a(lib_a-dtoa.o)
 .debug_abbrev  0x00005529      0x1c6 c:/altera/11.1/nios2eds/bin/gnu/h-i686-mingw32/bin/../lib/gcc/nios2-elf/4.1.2/../../../../nios2-elf/lib/mhw-mulx\libc.a(lib_a-fflush.o)
 .debug_abbrev  0x000056ef      0x24c c:/altera/11.1/nios2eds/bin/gnu/h-i686-mingw32/bin/../lib/gcc/nios2-elf/4.1.2/../../../../nios2-elf/lib/mhw-mulx\libc.a(lib_a-findfp.o)
 .debug_abbrev  0x0000593b      0x1d9 c:/altera/11.1/nios2eds/bin/gnu/h-i686-mingw32/bin/../lib/gcc/nios2-elf/4.1.2/../../../../nios2-elf/lib/mhw-mulx\libc.a(lib_a-freer.o)
 .debug_abbrev  0x00005b14      0x1a3 c:/altera/11.1/nios2eds/bin/gnu/h-i686-mingw32/bin/../lib/gcc/nios2-elf/4.1.2/../../../../nios2-elf/lib/mhw-mulx\libc.a(lib_a-fvwrite.o)
 .debug_abbrev  0x00005cb7      0x1e3 c:/altera/11.1/nios2eds/bin/gnu/h-i686-mingw32/bin/../lib/gcc/nios2-elf/4.1.2/../../../../nios2-elf/lib/mhw-mulx\libc.a(lib_a-fwalk.o)
 .debug_abbrev  0x00005e9a      0x157 c:/altera/11.1/nios2eds/bin/gnu/h-i686-mingw32/bin/../lib/gcc/nios2-elf/4.1.2/../../../../nios2-elf/lib/mhw-mulx\libc.a(lib_a-impure.o)
 .debug_abbrev  0x00005ff1      0x1ed c:/altera/11.1/nios2eds/bin/gnu/h-i686-mingw32/bin/../lib/gcc/nios2-elf/4.1.2/../../../../nios2-elf/lib/mhw-mulx\libc.a(lib_a-locale.o)
 .debug_abbrev  0x000061de      0x197 c:/altera/11.1/nios2eds/bin/gnu/h-i686-mingw32/bin/../lib/gcc/nios2-elf/4.1.2/../../../../nios2-elf/lib/mhw-mulx\libc.a(lib_a-makebuf.o)
 .debug_abbrev  0x00006375      0x216 c:/altera/11.1/nios2eds/bin/gnu/h-i686-mingw32/bin/../lib/gcc/nios2-elf/4.1.2/../../../../nios2-elf/lib/mhw-mulx\libc.a(lib_a-mallocr.o)
 .debug_abbrev  0x0000658b       0xb5 c:/altera/11.1/nios2eds/bin/gnu/h-i686-mingw32/bin/../lib/gcc/nios2-elf/4.1.2/../../../../nios2-elf/lib/mhw-mulx\libc.a(lib_a-memchr.o)
 .debug_abbrev  0x00006640       0xb5 c:/altera/11.1/nios2eds/bin/gnu/h-i686-mingw32/bin/../lib/gcc/nios2-elf/4.1.2/../../../../nios2-elf/lib/mhw-mulx\libc.a(lib_a-memcpy.o)
 .debug_abbrev  0x000066f5       0xb5 c:/altera/11.1/nios2eds/bin/gnu/h-i686-mingw32/bin/../lib/gcc/nios2-elf/4.1.2/../../../../nios2-elf/lib/mhw-mulx\libc.a(lib_a-memmove.o)
 .debug_abbrev  0x000067aa       0xb8 c:/altera/11.1/nios2eds/bin/gnu/h-i686-mingw32/bin/../lib/gcc/nios2-elf/4.1.2/../../../../nios2-elf/lib/mhw-mulx\libc.a(lib_a-memset.o)
 .debug_abbrev  0x00006862      0x297 c:/altera/11.1/nios2eds/bin/gnu/h-i686-mingw32/bin/../lib/gcc/nios2-elf/4.1.2/../../../../nios2-elf/lib/mhw-mulx\libc.a(lib_a-mprec.o)
 .debug_abbrev  0x00006af9      0x17f c:/altera/11.1/nios2eds/bin/gnu/h-i686-mingw32/bin/../lib/gcc/nios2-elf/4.1.2/../../../../nios2-elf/lib/mhw-mulx\libc.a(lib_a-putc.o)
 .debug_abbrev  0x00006c78      0x1c3 c:/altera/11.1/nios2eds/bin/gnu/h-i686-mingw32/bin/../lib/gcc/nios2-elf/4.1.2/../../../../nios2-elf/lib/mhw-mulx\libc.a(lib_a-reallocr.o)
 .debug_abbrev  0x00006e3b       0x79 c:/altera/11.1/nios2eds/bin/gnu/h-i686-mingw32/bin/../lib/gcc/nios2-elf/4.1.2/../../../../nios2-elf/lib/mhw-mulx\libc.a(lib_a-s_isinfd.o)
 .debug_abbrev  0x00006eb4       0x79 c:/altera/11.1/nios2eds/bin/gnu/h-i686-mingw32/bin/../lib/gcc/nios2-elf/4.1.2/../../../../nios2-elf/lib/mhw-mulx\libc.a(lib_a-s_isnand.o)
 .debug_abbrev  0x00006f2d      0x18c c:/altera/11.1/nios2eds/bin/gnu/h-i686-mingw32/bin/../lib/gcc/nios2-elf/4.1.2/../../../../nios2-elf/lib/mhw-mulx\libc.a(lib_a-sbrkr.o)
 .debug_abbrev  0x000070b9      0x1c9 c:/altera/11.1/nios2eds/bin/gnu/h-i686-mingw32/bin/../lib/gcc/nios2-elf/4.1.2/../../../../nios2-elf/lib/mhw-mulx\libc.a(lib_a-stdio.o)
 .debug_abbrev  0x00007282       0x80 c:/altera/11.1/nios2eds/bin/gnu/h-i686-mingw32/bin/../lib/gcc/nios2-elf/4.1.2/../../../../nios2-elf/lib/mhw-mulx\libc.a(lib_a-strcmp.o)
 .debug_abbrev  0x00007302      0x198 c:/altera/11.1/nios2eds/bin/gnu/h-i686-mingw32/bin/../lib/gcc/nios2-elf/4.1.2/../../../../nios2-elf/lib/mhw-mulx\libc.a(lib_a-wbuf.o)
 .debug_abbrev  0x0000749a      0x184 c:/altera/11.1/nios2eds/bin/gnu/h-i686-mingw32/bin/../lib/gcc/nios2-elf/4.1.2/../../../../nios2-elf/lib/mhw-mulx\libc.a(lib_a-writer.o)
 .debug_abbrev  0x0000761e      0x1b8 c:/altera/11.1/nios2eds/bin/gnu/h-i686-mingw32/bin/../lib/gcc/nios2-elf/4.1.2/../../../../nios2-elf/lib/mhw-mulx\libc.a(lib_a-callocr.o)
 .debug_abbrev  0x000077d6      0x17f c:/altera/11.1/nios2eds/bin/gnu/h-i686-mingw32/bin/../lib/gcc/nios2-elf/4.1.2/../../../../nios2-elf/lib/mhw-mulx\libc.a(lib_a-closer.o)
 .debug_abbrev  0x00007955      0x1a7 c:/altera/11.1/nios2eds/bin/gnu/h-i686-mingw32/bin/../lib/gcc/nios2-elf/4.1.2/../../../../nios2-elf/lib/mhw-mulx\libc.a(lib_a-fclose.o)
 .debug_abbrev  0x00007afc      0x18e c:/altera/11.1/nios2eds/bin/gnu/h-i686-mingw32/bin/../lib/gcc/nios2-elf/4.1.2/../../../../nios2-elf/lib/mhw-mulx\libc.a(lib_a-fstatr.o)
 .debug_abbrev  0x00007c8a       0x3b c:/altera/11.1/nios2eds/bin/gnu/h-i686-mingw32/bin/../lib/gcc/nios2-elf/4.1.2/../../../../nios2-elf/lib/mhw-mulx\libc.a(lib_a-int_errno.o)
 .debug_abbrev  0x00007cc5      0x17f c:/altera/11.1/nios2eds/bin/gnu/h-i686-mingw32/bin/../lib/gcc/nios2-elf/4.1.2/../../../../nios2-elf/lib/mhw-mulx\libc.a(lib_a-isattyr.o)
 .debug_abbrev  0x00007e44      0x18e c:/altera/11.1/nios2eds/bin/gnu/h-i686-mingw32/bin/../lib/gcc/nios2-elf/4.1.2/../../../../nios2-elf/lib/mhw-mulx\libc.a(lib_a-lseekr.o)
 .debug_abbrev  0x00007fd2      0x17f c:/altera/11.1/nios2eds/bin/gnu/h-i686-mingw32/bin/../lib/gcc/nios2-elf/4.1.2/../../../../nios2-elf/lib/mhw-mulx\libc.a(lib_a-readr.o)
 .debug_abbrev  0x00008151      0x16b c:/altera/11.1/nios2eds/bin/gnu/h-i686-mingw32/bin/../lib/gcc/nios2-elf/4.1.2/mhw-mulx\libgcc.a(_udivdi3.o)
 .debug_abbrev  0x000082bc      0x18e c:/altera/11.1/nios2eds/bin/gnu/h-i686-mingw32/bin/../lib/gcc/nios2-elf/4.1.2/mhw-mulx\libgcc.a(_umoddi3.o)
 .debug_abbrev  0x0000844a      0x151 c:/altera/11.1/nios2eds/bin/gnu/h-i686-mingw32/bin/../lib/gcc/nios2-elf/4.1.2/mhw-mulx\libgcc.a(_eq_df.o)
 .debug_abbrev  0x0000859b      0x151 c:/altera/11.1/nios2eds/bin/gnu/h-i686-mingw32/bin/../lib/gcc/nios2-elf/4.1.2/mhw-mulx\libgcc.a(_ne_df.o)
 .debug_abbrev  0x000086ec      0x151 c:/altera/11.1/nios2eds/bin/gnu/h-i686-mingw32/bin/../lib/gcc/nios2-elf/4.1.2/mhw-mulx\libgcc.a(_lt_df.o)
 .debug_abbrev  0x0000883d       0x12 ../GIGLE10_bsp\libucosii_bsp.a(alt_irq_entry.o)
 .debug_abbrev  0x0000884f       0x12 ../GIGLE10_bsp\libucosii_bsp.a(alt_exception_entry.o)
 .debug_abbrev  0x00008861       0x14 ../GIGLE10_bsp\libucosii_bsp.a(os_cpu_a.o)
 .debug_abbrev  0x00008875      0x16e c:/altera/11.1/nios2eds/bin/gnu/h-i686-mingw32/bin/../lib/gcc/nios2-elf/4.1.2/../../../../nios2-elf/lib/mhw-mulx\libc.a(lib_a-exit.o)
 .debug_abbrev  0x000089e3       0x7c c:/altera/11.1/nios2eds/bin/gnu/h-i686-mingw32/bin/../lib/gcc/nios2-elf/4.1.2/../../../../nios2-elf/lib/mhw-mulx\libc.a(lib_a-memcmp.o)
 .debug_abbrev  0x00008a5f      0x1de c:/altera/11.1/nios2eds/bin/gnu/h-i686-mingw32/bin/../lib/gcc/nios2-elf/4.1.2/../../../../nios2-elf/lib/mhw-mulx\libc.a(lib_a-__call_atexit.o)

.debug_line     0x00000000    0x28132
 *(.debug_line)
 .debug_line    0x00000000       0x51 ../GIGLE10_bsp/obj/HAL/src/crt0.o
 .debug_line    0x00000051      0x9fa obj/Debug/alt_2_wire.o
 .debug_line    0x00000a4b      0xa0b obj/Debug/c37dot94.o
 .debug_line    0x00001456      0x5c3 obj/Debug/c37dot94_task.o
 .debug_line    0x00001a19      0xa0f obj/Debug/c37dot94bert.o
 .debug_line    0x00002428     0x1341 obj/Debug/cfg10_hw.o
 .debug_line    0x00003769      0x4c0 obj/Debug/cfg_c37.o
 .debug_line    0x00003c29      0x364 obj/Debug/cfg_frame.o
 .debug_line    0x00003f8d     0x1e48 obj/Debug/cfg_hw.o
 .debug_line    0x00005dd5     0x1661 obj/Debug/config.o
 .debug_line    0x00007436     0x16e9 obj/Debug/config10g.o
 .debug_line    0x00008b1f      0x3d2 obj/Debug/config_multistream.o
 .debug_line    0x00008ef1      0xcd4 obj/Debug/flash.o
 .debug_line    0x00009bc5      0x5e9 obj/Debug/functions.o
 .debug_line    0x0000a1ae     0x1116 obj/Debug/gui_link.o
 .debug_line    0x0000b2c4      0x67d obj/Debug/helpers.o
 .debug_line    0x0000b941      0x86c obj/Debug/init.o
 .debug_line    0x0000c1ad     0x16e2 obj/Debug/intr.o
 .debug_line    0x0000d88f      0x409 obj/Debug/link_task.o
 .debug_line    0x0000dc98     0x1254 obj/Debug/loopback.o
 .debug_line    0x0000eeec     0x1593 obj/Debug/main.o
 .debug_line    0x0001047f      0x814 obj/Debug/onesec_alrm.o
 .debug_line    0x00010c93     0x3823 obj/Debug/packet10g.o
 .debug_line    0x000144b6      0x9a2 obj/Debug/results.o
 .debug_line    0x00014e58      0xa5f obj/Debug/sfp.o
 .debug_line    0x000158b7      0x9a9 obj/Debug/status.o
 .debug_line    0x00016260     0x2550 obj/Debug/update_headers.o
 .debug_line    0x000187b0      0x2f4 c:/altera/11.1/nios2eds/bin/gnu/h-i686-mingw32/bin/../lib/gcc/nios2-elf/4.1.2/../../../../nios2-elf/lib/mhw-mulx\libm.a(lib_a-s_round.o)
 .debug_line    0x00018aa4      0x107 c:/altera/11.1/nios2eds/bin/gnu/h-i686-mingw32/bin/../lib/gcc/nios2-elf/4.1.2/mhw-mulx\libgcc.a(_fixunssfsi.o)
 .debug_line    0x00018bab       0xff c:/altera/11.1/nios2eds/bin/gnu/h-i686-mingw32/bin/../lib/gcc/nios2-elf/4.1.2/mhw-mulx\libgcc.a(_fixunsdfsi.o)
 .debug_line    0x00018caa       0xef c:/altera/11.1/nios2eds/bin/gnu/h-i686-mingw32/bin/../lib/gcc/nios2-elf/4.1.2/mhw-mulx\libgcc.a(_fixunsdfdi.o)
 .debug_line    0x00018d99       0xdf c:/altera/11.1/nios2eds/bin/gnu/h-i686-mingw32/bin/../lib/gcc/nios2-elf/4.1.2/mhw-mulx\libgcc.a(_floatdidf.o)
 .debug_line    0x00018e78       0xdf c:/altera/11.1/nios2eds/bin/gnu/h-i686-mingw32/bin/../lib/gcc/nios2-elf/4.1.2/mhw-mulx\libgcc.a(_floatundidf.o)
 .debug_line    0x00018f57      0x367 c:/altera/11.1/nios2eds/bin/gnu/h-i686-mingw32/bin/../lib/gcc/nios2-elf/4.1.2/mhw-mulx\libgcc.a(_divdi3.o)
 .debug_line    0x000192be      0x3af c:/altera/11.1/nios2eds/bin/gnu/h-i686-mingw32/bin/../lib/gcc/nios2-elf/4.1.2/mhw-mulx\libgcc.a(_addsub_sf.o)
 .debug_line    0x0001966d      0x2b1 c:/altera/11.1/nios2eds/bin/gnu/h-i686-mingw32/bin/../lib/gcc/nios2-elf/4.1.2/mhw-mulx\libgcc.a(_mul_sf.o)
 .debug_line    0x0001991e      0x121 c:/altera/11.1/nios2eds/bin/gnu/h-i686-mingw32/bin/../lib/gcc/nios2-elf/4.1.2/mhw-mulx\libgcc.a(_eq_sf.o)
 .debug_line    0x00019a3f      0x121 c:/altera/11.1/nios2eds/bin/gnu/h-i686-mingw32/bin/../lib/gcc/nios2-elf/4.1.2/mhw-mulx\libgcc.a(_ge_sf.o)
 .debug_line    0x00019b60      0x141 c:/altera/11.1/nios2eds/bin/gnu/h-i686-mingw32/bin/../lib/gcc/nios2-elf/4.1.2/mhw-mulx\libgcc.a(_sf_to_si.o)
 .debug_line    0x00019ca1       0xd1 c:/altera/11.1/nios2eds/bin/gnu/h-i686-mingw32/bin/../lib/gcc/nios2-elf/4.1.2/mhw-mulx\libgcc.a(_sf_to_df.o)
 .debug_line    0x00019d72       0x94 c:/altera/11.1/nios2eds/bin/gnu/h-i686-mingw32/bin/../lib/gcc/nios2-elf/4.1.2/mhw-mulx\libgcc.a(_thenan_sf.o)
 .debug_line    0x00019e06      0x183 c:/altera/11.1/nios2eds/bin/gnu/h-i686-mingw32/bin/../lib/gcc/nios2-elf/4.1.2/mhw-mulx\libgcc.a(_usi_to_sf.o)
 .debug_line    0x00019f89      0x430 c:/altera/11.1/nios2eds/bin/gnu/h-i686-mingw32/bin/../lib/gcc/nios2-elf/4.1.2/mhw-mulx\libgcc.a(_addsub_df.o)
 .debug_line    0x0001a3b9      0x41b c:/altera/11.1/nios2eds/bin/gnu/h-i686-mingw32/bin/../lib/gcc/nios2-elf/4.1.2/mhw-mulx\libgcc.a(_mul_df.o)
 .debug_line    0x0001a7d4      0x301 c:/altera/11.1/nios2eds/bin/gnu/h-i686-mingw32/bin/../lib/gcc/nios2-elf/4.1.2/mhw-mulx\libgcc.a(_div_df.o)
 .debug_line    0x0001aad5      0x129 c:/altera/11.1/nios2eds/bin/gnu/h-i686-mingw32/bin/../lib/gcc/nios2-elf/4.1.2/mhw-mulx\libgcc.a(_gt_df.o)
 .debug_line    0x0001abfe      0x129 c:/altera/11.1/nios2eds/bin/gnu/h-i686-mingw32/bin/../lib/gcc/nios2-elf/4.1.2/mhw-mulx\libgcc.a(_ge_df.o)
 .debug_line    0x0001ad27      0x175 c:/altera/11.1/nios2eds/bin/gnu/h-i686-mingw32/bin/../lib/gcc/nios2-elf/4.1.2/mhw-mulx\libgcc.a(_si_to_df.o)
 .debug_line    0x0001ae9c      0x149 c:/altera/11.1/nios2eds/bin/gnu/h-i686-mingw32/bin/../lib/gcc/nios2-elf/4.1.2/mhw-mulx\libgcc.a(_df_to_si.o)
 .debug_line    0x0001afe5       0xe9 c:/altera/11.1/nios2eds/bin/gnu/h-i686-mingw32/bin/../lib/gcc/nios2-elf/4.1.2/mhw-mulx\libgcc.a(_make_df.o)
 .debug_line    0x0001b0ce      0x121 c:/altera/11.1/nios2eds/bin/gnu/h-i686-mingw32/bin/../lib/gcc/nios2-elf/4.1.2/mhw-mulx\libgcc.a(_df_to_sf.o)
 .debug_line    0x0001b1ef       0x94 c:/altera/11.1/nios2eds/bin/gnu/h-i686-mingw32/bin/../lib/gcc/nios2-elf/4.1.2/mhw-mulx\libgcc.a(_thenan_df.o)
 .debug_line    0x0001b283      0x189 c:/altera/11.1/nios2eds/bin/gnu/h-i686-mingw32/bin/../lib/gcc/nios2-elf/4.1.2/mhw-mulx\libgcc.a(_usi_to_df.o)
 .debug_line    0x0001b40c      0x24f c:/altera/11.1/nios2eds/bin/gnu/h-i686-mingw32/bin/../lib/gcc/nios2-elf/4.1.2/mhw-mulx\libgcc.a(lib2-divmod.o)
 .debug_line    0x0001b65b       0xaa c:/altera/11.1/nios2eds/bin/gnu/h-i686-mingw32/bin/../lib/gcc/nios2-elf/4.1.2/mhw-mulx\libgcc.a(_clz.o)
 .debug_line    0x0001b705      0x105 c:/altera/11.1/nios2eds/bin/gnu/h-i686-mingw32/bin/../lib/gcc/nios2-elf/4.1.2/mhw-mulx\libgcc.a(_clzsi2.o)
 .debug_line    0x0001b80a      0x1ca c:/altera/11.1/nios2eds/bin/gnu/h-i686-mingw32/bin/../lib/gcc/nios2-elf/4.1.2/mhw-mulx\libgcc.a(_pack_sf.o)
 .debug_line    0x0001b9d4      0x197 c:/altera/11.1/nios2eds/bin/gnu/h-i686-mingw32/bin/../lib/gcc/nios2-elf/4.1.2/mhw-mulx\libgcc.a(_unpack_sf.o)
 .debug_line    0x0001bb6b      0x177 c:/altera/11.1/nios2eds/bin/gnu/h-i686-mingw32/bin/../lib/gcc/nios2-elf/4.1.2/mhw-mulx\libgcc.a(_fpcmp_parts_sf.o)
 .debug_line    0x0001bce2       0xe1 c:/altera/11.1/nios2eds/bin/gnu/h-i686-mingw32/bin/../lib/gcc/nios2-elf/4.1.2/mhw-mulx\libgcc.a(_make_sf.o)
 .debug_line    0x0001bdc3      0x222 c:/altera/11.1/nios2eds/bin/gnu/h-i686-mingw32/bin/../lib/gcc/nios2-elf/4.1.2/mhw-mulx\libgcc.a(_pack_df.o)
 .debug_line    0x0001bfe5      0x1e4 c:/altera/11.1/nios2eds/bin/gnu/h-i686-mingw32/bin/../lib/gcc/nios2-elf/4.1.2/mhw-mulx\libgcc.a(_unpack_df.o)
 .debug_line    0x0001c1c9      0x187 c:/altera/11.1/nios2eds/bin/gnu/h-i686-mingw32/bin/../lib/gcc/nios2-elf/4.1.2/mhw-mulx\libgcc.a(_fpcmp_parts_df.o)
 .debug_line    0x0001c350      0x298 c:/altera/11.1/nios2eds/bin/gnu/h-i686-mingw32/bin/../lib/gcc/nios2-elf/4.1.2/../../../../nios2-elf/lib/mhw-mulx\libc.a(lib_a-printf.o)
 .debug_line    0x0001c5e8      0x261 c:/altera/11.1/nios2eds/bin/gnu/h-i686-mingw32/bin/../lib/gcc/nios2-elf/4.1.2/../../../../nios2-elf/lib/mhw-mulx\libc.a(lib_a-putchar.o)
 .debug_line    0x0001c849      0x2f4 c:/altera/11.1/nios2eds/bin/gnu/h-i686-mingw32/bin/../lib/gcc/nios2-elf/4.1.2/../../../../nios2-elf/lib/mhw-mulx\libc.a(lib_a-puts.o)
 .debug_line    0x0001cb3d      0x267 c:/altera/11.1/nios2eds/bin/gnu/h-i686-mingw32/bin/../lib/gcc/nios2-elf/4.1.2/../../../../nios2-elf/lib/mhw-mulx\libc.a(lib_a-strlen.o)
 .debug_line    0x0001cda4      0x2f8 c:/altera/11.1/nios2eds/bin/gnu/h-i686-mingw32/bin/../lib/gcc/nios2-elf/4.1.2/../../../../nios2-elf/lib/mhw-mulx\libc.a(lib_a-strncmp.o)
 .debug_line    0x0001d09c     0x1109 c:/altera/11.1/nios2eds/bin/gnu/h-i686-mingw32/bin/../lib/gcc/nios2-elf/4.1.2/../../../../nios2-elf/lib/mhw-mulx\libc.a(lib_a-vfprintf.o)
 .debug_line    0x0001e1a5      0x2ed c:/altera/11.1/nios2eds/bin/gnu/h-i686-mingw32/bin/../lib/gcc/nios2-elf/4.1.2/../../../../nios2-elf/lib/mhw-mulx\libc.a(lib_a-wsetup.o)
 .debug_line    0x0001e492     0x12c3 c:/altera/11.1/nios2eds/bin/gnu/h-i686-mingw32/bin/../lib/gcc/nios2-elf/4.1.2/../../../../nios2-elf/lib/mhw-mulx\libc.a(lib_a-dtoa.o)
 .debug_line    0x0001f755      0x40a c:/altera/11.1/nios2eds/bin/gnu/h-i686-mingw32/bin/../lib/gcc/nios2-elf/4.1.2/../../../../nios2-elf/lib/mhw-mulx\libc.a(lib_a-fflush.o)
 .debug_line    0x0001fb5f      0x5fe c:/altera/11.1/nios2eds/bin/gnu/h-i686-mingw32/bin/../lib/gcc/nios2-elf/4.1.2/../../../../nios2-elf/lib/mhw-mulx\libc.a(lib_a-findfp.o)
 .debug_line    0x0002015d      0x5e8 c:/altera/11.1/nios2eds/bin/gnu/h-i686-mingw32/bin/../lib/gcc/nios2-elf/4.1.2/../../../../nios2-elf/lib/mhw-mulx\libc.a(lib_a-freer.o)
 .debug_line    0x00020745      0x63e c:/altera/11.1/nios2eds/bin/gnu/h-i686-mingw32/bin/../lib/gcc/nios2-elf/4.1.2/../../../../nios2-elf/lib/mhw-mulx\libc.a(lib_a-fvwrite.o)
 .debug_line    0x00020d83      0x347 c:/altera/11.1/nios2eds/bin/gnu/h-i686-mingw32/bin/../lib/gcc/nios2-elf/4.1.2/../../../../nios2-elf/lib/mhw-mulx\libc.a(lib_a-fwalk.o)
 .debug_line    0x000210ca      0x227 c:/altera/11.1/nios2eds/bin/gnu/h-i686-mingw32/bin/../lib/gcc/nios2-elf/4.1.2/../../../../nios2-elf/lib/mhw-mulx\libc.a(lib_a-impure.o)
 .debug_line    0x000212f1      0x2c5 c:/altera/11.1/nios2eds/bin/gnu/h-i686-mingw32/bin/../lib/gcc/nios2-elf/4.1.2/../../../../nios2-elf/lib/mhw-mulx\libc.a(lib_a-locale.o)
 .debug_line    0x000215b6      0x3c0 c:/altera/11.1/nios2eds/bin/gnu/h-i686-mingw32/bin/../lib/gcc/nios2-elf/4.1.2/../../../../nios2-elf/lib/mhw-mulx\libc.a(lib_a-makebuf.o)
 .debug_line    0x00021976      0x807 c:/altera/11.1/nios2eds/bin/gnu/h-i686-mingw32/bin/../lib/gcc/nios2-elf/4.1.2/../../../../nios2-elf/lib/mhw-mulx\libc.a(lib_a-mallocr.o)
 .debug_line    0x0002217d      0x2fd c:/altera/11.1/nios2eds/bin/gnu/h-i686-mingw32/bin/../lib/gcc/nios2-elf/4.1.2/../../../../nios2-elf/lib/mhw-mulx\libc.a(lib_a-memchr.o)
 .debug_line    0x0002247a      0x1ac c:/altera/11.1/nios2eds/bin/gnu/h-i686-mingw32/bin/../lib/gcc/nios2-elf/4.1.2/../../../../nios2-elf/lib/mhw-mulx\libc.a(lib_a-memcpy.o)
 .debug_line    0x00022626      0x304 c:/altera/11.1/nios2eds/bin/gnu/h-i686-mingw32/bin/../lib/gcc/nios2-elf/4.1.2/../../../../nios2-elf/lib/mhw-mulx\libc.a(lib_a-memmove.o)
 .debug_line    0x0002292a      0x2fb c:/altera/11.1/nios2eds/bin/gnu/h-i686-mingw32/bin/../lib/gcc/nios2-elf/4.1.2/../../../../nios2-elf/lib/mhw-mulx\libc.a(lib_a-memset.o)
 .debug_line    0x00022c25     0x1240 c:/altera/11.1/nios2eds/bin/gnu/h-i686-mingw32/bin/../lib/gcc/nios2-elf/4.1.2/../../../../nios2-elf/lib/mhw-mulx\libc.a(lib_a-mprec.o)
 .debug_line    0x00023e65      0x2c1 c:/altera/11.1/nios2eds/bin/gnu/h-i686-mingw32/bin/../lib/gcc/nios2-elf/4.1.2/../../../../nios2-elf/lib/mhw-mulx\libc.a(lib_a-putc.o)
 .debug_line    0x00024126      0x587 c:/altera/11.1/nios2eds/bin/gnu/h-i686-mingw32/bin/../lib/gcc/nios2-elf/4.1.2/../../../../nios2-elf/lib/mhw-mulx\libc.a(lib_a-reallocr.o)
 .debug_line    0x000246ad      0x21f c:/altera/11.1/nios2eds/bin/gnu/h-i686-mingw32/bin/../lib/gcc/nios2-elf/4.1.2/../../../../nios2-elf/lib/mhw-mulx\libc.a(lib_a-s_isinfd.o)
 .debug_line    0x000248cc      0x217 c:/altera/11.1/nios2eds/bin/gnu/h-i686-mingw32/bin/../lib/gcc/nios2-elf/4.1.2/../../../../nios2-elf/lib/mhw-mulx\libc.a(lib_a-s_isnand.o)
 .debug_line    0x00024ae3      0x293 c:/altera/11.1/nios2eds/bin/gnu/h-i686-mingw32/bin/../lib/gcc/nios2-elf/4.1.2/../../../../nios2-elf/lib/mhw-mulx\libc.a(lib_a-sbrkr.o)
 .debug_line    0x00024d76      0x389 c:/altera/11.1/nios2eds/bin/gnu/h-i686-mingw32/bin/../lib/gcc/nios2-elf/4.1.2/../../../../nios2-elf/lib/mhw-mulx\libc.a(lib_a-stdio.o)
 .debug_line    0x000250ff      0x2cf c:/altera/11.1/nios2eds/bin/gnu/h-i686-mingw32/bin/../lib/gcc/nios2-elf/4.1.2/../../../../nios2-elf/lib/mhw-mulx\libc.a(lib_a-strcmp.o)
 .debug_line    0x000253ce      0x34d c:/altera/11.1/nios2eds/bin/gnu/h-i686-mingw32/bin/../lib/gcc/nios2-elf/4.1.2/../../../../nios2-elf/lib/mhw-mulx\libc.a(lib_a-wbuf.o)
 .debug_line    0x0002571b      0x294 c:/altera/11.1/nios2eds/bin/gnu/h-i686-mingw32/bin/../lib/gcc/nios2-elf/4.1.2/../../../../nios2-elf/lib/mhw-mulx\libc.a(lib_a-writer.o)
 .debug_line    0x000259af      0x259 c:/altera/11.1/nios2eds/bin/gnu/h-i686-mingw32/bin/../lib/gcc/nios2-elf/4.1.2/../../../../nios2-elf/lib/mhw-mulx\libc.a(lib_a-callocr.o)
 .debug_line    0x00025c08      0x294 c:/altera/11.1/nios2eds/bin/gnu/h-i686-mingw32/bin/../lib/gcc/nios2-elf/4.1.2/../../../../nios2-elf/lib/mhw-mulx\libc.a(lib_a-closer.o)
 .debug_line    0x00025e9c      0x2e5 c:/altera/11.1/nios2eds/bin/gnu/h-i686-mingw32/bin/../lib/gcc/nios2-elf/4.1.2/../../../../nios2-elf/lib/mhw-mulx\libc.a(lib_a-fclose.o)
 .debug_line    0x00026181      0x261 c:/altera/11.1/nios2eds/bin/gnu/h-i686-mingw32/bin/../lib/gcc/nios2-elf/4.1.2/../../../../nios2-elf/lib/mhw-mulx\libc.a(lib_a-fstatr.o)
 .debug_line    0x000263e2      0x1dc c:/altera/11.1/nios2eds/bin/gnu/h-i686-mingw32/bin/../lib/gcc/nios2-elf/4.1.2/../../../../nios2-elf/lib/mhw-mulx\libc.a(lib_a-int_errno.o)
 .debug_line    0x000265be      0x295 c:/altera/11.1/nios2eds/bin/gnu/h-i686-mingw32/bin/../lib/gcc/nios2-elf/4.1.2/../../../../nios2-elf/lib/mhw-mulx\libc.a(lib_a-isattyr.o)
 .debug_line    0x00026853      0x294 c:/altera/11.1/nios2eds/bin/gnu/h-i686-mingw32/bin/../lib/gcc/nios2-elf/4.1.2/../../../../nios2-elf/lib/mhw-mulx\libc.a(lib_a-lseekr.o)
 .debug_line    0x00026ae7      0x293 c:/altera/11.1/nios2eds/bin/gnu/h-i686-mingw32/bin/../lib/gcc/nios2-elf/4.1.2/../../../../nios2-elf/lib/mhw-mulx\libc.a(lib_a-readr.o)
 .debug_line    0x00026d7a      0x2f2 c:/altera/11.1/nios2eds/bin/gnu/h-i686-mingw32/bin/../lib/gcc/nios2-elf/4.1.2/mhw-mulx\libgcc.a(_udivdi3.o)
 .debug_line    0x0002706c      0x37d c:/altera/11.1/nios2eds/bin/gnu/h-i686-mingw32/bin/../lib/gcc/nios2-elf/4.1.2/mhw-mulx\libgcc.a(_umoddi3.o)
 .debug_line    0x000273e9      0x129 c:/altera/11.1/nios2eds/bin/gnu/h-i686-mingw32/bin/../lib/gcc/nios2-elf/4.1.2/mhw-mulx\libgcc.a(_eq_df.o)
 .debug_line    0x00027512      0x129 c:/altera/11.1/nios2eds/bin/gnu/h-i686-mingw32/bin/../lib/gcc/nios2-elf/4.1.2/mhw-mulx\libgcc.a(_ne_df.o)
 .debug_line    0x0002763b      0x129 c:/altera/11.1/nios2eds/bin/gnu/h-i686-mingw32/bin/../lib/gcc/nios2-elf/4.1.2/mhw-mulx\libgcc.a(_lt_df.o)
 .debug_line    0x00027764       0x6b ../GIGLE10_bsp\libucosii_bsp.a(alt_irq_entry.o)
 .debug_line    0x000277cf       0xab ../GIGLE10_bsp\libucosii_bsp.a(alt_exception_entry.o)
 .debug_line    0x0002787a       0x86 ../GIGLE10_bsp\libucosii_bsp.a(os_cpu_a.o)
 .debug_line    0x00027900      0x235 c:/altera/11.1/nios2eds/bin/gnu/h-i686-mingw32/bin/../lib/gcc/nios2-elf/4.1.2/../../../../nios2-elf/lib/mhw-mulx\libc.a(lib_a-exit.o)
 .debug_line    0x00027b35      0x299 c:/altera/11.1/nios2eds/bin/gnu/h-i686-mingw32/bin/../lib/gcc/nios2-elf/4.1.2/../../../../nios2-elf/lib/mhw-mulx\libc.a(lib_a-memcmp.o)
 .debug_line    0x00027dce      0x364 c:/altera/11.1/nios2eds/bin/gnu/h-i686-mingw32/bin/../lib/gcc/nios2-elf/4.1.2/../../../../nios2-elf/lib/mhw-mulx\libc.a(lib_a-__call_atexit.o)

.debug_frame    0x00000000     0x2c1c
 *(.debug_frame)
 .debug_frame   0x00000000      0x200 obj/Debug/alt_2_wire.o
 .debug_frame   0x00000200      0x1bc obj/Debug/c37dot94.o
 .debug_frame   0x000003bc       0x70 obj/Debug/c37dot94_task.o
 .debug_frame   0x0000042c      0x160 obj/Debug/c37dot94bert.o
 .debug_frame   0x0000058c       0x38 obj/Debug/cfg10_hw.o
 .debug_frame   0x000005c4       0x30 obj/Debug/cfg_c37.o
 .debug_frame   0x000005f4       0x20 obj/Debug/cfg_frame.o
 .debug_frame   0x00000614       0x38 obj/Debug/cfg_hw.o
 .debug_frame   0x0000064c      0x244 obj/Debug/config.o
 .debug_frame   0x00000890      0x2b8 obj/Debug/config10g.o
 .debug_frame   0x00000b48       0x28 obj/Debug/config_multistream.o
 .debug_frame   0x00000b70       0xec obj/Debug/flash.o
 .debug_frame   0x00000c5c       0x90 obj/Debug/functions.o
 .debug_frame   0x00000cec       0x3c obj/Debug/gui_link.o
 .debug_frame   0x00000d28       0x94 obj/Debug/helpers.o
 .debug_frame   0x00000dbc       0x3c obj/Debug/init.o
 .debug_frame   0x00000df8       0x88 obj/Debug/intr.o
 .debug_frame   0x00000e80       0x28 obj/Debug/link_task.o
 .debug_frame   0x00000ea8       0xbc obj/Debug/loopback.o
 .debug_frame   0x00000f64       0xe4 obj/Debug/main.o
 .debug_frame   0x00001048       0x74 obj/Debug/onesec_alrm.o
 .debug_frame   0x000010bc      0x5d0 obj/Debug/packet10g.o
 .debug_frame   0x0000168c       0xc8 obj/Debug/results.o
 .debug_frame   0x00001754      0x16c obj/Debug/sfp.o
 .debug_frame   0x000018c0       0xa8 obj/Debug/status.o
 .debug_frame   0x00001968       0x38 obj/Debug/update_headers.o
 .debug_frame   0x000019a0       0x28 c:/altera/11.1/nios2eds/bin/gnu/h-i686-mingw32/bin/../lib/gcc/nios2-elf/4.1.2/../../../../nios2-elf/lib/mhw-mulx\libm.a(lib_a-s_round.o)
 .debug_frame   0x000019c8       0x2c c:/altera/11.1/nios2eds/bin/gnu/h-i686-mingw32/bin/../lib/gcc/nios2-elf/4.1.2/mhw-mulx\libgcc.a(_fixunssfsi.o)
 .debug_frame   0x000019f4       0x30 c:/altera/11.1/nios2eds/bin/gnu/h-i686-mingw32/bin/../lib/gcc/nios2-elf/4.1.2/mhw-mulx\libgcc.a(_fixunsdfsi.o)
 .debug_frame   0x00001a24       0x30 c:/altera/11.1/nios2eds/bin/gnu/h-i686-mingw32/bin/../lib/gcc/nios2-elf/4.1.2/mhw-mulx\libgcc.a(_fixunsdfdi.o)
 .debug_frame   0x00001a54       0x30 c:/altera/11.1/nios2eds/bin/gnu/h-i686-mingw32/bin/../lib/gcc/nios2-elf/4.1.2/mhw-mulx\libgcc.a(_floatdidf.o)
 .debug_frame   0x00001a84       0x30 c:/altera/11.1/nios2eds/bin/gnu/h-i686-mingw32/bin/../lib/gcc/nios2-elf/4.1.2/mhw-mulx\libgcc.a(_floatundidf.o)
 .debug_frame   0x00001ab4       0x38 c:/altera/11.1/nios2eds/bin/gnu/h-i686-mingw32/bin/../lib/gcc/nios2-elf/4.1.2/mhw-mulx\libgcc.a(_divdi3.o)
 .debug_frame   0x00001aec       0x58 c:/altera/11.1/nios2eds/bin/gnu/h-i686-mingw32/bin/../lib/gcc/nios2-elf/4.1.2/mhw-mulx\libgcc.a(_addsub_sf.o)
 .debug_frame   0x00001b44       0x2c c:/altera/11.1/nios2eds/bin/gnu/h-i686-mingw32/bin/../lib/gcc/nios2-elf/4.1.2/mhw-mulx\libgcc.a(_mul_sf.o)
 .debug_frame   0x00001b70       0x2c c:/altera/11.1/nios2eds/bin/gnu/h-i686-mingw32/bin/../lib/gcc/nios2-elf/4.1.2/mhw-mulx\libgcc.a(_eq_sf.o)
 .debug_frame   0x00001b9c       0x2c c:/altera/11.1/nios2eds/bin/gnu/h-i686-mingw32/bin/../lib/gcc/nios2-elf/4.1.2/mhw-mulx\libgcc.a(_ge_sf.o)
 .debug_frame   0x00001bc8       0x28 c:/altera/11.1/nios2eds/bin/gnu/h-i686-mingw32/bin/../lib/gcc/nios2-elf/4.1.2/mhw-mulx\libgcc.a(_sf_to_si.o)
 .debug_frame   0x00001bf0       0x28 c:/altera/11.1/nios2eds/bin/gnu/h-i686-mingw32/bin/../lib/gcc/nios2-elf/4.1.2/mhw-mulx\libgcc.a(_sf_to_df.o)
 .debug_frame   0x00001c18       0x2c c:/altera/11.1/nios2eds/bin/gnu/h-i686-mingw32/bin/../lib/gcc/nios2-elf/4.1.2/mhw-mulx\libgcc.a(_usi_to_sf.o)
 .debug_frame   0x00001c44       0x70 c:/altera/11.1/nios2eds/bin/gnu/h-i686-mingw32/bin/../lib/gcc/nios2-elf/4.1.2/mhw-mulx\libgcc.a(_addsub_df.o)
 .debug_frame   0x00001cb4       0x3c c:/altera/11.1/nios2eds/bin/gnu/h-i686-mingw32/bin/../lib/gcc/nios2-elf/4.1.2/mhw-mulx\libgcc.a(_mul_df.o)
 .debug_frame   0x00001cf0       0x30 c:/altera/11.1/nios2eds/bin/gnu/h-i686-mingw32/bin/../lib/gcc/nios2-elf/4.1.2/mhw-mulx\libgcc.a(_div_df.o)
 .debug_frame   0x00001d20       0x2c c:/altera/11.1/nios2eds/bin/gnu/h-i686-mingw32/bin/../lib/gcc/nios2-elf/4.1.2/mhw-mulx\libgcc.a(_gt_df.o)
 .debug_frame   0x00001d4c       0x2c c:/altera/11.1/nios2eds/bin/gnu/h-i686-mingw32/bin/../lib/gcc/nios2-elf/4.1.2/mhw-mulx\libgcc.a(_ge_df.o)
 .debug_frame   0x00001d78       0x30 c:/altera/11.1/nios2eds/bin/gnu/h-i686-mingw32/bin/../lib/gcc/nios2-elf/4.1.2/mhw-mulx\libgcc.a(_si_to_df.o)
 .debug_frame   0x00001da8       0x28 c:/altera/11.1/nios2eds/bin/gnu/h-i686-mingw32/bin/../lib/gcc/nios2-elf/4.1.2/mhw-mulx\libgcc.a(_df_to_si.o)
 .debug_frame   0x00001dd0       0x28 c:/altera/11.1/nios2eds/bin/gnu/h-i686-mingw32/bin/../lib/gcc/nios2-elf/4.1.2/mhw-mulx\libgcc.a(_make_df.o)
 .debug_frame   0x00001df8       0x28 c:/altera/11.1/nios2eds/bin/gnu/h-i686-mingw32/bin/../lib/gcc/nios2-elf/4.1.2/mhw-mulx\libgcc.a(_df_to_sf.o)
 .debug_frame   0x00001e20       0x38 c:/altera/11.1/nios2eds/bin/gnu/h-i686-mingw32/bin/../lib/gcc/nios2-elf/4.1.2/mhw-mulx\libgcc.a(_usi_to_df.o)
 .debug_frame   0x00001e58       0x70 c:/altera/11.1/nios2eds/bin/gnu/h-i686-mingw32/bin/../lib/gcc/nios2-elf/4.1.2/mhw-mulx\libgcc.a(lib2-divmod.o)
 .debug_frame   0x00001ec8       0x20 c:/altera/11.1/nios2eds/bin/gnu/h-i686-mingw32/bin/../lib/gcc/nios2-elf/4.1.2/mhw-mulx\libgcc.a(_clzsi2.o)
 .debug_frame   0x00001ee8       0x20 c:/altera/11.1/nios2eds/bin/gnu/h-i686-mingw32/bin/../lib/gcc/nios2-elf/4.1.2/mhw-mulx\libgcc.a(_pack_sf.o)
 .debug_frame   0x00001f08       0x20 c:/altera/11.1/nios2eds/bin/gnu/h-i686-mingw32/bin/../lib/gcc/nios2-elf/4.1.2/mhw-mulx\libgcc.a(_unpack_sf.o)
 .debug_frame   0x00001f28       0x20 c:/altera/11.1/nios2eds/bin/gnu/h-i686-mingw32/bin/../lib/gcc/nios2-elf/4.1.2/mhw-mulx\libgcc.a(_fpcmp_parts_sf.o)
 .debug_frame   0x00001f48       0x28 c:/altera/11.1/nios2eds/bin/gnu/h-i686-mingw32/bin/../lib/gcc/nios2-elf/4.1.2/mhw-mulx\libgcc.a(_make_sf.o)
 .debug_frame   0x00001f70       0x2c c:/altera/11.1/nios2eds/bin/gnu/h-i686-mingw32/bin/../lib/gcc/nios2-elf/4.1.2/mhw-mulx\libgcc.a(_pack_df.o)
 .debug_frame   0x00001f9c       0x20 c:/altera/11.1/nios2eds/bin/gnu/h-i686-mingw32/bin/../lib/gcc/nios2-elf/4.1.2/mhw-mulx\libgcc.a(_unpack_df.o)
 .debug_frame   0x00001fbc       0x20 c:/altera/11.1/nios2eds/bin/gnu/h-i686-mingw32/bin/../lib/gcc/nios2-elf/4.1.2/mhw-mulx\libgcc.a(_fpcmp_parts_df.o)
 .debug_frame   0x00001fdc       0x40 c:/altera/11.1/nios2eds/bin/gnu/h-i686-mingw32/bin/../lib/gcc/nios2-elf/4.1.2/../../../../nios2-elf/lib/mhw-mulx\libc.a(lib_a-printf.o)
 .debug_frame   0x0000201c       0x30 c:/altera/11.1/nios2eds/bin/gnu/h-i686-mingw32/bin/../lib/gcc/nios2-elf/4.1.2/../../../../nios2-elf/lib/mhw-mulx\libc.a(lib_a-putchar.o)
 .debug_frame   0x0000204c       0x3c c:/altera/11.1/nios2eds/bin/gnu/h-i686-mingw32/bin/../lib/gcc/nios2-elf/4.1.2/../../../../nios2-elf/lib/mhw-mulx\libc.a(lib_a-puts.o)
 .debug_frame   0x00002088       0x20 c:/altera/11.1/nios2eds/bin/gnu/h-i686-mingw32/bin/../lib/gcc/nios2-elf/4.1.2/../../../../nios2-elf/lib/mhw-mulx\libc.a(lib_a-strlen.o)
 .debug_frame   0x000020a8       0x20 c:/altera/11.1/nios2eds/bin/gnu/h-i686-mingw32/bin/../lib/gcc/nios2-elf/4.1.2/../../../../nios2-elf/lib/mhw-mulx\libc.a(lib_a-strncmp.o)
 .debug_frame   0x000020c8       0x64 c:/altera/11.1/nios2eds/bin/gnu/h-i686-mingw32/bin/../lib/gcc/nios2-elf/4.1.2/../../../../nios2-elf/lib/mhw-mulx\libc.a(lib_a-vfprintf.o)
 .debug_frame   0x0000212c       0x2c c:/altera/11.1/nios2eds/bin/gnu/h-i686-mingw32/bin/../lib/gcc/nios2-elf/4.1.2/../../../../nios2-elf/lib/mhw-mulx\libc.a(lib_a-wsetup.o)
 .debug_frame   0x00002158       0x64 c:/altera/11.1/nios2eds/bin/gnu/h-i686-mingw32/bin/../lib/gcc/nios2-elf/4.1.2/../../../../nios2-elf/lib/mhw-mulx\libc.a(lib_a-dtoa.o)
 .debug_frame   0x000021bc       0x40 c:/altera/11.1/nios2eds/bin/gnu/h-i686-mingw32/bin/../lib/gcc/nios2-elf/4.1.2/../../../../nios2-elf/lib/mhw-mulx\libc.a(lib_a-fflush.o)
 .debug_frame   0x000021fc      0x118 c:/altera/11.1/nios2eds/bin/gnu/h-i686-mingw32/bin/../lib/gcc/nios2-elf/4.1.2/../../../../nios2-elf/lib/mhw-mulx\libc.a(lib_a-findfp.o)
 .debug_frame   0x00002314       0x4c c:/altera/11.1/nios2eds/bin/gnu/h-i686-mingw32/bin/../lib/gcc/nios2-elf/4.1.2/../../../../nios2-elf/lib/mhw-mulx\libc.a(lib_a-freer.o)
 .debug_frame   0x00002360       0x38 c:/altera/11.1/nios2eds/bin/gnu/h-i686-mingw32/bin/../lib/gcc/nios2-elf/4.1.2/../../../../nios2-elf/lib/mhw-mulx\libc.a(lib_a-fvwrite.o)
 .debug_frame   0x00002398       0x60 c:/altera/11.1/nios2eds/bin/gnu/h-i686-mingw32/bin/../lib/gcc/nios2-elf/4.1.2/../../../../nios2-elf/lib/mhw-mulx\libc.a(lib_a-fwalk.o)
 .debug_frame   0x000023f8       0x70 c:/altera/11.1/nios2eds/bin/gnu/h-i686-mingw32/bin/../lib/gcc/nios2-elf/4.1.2/../../../../nios2-elf/lib/mhw-mulx\libc.a(lib_a-locale.o)
 .debug_frame   0x00002468       0x2c c:/altera/11.1/nios2eds/bin/gnu/h-i686-mingw32/bin/../lib/gcc/nios2-elf/4.1.2/../../../../nios2-elf/lib/mhw-mulx\libc.a(lib_a-makebuf.o)
 .debug_frame   0x00002494       0x38 c:/altera/11.1/nios2eds/bin/gnu/h-i686-mingw32/bin/../lib/gcc/nios2-elf/4.1.2/../../../../nios2-elf/lib/mhw-mulx\libc.a(lib_a-mallocr.o)
 .debug_frame   0x000024cc       0x20 c:/altera/11.1/nios2eds/bin/gnu/h-i686-mingw32/bin/../lib/gcc/nios2-elf/4.1.2/../../../../nios2-elf/lib/mhw-mulx\libc.a(lib_a-memchr.o)
 .debug_frame   0x000024ec       0x20 c:/altera/11.1/nios2eds/bin/gnu/h-i686-mingw32/bin/../lib/gcc/nios2-elf/4.1.2/../../../../nios2-elf/lib/mhw-mulx\libc.a(lib_a-memcpy.o)
 .debug_frame   0x0000250c       0x20 c:/altera/11.1/nios2eds/bin/gnu/h-i686-mingw32/bin/../lib/gcc/nios2-elf/4.1.2/../../../../nios2-elf/lib/mhw-mulx\libc.a(lib_a-memmove.o)
 .debug_frame   0x0000252c       0x20 c:/altera/11.1/nios2eds/bin/gnu/h-i686-mingw32/bin/../lib/gcc/nios2-elf/4.1.2/../../../../nios2-elf/lib/mhw-mulx\libc.a(lib_a-memset.o)
 .debug_frame   0x0000254c      0x218 c:/altera/11.1/nios2eds/bin/gnu/h-i686-mingw32/bin/../lib/gcc/nios2-elf/4.1.2/../../../../nios2-elf/lib/mhw-mulx\libc.a(lib_a-mprec.o)
 .debug_frame   0x00002764       0x4c c:/altera/11.1/nios2eds/bin/gnu/h-i686-mingw32/bin/../lib/gcc/nios2-elf/4.1.2/../../../../nios2-elf/lib/mhw-mulx\libc.a(lib_a-putc.o)
 .debug_frame   0x000027b0       0x38 c:/altera/11.1/nios2eds/bin/gnu/h-i686-mingw32/bin/../lib/gcc/nios2-elf/4.1.2/../../../../nios2-elf/lib/mhw-mulx\libc.a(lib_a-reallocr.o)
 .debug_frame   0x000027e8       0x20 c:/altera/11.1/nios2eds/bin/gnu/h-i686-mingw32/bin/../lib/gcc/nios2-elf/4.1.2/../../../../nios2-elf/lib/mhw-mulx\libc.a(lib_a-s_isinfd.o)
 .debug_frame   0x00002808       0x20 c:/altera/11.1/nios2eds/bin/gnu/h-i686-mingw32/bin/../lib/gcc/nios2-elf/4.1.2/../../../../nios2-elf/lib/mhw-mulx\libc.a(lib_a-s_isnand.o)
 .debug_frame   0x00002828       0x2c c:/altera/11.1/nios2eds/bin/gnu/h-i686-mingw32/bin/../lib/gcc/nios2-elf/4.1.2/../../../../nios2-elf/lib/mhw-mulx\libc.a(lib_a-sbrkr.o)
 .debug_frame   0x00002854       0x78 c:/altera/11.1/nios2eds/bin/gnu/h-i686-mingw32/bin/../lib/gcc/nios2-elf/4.1.2/../../../../nios2-elf/lib/mhw-mulx\libc.a(lib_a-stdio.o)
 .debug_frame   0x000028cc       0x20 c:/altera/11.1/nios2eds/bin/gnu/h-i686-mingw32/bin/../lib/gcc/nios2-elf/4.1.2/../../../../nios2-elf/lib/mhw-mulx\libc.a(lib_a-strcmp.o)
 .debug_frame   0x000028ec       0x3c c:/altera/11.1/nios2eds/bin/gnu/h-i686-mingw32/bin/../lib/gcc/nios2-elf/4.1.2/../../../../nios2-elf/lib/mhw-mulx\libc.a(lib_a-wbuf.o)
 .debug_frame   0x00002928       0x2c c:/altera/11.1/nios2eds/bin/gnu/h-i686-mingw32/bin/../lib/gcc/nios2-elf/4.1.2/../../../../nios2-elf/lib/mhw-mulx\libc.a(lib_a-writer.o)
 .debug_frame   0x00002954       0x28 c:/altera/11.1/nios2eds/bin/gnu/h-i686-mingw32/bin/../lib/gcc/nios2-elf/4.1.2/../../../../nios2-elf/lib/mhw-mulx\libc.a(lib_a-callocr.o)
 .debug_frame   0x0000297c       0x2c c:/altera/11.1/nios2eds/bin/gnu/h-i686-mingw32/bin/../lib/gcc/nios2-elf/4.1.2/../../../../nios2-elf/lib/mhw-mulx\libc.a(lib_a-closer.o)
 .debug_frame   0x000029a8       0x3c c:/altera/11.1/nios2eds/bin/gnu/h-i686-mingw32/bin/../lib/gcc/nios2-elf/4.1.2/../../../../nios2-elf/lib/mhw-mulx\libc.a(lib_a-fclose.o)
 .debug_frame   0x000029e4       0x2c c:/altera/11.1/nios2eds/bin/gnu/h-i686-mingw32/bin/../lib/gcc/nios2-elf/4.1.2/../../../../nios2-elf/lib/mhw-mulx\libc.a(lib_a-fstatr.o)
 .debug_frame   0x00002a10       0x2c c:/altera/11.1/nios2eds/bin/gnu/h-i686-mingw32/bin/../lib/gcc/nios2-elf/4.1.2/../../../../nios2-elf/lib/mhw-mulx\libc.a(lib_a-isattyr.o)
 .debug_frame   0x00002a3c       0x2c c:/altera/11.1/nios2eds/bin/gnu/h-i686-mingw32/bin/../lib/gcc/nios2-elf/4.1.2/../../../../nios2-elf/lib/mhw-mulx\libc.a(lib_a-lseekr.o)
 .debug_frame   0x00002a68       0x2c c:/altera/11.1/nios2eds/bin/gnu/h-i686-mingw32/bin/../lib/gcc/nios2-elf/4.1.2/../../../../nios2-elf/lib/mhw-mulx\libc.a(lib_a-readr.o)
 .debug_frame   0x00002a94       0x38 c:/altera/11.1/nios2eds/bin/gnu/h-i686-mingw32/bin/../lib/gcc/nios2-elf/4.1.2/mhw-mulx\libgcc.a(_udivdi3.o)
 .debug_frame   0x00002acc       0x38 c:/altera/11.1/nios2eds/bin/gnu/h-i686-mingw32/bin/../lib/gcc/nios2-elf/4.1.2/mhw-mulx\libgcc.a(_umoddi3.o)
 .debug_frame   0x00002b04       0x2c c:/altera/11.1/nios2eds/bin/gnu/h-i686-mingw32/bin/../lib/gcc/nios2-elf/4.1.2/mhw-mulx\libgcc.a(_eq_df.o)
 .debug_frame   0x00002b30       0x2c c:/altera/11.1/nios2eds/bin/gnu/h-i686-mingw32/bin/../lib/gcc/nios2-elf/4.1.2/mhw-mulx\libgcc.a(_ne_df.o)
 .debug_frame   0x00002b5c       0x2c c:/altera/11.1/nios2eds/bin/gnu/h-i686-mingw32/bin/../lib/gcc/nios2-elf/4.1.2/mhw-mulx\libgcc.a(_lt_df.o)
 .debug_frame   0x00002b88       0x28 c:/altera/11.1/nios2eds/bin/gnu/h-i686-mingw32/bin/../lib/gcc/nios2-elf/4.1.2/../../../../nios2-elf/lib/mhw-mulx\libc.a(lib_a-exit.o)
 .debug_frame   0x00002bb0       0x20 c:/altera/11.1/nios2eds/bin/gnu/h-i686-mingw32/bin/../lib/gcc/nios2-elf/4.1.2/../../../../nios2-elf/lib/mhw-mulx\libc.a(lib_a-memcmp.o)
 .debug_frame   0x00002bd0       0x4c c:/altera/11.1/nios2eds/bin/gnu/h-i686-mingw32/bin/../lib/gcc/nios2-elf/4.1.2/../../../../nios2-elf/lib/mhw-mulx\libc.a(lib_a-__call_atexit.o)

.debug_str      0x00000000     0x679a
 *(.debug_str)
 .debug_str     0x00000000      0x27d obj/Debug/alt_2_wire.o
                                0x2c8 (size before relaxing)
 .debug_str     0x0000027d      0x274 obj/Debug/c37dot94.o
                                0x397 (size before relaxing)
 .debug_str     0x000004f1      0x102 obj/Debug/c37dot94_task.o
                                0x230 (size before relaxing)
 .debug_str     0x000005f3      0x1a6 obj/Debug/c37dot94bert.o
                                0x35f (size before relaxing)
 .debug_str     0x00000799      0x1f6 obj/Debug/cfg10_hw.o
                                0x308 (size before relaxing)
 .debug_str     0x0000098f       0x3b obj/Debug/cfg_c37.o
                                0x1f9 (size before relaxing)
 .debug_str     0x000009ca       0x23 obj/Debug/cfg_frame.o
                                0x124 (size before relaxing)
 .debug_str     0x000009ed      0x1e2 obj/Debug/cfg_hw.o
                                0x45c (size before relaxing)
 .debug_str     0x00000bcf      0x3b8 obj/Debug/config.o
                                0x606 (size before relaxing)
 .debug_str     0x00000f87      0x3b2 obj/Debug/config10g.o
                                0x55e (size before relaxing)
 .debug_str     0x00001339       0x3f obj/Debug/config_multistream.o
                                0x168 (size before relaxing)
 .debug_str     0x00001378      0x2ff obj/Debug/flash.o
                                0x50b (size before relaxing)
 .debug_str     0x00001677       0xd2 obj/Debug/functions.o
                                0x1f7 (size before relaxing)
 .debug_str     0x00001749      0x114 obj/Debug/gui_link.o
                                0x2c2 (size before relaxing)
 .debug_str     0x0000185d       0xb4 obj/Debug/helpers.o
                                0x1c8 (size before relaxing)
 .debug_str     0x00001911       0xbd obj/Debug/init.o
                                0x341 (size before relaxing)
 .debug_str     0x000019ce      0x14e obj/Debug/intr.o
                                0x3b7 (size before relaxing)
 .debug_str     0x00001b1c       0x16 obj/Debug/link_task.o
                                0x128 (size before relaxing)
 .debug_str     0x00001b32       0xf4 obj/Debug/loopback.o
                                0x389 (size before relaxing)
 .debug_str     0x00001c26     0x208c obj/Debug/main.o
                               0x2a12 (size before relaxing)
 .debug_str     0x00003cb2       0x64 obj/Debug/onesec_alrm.o
                                0x32a (size before relaxing)
 .debug_str     0x00003d16      0x786 obj/Debug/packet10g.o
                               0x1037 (size before relaxing)
 .debug_str     0x0000449c       0xbe obj/Debug/results.o
                                0x1e8 (size before relaxing)
 .debug_str     0x0000455a      0x10a obj/Debug/sfp.o
                                0x2a8 (size before relaxing)
 .debug_str     0x00004664       0x96 obj/Debug/status.o
                                0x1de (size before relaxing)
 .debug_str     0x000046fa       0x29 obj/Debug/update_headers.o
                               0x1d14 (size before relaxing)
 .debug_str     0x00004723      0x12e c:/altera/11.1/nios2eds/bin/gnu/h-i686-mingw32/bin/../lib/gcc/nios2-elf/4.1.2/../../../../nios2-elf/lib/mhw-mulx\libm.a(lib_a-s_round.o)
                                0x1e8 (size before relaxing)
 .debug_str     0x00004851       0xc6 c:/altera/11.1/nios2eds/bin/gnu/h-i686-mingw32/bin/../lib/gcc/nios2-elf/4.1.2/mhw-mulx\libgcc.a(_fixunssfsi.o)
                                0x168 (size before relaxing)
 .debug_str     0x00004917       0x14 c:/altera/11.1/nios2eds/bin/gnu/h-i686-mingw32/bin/../lib/gcc/nios2-elf/4.1.2/mhw-mulx\libgcc.a(_fixunsdfsi.o)
                                0x168 (size before relaxing)
 .debug_str     0x0000492b        0xd c:/altera/11.1/nios2eds/bin/gnu/h-i686-mingw32/bin/../lib/gcc/nios2-elf/4.1.2/mhw-mulx\libgcc.a(_fixunsdfdi.o)
                                0x16f (size before relaxing)
 .debug_str     0x00004938        0xc c:/altera/11.1/nios2eds/bin/gnu/h-i686-mingw32/bin/../lib/gcc/nios2-elf/4.1.2/mhw-mulx\libgcc.a(_floatdidf.o)
                                0x166 (size before relaxing)
 .debug_str     0x00004944       0x16 c:/altera/11.1/nios2eds/bin/gnu/h-i686-mingw32/bin/../lib/gcc/nios2-elf/4.1.2/mhw-mulx\libgcc.a(_floatundidf.o)
                                0x169 (size before relaxing)
 .debug_str     0x0000495a       0x93 c:/altera/11.1/nios2eds/bin/gnu/h-i686-mingw32/bin/../lib/gcc/nios2-elf/4.1.2/mhw-mulx\libgcc.a(_divdi3.o)
                                0x1fd (size before relaxing)
 .debug_str     0x000049ed      0x132 c:/altera/11.1/nios2eds/bin/gnu/h-i686-mingw32/bin/../lib/gcc/nios2-elf/4.1.2/mhw-mulx\libgcc.a(_addsub_sf.o)
                                0x266 (size before relaxing)
 .debug_str     0x00004b1f       0x1d c:/altera/11.1/nios2eds/bin/gnu/h-i686-mingw32/bin/../lib/gcc/nios2-elf/4.1.2/mhw-mulx\libgcc.a(_mul_sf.o)
                                0x21d (size before relaxing)
 .debug_str     0x00004b3c        0x8 c:/altera/11.1/nios2eds/bin/gnu/h-i686-mingw32/bin/../lib/gcc/nios2-elf/4.1.2/mhw-mulx\libgcc.a(_eq_sf.o)
                                0x1f5 (size before relaxing)
 .debug_str     0x00004b44        0x8 c:/altera/11.1/nios2eds/bin/gnu/h-i686-mingw32/bin/../lib/gcc/nios2-elf/4.1.2/mhw-mulx\libgcc.a(_ge_sf.o)
                                0x1f5 (size before relaxing)
 .debug_str     0x00004b4c        0xa c:/altera/11.1/nios2eds/bin/gnu/h-i686-mingw32/bin/../lib/gcc/nios2-elf/4.1.2/mhw-mulx\libgcc.a(_sf_to_si.o)
                                0x1fe (size before relaxing)
 .debug_str     0x00004b56        0xe c:/altera/11.1/nios2eds/bin/gnu/h-i686-mingw32/bin/../lib/gcc/nios2-elf/4.1.2/mhw-mulx\libgcc.a(_sf_to_df.o)
                                0x1ef (size before relaxing)
 .debug_str     0x00000000      0x1a0 c:/altera/11.1/nios2eds/bin/gnu/h-i686-mingw32/bin/../lib/gcc/nios2-elf/4.1.2/mhw-mulx\libgcc.a(_thenan_sf.o)
 .debug_str     0x00004b64       0x1b c:/altera/11.1/nios2eds/bin/gnu/h-i686-mingw32/bin/../lib/gcc/nios2-elf/4.1.2/mhw-mulx\libgcc.a(_usi_to_sf.o)
                                0x1d7 (size before relaxing)
 .debug_str     0x00004b7f       0x2d c:/altera/11.1/nios2eds/bin/gnu/h-i686-mingw32/bin/../lib/gcc/nios2-elf/4.1.2/mhw-mulx\libgcc.a(_addsub_df.o)
                                0x26c (size before relaxing)
 .debug_str     0x00004bac       0x33 c:/altera/11.1/nios2eds/bin/gnu/h-i686-mingw32/bin/../lib/gcc/nios2-elf/4.1.2/mhw-mulx\libgcc.a(_mul_df.o)
                                0x23e (size before relaxing)
 .debug_str     0x00004bdf       0x35 c:/altera/11.1/nios2eds/bin/gnu/h-i686-mingw32/bin/../lib/gcc/nios2-elf/4.1.2/mhw-mulx\libgcc.a(_div_df.o)
                                0x22e (size before relaxing)
 .debug_str     0x00004c14        0x8 c:/altera/11.1/nios2eds/bin/gnu/h-i686-mingw32/bin/../lib/gcc/nios2-elf/4.1.2/mhw-mulx\libgcc.a(_gt_df.o)
                                0x1fb (size before relaxing)
 .debug_str     0x00004c1c        0x8 c:/altera/11.1/nios2eds/bin/gnu/h-i686-mingw32/bin/../lib/gcc/nios2-elf/4.1.2/mhw-mulx\libgcc.a(_ge_df.o)
                                0x1fb (size before relaxing)
 .debug_str     0x00004c24       0x11 c:/altera/11.1/nios2eds/bin/gnu/h-i686-mingw32/bin/../lib/gcc/nios2-elf/4.1.2/mhw-mulx\libgcc.a(_si_to_df.o)
                                0x1db (size before relaxing)
 .debug_str     0x00004c35        0xa c:/altera/11.1/nios2eds/bin/gnu/h-i686-mingw32/bin/../lib/gcc/nios2-elf/4.1.2/mhw-mulx\libgcc.a(_df_to_si.o)
                                0x204 (size before relaxing)
 .debug_str     0x00004c3f        0xa c:/altera/11.1/nios2eds/bin/gnu/h-i686-mingw32/bin/../lib/gcc/nios2-elf/4.1.2/mhw-mulx\libgcc.a(_make_df.o)
                                0x1b6 (size before relaxing)
 .debug_str     0x00004c49       0x14 c:/altera/11.1/nios2eds/bin/gnu/h-i686-mingw32/bin/../lib/gcc/nios2-elf/4.1.2/mhw-mulx\libgcc.a(_df_to_sf.o)
                                0x1fb (size before relaxing)
 .debug_str     0x00000000      0x1a0 c:/altera/11.1/nios2eds/bin/gnu/h-i686-mingw32/bin/../lib/gcc/nios2-elf/4.1.2/mhw-mulx\libgcc.a(_thenan_df.o)
 .debug_str     0x00004c5d        0xe c:/altera/11.1/nios2eds/bin/gnu/h-i686-mingw32/bin/../lib/gcc/nios2-elf/4.1.2/mhw-mulx\libgcc.a(_usi_to_df.o)
                                0x1d7 (size before relaxing)
 .debug_str     0x00004c6b       0x6c c:/altera/11.1/nios2eds/bin/gnu/h-i686-mingw32/bin/../lib/gcc/nios2-elf/4.1.2/mhw-mulx\libgcc.a(lib2-divmod.o)
                                0x1b1 (size before relaxing)
 .debug_str     0x00000000      0x15e c:/altera/11.1/nios2eds/bin/gnu/h-i686-mingw32/bin/../lib/gcc/nios2-elf/4.1.2/mhw-mulx\libgcc.a(_clz.o)
 .debug_str     0x00004cd7        0x9 c:/altera/11.1/nios2eds/bin/gnu/h-i686-mingw32/bin/../lib/gcc/nios2-elf/4.1.2/mhw-mulx\libgcc.a(_clzsi2.o)
                                0x17b (size before relaxing)
 .debug_str     0x00004ce0       0x10 c:/altera/11.1/nios2eds/bin/gnu/h-i686-mingw32/bin/../lib/gcc/nios2-elf/4.1.2/mhw-mulx\libgcc.a(_pack_sf.o)
                                0x1fd (size before relaxing)
 .debug_str     0x00004cf0        0xb c:/altera/11.1/nios2eds/bin/gnu/h-i686-mingw32/bin/../lib/gcc/nios2-elf/4.1.2/mhw-mulx\libgcc.a(_unpack_sf.o)
                                0x1df (size before relaxing)
 .debug_str     0x00004cfb       0x10 c:/altera/11.1/nios2eds/bin/gnu/h-i686-mingw32/bin/../lib/gcc/nios2-elf/4.1.2/mhw-mulx\libgcc.a(_fpcmp_parts_sf.o)
                                0x1c3 (size before relaxing)
 .debug_str     0x00004d0b        0xa c:/altera/11.1/nios2eds/bin/gnu/h-i686-mingw32/bin/../lib/gcc/nios2-elf/4.1.2/mhw-mulx\libgcc.a(_make_sf.o)
                                0x1b6 (size before relaxing)
 .debug_str     0x00004d15        0x9 c:/altera/11.1/nios2eds/bin/gnu/h-i686-mingw32/bin/../lib/gcc/nios2-elf/4.1.2/mhw-mulx\libgcc.a(_pack_df.o)
                                0x203 (size before relaxing)
 .debug_str     0x00004d1e        0xb c:/altera/11.1/nios2eds/bin/gnu/h-i686-mingw32/bin/../lib/gcc/nios2-elf/4.1.2/mhw-mulx\libgcc.a(_unpack_df.o)
                                0x1e5 (size before relaxing)
 .debug_str     0x00004d29       0x10 c:/altera/11.1/nios2eds/bin/gnu/h-i686-mingw32/bin/../lib/gcc/nios2-elf/4.1.2/mhw-mulx\libgcc.a(_fpcmp_parts_df.o)
                                0x1c3 (size before relaxing)
 .debug_str     0x00004d39      0x42c c:/altera/11.1/nios2eds/bin/gnu/h-i686-mingw32/bin/../lib/gcc/nios2-elf/4.1.2/../../../../nios2-elf/lib/mhw-mulx\libc.a(lib_a-printf.o)
                                0x52c (size before relaxing)
 .debug_str     0x00005165       0x49 c:/altera/11.1/nios2eds/bin/gnu/h-i686-mingw32/bin/../lib/gcc/nios2-elf/4.1.2/../../../../nios2-elf/lib/mhw-mulx\libc.a(lib_a-putchar.o)
                                0x518 (size before relaxing)
 .debug_str     0x000051ae       0x84 c:/altera/11.1/nios2eds/bin/gnu/h-i686-mingw32/bin/../lib/gcc/nios2-elf/4.1.2/../../../../nios2-elf/lib/mhw-mulx\libc.a(lib_a-puts.o)
                                0x552 (size before relaxing)
 .debug_str     0x00005232       0xe4 c:/altera/11.1/nios2eds/bin/gnu/h-i686-mingw32/bin/../lib/gcc/nios2-elf/4.1.2/../../../../nios2-elf/lib/mhw-mulx\libc.a(lib_a-strlen.o)
                                0x186 (size before relaxing)
 .debug_str     0x00005316       0x47 c:/altera/11.1/nios2eds/bin/gnu/h-i686-mingw32/bin/../lib/gcc/nios2-elf/4.1.2/../../../../nios2-elf/lib/mhw-mulx\libc.a(lib_a-strncmp.o)
                                0x175 (size before relaxing)
 .debug_str     0x0000535d      0x164 c:/altera/11.1/nios2eds/bin/gnu/h-i686-mingw32/bin/../lib/gcc/nios2-elf/4.1.2/../../../../nios2-elf/lib/mhw-mulx\libc.a(lib_a-vfprintf.o)
                                0x701 (size before relaxing)
 .debug_str     0x000054c1       0x49 c:/altera/11.1/nios2eds/bin/gnu/h-i686-mingw32/bin/../lib/gcc/nios2-elf/4.1.2/../../../../nios2-elf/lib/mhw-mulx\libc.a(lib_a-wsetup.o)
                                0x515 (size before relaxing)
 .debug_str     0x0000550a      0x197 c:/altera/11.1/nios2eds/bin/gnu/h-i686-mingw32/bin/../lib/gcc/nios2-elf/4.1.2/../../../../nios2-elf/lib/mhw-mulx\libc.a(lib_a-dtoa.o)
                                0x60a (size before relaxing)
 .debug_str     0x000056a1       0x68 c:/altera/11.1/nios2eds/bin/gnu/h-i686-mingw32/bin/../lib/gcc/nios2-elf/4.1.2/../../../../nios2-elf/lib/mhw-mulx\libc.a(lib_a-fflush.o)
                                0x53b (size before relaxing)
 .debug_str     0x00005709      0x105 c:/altera/11.1/nios2eds/bin/gnu/h-i686-mingw32/bin/../lib/gcc/nios2-elf/4.1.2/../../../../nios2-elf/lib/mhw-mulx\libc.a(lib_a-findfp.o)
                                0x5fd (size before relaxing)
 .debug_str     0x0000580e      0x15e c:/altera/11.1/nios2eds/bin/gnu/h-i686-mingw32/bin/../lib/gcc/nios2-elf/4.1.2/../../../../nios2-elf/lib/mhw-mulx\libc.a(lib_a-freer.o)
                                0x64c (size before relaxing)
 .debug_str     0x0000596c       0x69 c:/altera/11.1/nios2eds/bin/gnu/h-i686-mingw32/bin/../lib/gcc/nios2-elf/4.1.2/../../../../nios2-elf/lib/mhw-mulx\libc.a(lib_a-fvwrite.o)
                                0x56c (size before relaxing)
 .debug_str     0x000059d5       0x61 c:/altera/11.1/nios2eds/bin/gnu/h-i686-mingw32/bin/../lib/gcc/nios2-elf/4.1.2/../../../../nios2-elf/lib/mhw-mulx\libc.a(lib_a-fwalk.o)
                                0x53e (size before relaxing)
 .debug_str     0x00005a36       0xda c:/altera/11.1/nios2eds/bin/gnu/h-i686-mingw32/bin/../lib/gcc/nios2-elf/4.1.2/../../../../nios2-elf/lib/mhw-mulx\libc.a(lib_a-impure.o)
                                0x523 (size before relaxing)
 .debug_str     0x00005b10      0x22e c:/altera/11.1/nios2eds/bin/gnu/h-i686-mingw32/bin/../lib/gcc/nios2-elf/4.1.2/../../../../nios2-elf/lib/mhw-mulx\libc.a(lib_a-locale.o)
                                0x6b2 (size before relaxing)
 .debug_str     0x00005d3e      0x126 c:/altera/11.1/nios2eds/bin/gnu/h-i686-mingw32/bin/../lib/gcc/nios2-elf/4.1.2/../../../../nios2-elf/lib/mhw-mulx\libc.a(lib_a-makebuf.o)
                                0x60f (size before relaxing)
 .debug_str     0x00005e64       0xe3 c:/altera/11.1/nios2eds/bin/gnu/h-i686-mingw32/bin/../lib/gcc/nios2-elf/4.1.2/../../../../nios2-elf/lib/mhw-mulx\libc.a(lib_a-mallocr.o)
                                0x6fa (size before relaxing)
 .debug_str     0x00005f47       0x5a c:/altera/11.1/nios2eds/bin/gnu/h-i686-mingw32/bin/../lib/gcc/nios2-elf/4.1.2/../../../../nios2-elf/lib/mhw-mulx\libc.a(lib_a-memchr.o)
                                0x194 (size before relaxing)
 .debug_str     0x00005fa1       0x6c c:/altera/11.1/nios2eds/bin/gnu/h-i686-mingw32/bin/../lib/gcc/nios2-elf/4.1.2/../../../../nios2-elf/lib/mhw-mulx\libc.a(lib_a-memcpy.o)
                                0x131 (size before relaxing)
 .debug_str     0x0000600d       0x50 c:/altera/11.1/nios2eds/bin/gnu/h-i686-mingw32/bin/../lib/gcc/nios2-elf/4.1.2/../../../../nios2-elf/lib/mhw-mulx\libc.a(lib_a-memmove.o)
                                0x1a6 (size before relaxing)
 .debug_str     0x0000605d       0x45 c:/altera/11.1/nios2eds/bin/gnu/h-i686-mingw32/bin/../lib/gcc/nios2-elf/4.1.2/../../../../nios2-elf/lib/mhw-mulx\libc.a(lib_a-memset.o)
                                0x187 (size before relaxing)
 .debug_str     0x000060a2       0xfb c:/altera/11.1/nios2eds/bin/gnu/h-i686-mingw32/bin/../lib/gcc/nios2-elf/4.1.2/../../../../nios2-elf/lib/mhw-mulx\libc.a(lib_a-mprec.o)
                                0x617 (size before relaxing)
 .debug_str     0x0000619d       0x48 c:/altera/11.1/nios2eds/bin/gnu/h-i686-mingw32/bin/../lib/gcc/nios2-elf/4.1.2/../../../../nios2-elf/lib/mhw-mulx\libc.a(lib_a-putc.o)
                                0x51b (size before relaxing)
 .debug_str     0x000061e5       0x54 c:/altera/11.1/nios2eds/bin/gnu/h-i686-mingw32/bin/../lib/gcc/nios2-elf/4.1.2/../../../../nios2-elf/lib/mhw-mulx\libc.a(lib_a-reallocr.o)
                                0x5cc (size before relaxing)
 .debug_str     0x00006239       0x49 c:/altera/11.1/nios2eds/bin/gnu/h-i686-mingw32/bin/../lib/gcc/nios2-elf/4.1.2/../../../../nios2-elf/lib/mhw-mulx\libc.a(lib_a-s_isinfd.o)
                                0x193 (size before relaxing)
 .debug_str     0x00006282       0x49 c:/altera/11.1/nios2eds/bin/gnu/h-i686-mingw32/bin/../lib/gcc/nios2-elf/4.1.2/../../../../nios2-elf/lib/mhw-mulx\libc.a(lib_a-s_isnand.o)
                                0x193 (size before relaxing)
 .debug_str     0x000062cb       0x53 c:/altera/11.1/nios2eds/bin/gnu/h-i686-mingw32/bin/../lib/gcc/nios2-elf/4.1.2/../../../../nios2-elf/lib/mhw-mulx\libc.a(lib_a-sbrkr.o)
                                0x514 (size before relaxing)
 .debug_str     0x0000631e       0x65 c:/altera/11.1/nios2eds/bin/gnu/h-i686-mingw32/bin/../lib/gcc/nios2-elf/4.1.2/../../../../nios2-elf/lib/mhw-mulx\libc.a(lib_a-stdio.o)
                                0x53a (size before relaxing)
 .debug_str     0x00006383       0x45 c:/altera/11.1/nios2eds/bin/gnu/h-i686-mingw32/bin/../lib/gcc/nios2-elf/4.1.2/../../../../nios2-elf/lib/mhw-mulx\libc.a(lib_a-strcmp.o)
                                0x16c (size before relaxing)
 .debug_str     0x000063c8       0x4d c:/altera/11.1/nios2eds/bin/gnu/h-i686-mingw32/bin/../lib/gcc/nios2-elf/4.1.2/../../../../nios2-elf/lib/mhw-mulx\libc.a(lib_a-wbuf.o)
                                0x519 (size before relaxing)
 .debug_str     0x00006415       0x4f c:/altera/11.1/nios2eds/bin/gnu/h-i686-mingw32/bin/../lib/gcc/nios2-elf/4.1.2/../../../../nios2-elf/lib/mhw-mulx\libc.a(lib_a-writer.o)
                                0x517 (size before relaxing)
 .debug_str     0x00006464       0x19 c:/altera/11.1/nios2eds/bin/gnu/h-i686-mingw32/bin/../lib/gcc/nios2-elf/4.1.2/../../../../nios2-elf/lib/mhw-mulx\libc.a(lib_a-callocr.o)
                                0x54b (size before relaxing)
 .debug_str     0x0000647d       0x46 c:/altera/11.1/nios2eds/bin/gnu/h-i686-mingw32/bin/../lib/gcc/nios2-elf/4.1.2/../../../../nios2-elf/lib/mhw-mulx\libc.a(lib_a-closer.o)
                                0x507 (size before relaxing)
 .debug_str     0x000064c3       0x4e c:/altera/11.1/nios2eds/bin/gnu/h-i686-mingw32/bin/../lib/gcc/nios2-elf/4.1.2/../../../../nios2-elf/lib/mhw-mulx\libc.a(lib_a-fclose.o)
                                0x51f (size before relaxing)
 .debug_str     0x00006511       0x4c c:/altera/11.1/nios2eds/bin/gnu/h-i686-mingw32/bin/../lib/gcc/nios2-elf/4.1.2/../../../../nios2-elf/lib/mhw-mulx\libc.a(lib_a-fstatr.o)
                                0x5fa (size before relaxing)
 .debug_str     0x0000655d       0x40 c:/altera/11.1/nios2eds/bin/gnu/h-i686-mingw32/bin/../lib/gcc/nios2-elf/4.1.2/../../../../nios2-elf/lib/mhw-mulx\libc.a(lib_a-int_errno.o)
                                0x16c (size before relaxing)
 .debug_str     0x0000659d       0x48 c:/altera/11.1/nios2eds/bin/gnu/h-i686-mingw32/bin/../lib/gcc/nios2-elf/4.1.2/../../../../nios2-elf/lib/mhw-mulx\libc.a(lib_a-isattyr.o)
                                0x509 (size before relaxing)
 .debug_str     0x000065e5       0x46 c:/altera/11.1/nios2eds/bin/gnu/h-i686-mingw32/bin/../lib/gcc/nios2-elf/4.1.2/../../../../nios2-elf/lib/mhw-mulx\libc.a(lib_a-lseekr.o)
                                0x515 (size before relaxing)
 .debug_str     0x0000662b       0x44 c:/altera/11.1/nios2eds/bin/gnu/h-i686-mingw32/bin/../lib/gcc/nios2-elf/4.1.2/../../../../nios2-elf/lib/mhw-mulx\libc.a(lib_a-readr.o)
                                0x515 (size before relaxing)
 .debug_str     0x0000666f        0xa c:/altera/11.1/nios2eds/bin/gnu/h-i686-mingw32/bin/../lib/gcc/nios2-elf/4.1.2/mhw-mulx\libgcc.a(_udivdi3.o)
                                0x1f4 (size before relaxing)
 .debug_str     0x00006679        0xa c:/altera/11.1/nios2eds/bin/gnu/h-i686-mingw32/bin/../lib/gcc/nios2-elf/4.1.2/mhw-mulx\libgcc.a(_umoddi3.o)
                                0x1f4 (size before relaxing)
 .debug_str     0x00006683        0x8 c:/altera/11.1/nios2eds/bin/gnu/h-i686-mingw32/bin/../lib/gcc/nios2-elf/4.1.2/mhw-mulx\libgcc.a(_eq_df.o)
                                0x1fb (size before relaxing)
 .debug_str     0x0000668b        0x8 c:/altera/11.1/nios2eds/bin/gnu/h-i686-mingw32/bin/../lib/gcc/nios2-elf/4.1.2/mhw-mulx\libgcc.a(_ne_df.o)
                                0x1fb (size before relaxing)
 .debug_str     0x00006693        0x8 c:/altera/11.1/nios2eds/bin/gnu/h-i686-mingw32/bin/../lib/gcc/nios2-elf/4.1.2/mhw-mulx\libgcc.a(_lt_df.o)
                                0x1fb (size before relaxing)
 .debug_str     0x0000669b       0x3c c:/altera/11.1/nios2eds/bin/gnu/h-i686-mingw32/bin/../lib/gcc/nios2-elf/4.1.2/../../../../nios2-elf/lib/mhw-mulx\libc.a(lib_a-exit.o)
                                0x515 (size before relaxing)
 .debug_str     0x000066d7       0x45 c:/altera/11.1/nios2eds/bin/gnu/h-i686-mingw32/bin/../lib/gcc/nios2-elf/4.1.2/../../../../nios2-elf/lib/mhw-mulx\libc.a(lib_a-memcmp.o)
                                0x173 (size before relaxing)
 .debug_str     0x0000671c       0x7e c:/altera/11.1/nios2eds/bin/gnu/h-i686-mingw32/bin/../lib/gcc/nios2-elf/4.1.2/../../../../nios2-elf/lib/mhw-mulx\libc.a(lib_a-__call_atexit.o)
                                0x557 (size before relaxing)

.debug_loc      0x00000000    0x133cc
 *(.debug_loc)
 .debug_loc     0x00000000      0x3af obj/Debug/alt_2_wire.o
 .debug_loc     0x000003af      0x2d6 obj/Debug/c37dot94.o
 .debug_loc     0x00000685      0x10c obj/Debug/c37dot94_task.o
 .debug_loc     0x00000791      0x221 obj/Debug/c37dot94bert.o
 .debug_loc     0x000009b2      0x22e obj/Debug/cfg10_hw.o
 .debug_loc     0x00000be0       0x95 obj/Debug/cfg_c37.o
 .debug_loc     0x00000c75      0x493 obj/Debug/cfg_hw.o
 .debug_loc     0x00001108      0x46c obj/Debug/config.o
 .debug_loc     0x00001574      0xb36 obj/Debug/config10g.o
 .debug_loc     0x000020aa       0x1f obj/Debug/config_multistream.o
 .debug_loc     0x000020c9      0x735 obj/Debug/flash.o
 .debug_loc     0x000027fe      0x131 obj/Debug/functions.o
 .debug_loc     0x0000292f      0x14d obj/Debug/gui_link.o
 .debug_loc     0x00002a7c      0x2f5 obj/Debug/helpers.o
 .debug_loc     0x00002d71       0x1f obj/Debug/init.o
 .debug_loc     0x00002d90      0x9dc obj/Debug/intr.o
 .debug_loc     0x0000376c       0x32 obj/Debug/link_task.o
 .debug_loc     0x0000379e      0x377 obj/Debug/loopback.o
 .debug_loc     0x00003b15      0x643 obj/Debug/main.o
 .debug_loc     0x00004158       0xd0 obj/Debug/onesec_alrm.o
 .debug_loc     0x00004228     0x16aa obj/Debug/packet10g.o
 .debug_loc     0x000058d2      0x3de obj/Debug/results.o
 .debug_loc     0x00005cb0      0x6bf obj/Debug/sfp.o
 .debug_loc     0x0000636f      0x1df obj/Debug/status.o
 .debug_loc     0x0000654e       0x33 obj/Debug/update_headers.o
 .debug_loc     0x00006581      0x205 c:/altera/11.1/nios2eds/bin/gnu/h-i686-mingw32/bin/../lib/gcc/nios2-elf/4.1.2/../../../../nios2-elf/lib/mhw-mulx\libm.a(lib_a-s_round.o)
 .debug_loc     0x00006786       0x69 c:/altera/11.1/nios2eds/bin/gnu/h-i686-mingw32/bin/../lib/gcc/nios2-elf/4.1.2/mhw-mulx\libgcc.a(_fixunssfsi.o)
 .debug_loc     0x000067ef       0x87 c:/altera/11.1/nios2eds/bin/gnu/h-i686-mingw32/bin/../lib/gcc/nios2-elf/4.1.2/mhw-mulx\libgcc.a(_fixunsdfsi.o)
 .debug_loc     0x00006876       0x85 c:/altera/11.1/nios2eds/bin/gnu/h-i686-mingw32/bin/../lib/gcc/nios2-elf/4.1.2/mhw-mulx\libgcc.a(_fixunsdfdi.o)
 .debug_loc     0x000068fb       0x5f c:/altera/11.1/nios2eds/bin/gnu/h-i686-mingw32/bin/../lib/gcc/nios2-elf/4.1.2/mhw-mulx\libgcc.a(_floatdidf.o)
 .debug_loc     0x0000695a       0x5f c:/altera/11.1/nios2eds/bin/gnu/h-i686-mingw32/bin/../lib/gcc/nios2-elf/4.1.2/mhw-mulx\libgcc.a(_floatundidf.o)
 .debug_loc     0x000069b9      0xde4 c:/altera/11.1/nios2eds/bin/gnu/h-i686-mingw32/bin/../lib/gcc/nios2-elf/4.1.2/mhw-mulx\libgcc.a(_divdi3.o)
 .debug_loc     0x0000779d      0x289 c:/altera/11.1/nios2eds/bin/gnu/h-i686-mingw32/bin/../lib/gcc/nios2-elf/4.1.2/mhw-mulx\libgcc.a(_addsub_sf.o)
 .debug_loc     0x00007a26      0x131 c:/altera/11.1/nios2eds/bin/gnu/h-i686-mingw32/bin/../lib/gcc/nios2-elf/4.1.2/mhw-mulx\libgcc.a(_mul_sf.o)
 .debug_loc     0x00007b57       0x45 c:/altera/11.1/nios2eds/bin/gnu/h-i686-mingw32/bin/../lib/gcc/nios2-elf/4.1.2/mhw-mulx\libgcc.a(_eq_sf.o)
 .debug_loc     0x00007b9c       0x45 c:/altera/11.1/nios2eds/bin/gnu/h-i686-mingw32/bin/../lib/gcc/nios2-elf/4.1.2/mhw-mulx\libgcc.a(_ge_sf.o)
 .debug_loc     0x00007be1       0x66 c:/altera/11.1/nios2eds/bin/gnu/h-i686-mingw32/bin/../lib/gcc/nios2-elf/4.1.2/mhw-mulx\libgcc.a(_sf_to_si.o)
 .debug_loc     0x00007c47       0x32 c:/altera/11.1/nios2eds/bin/gnu/h-i686-mingw32/bin/../lib/gcc/nios2-elf/4.1.2/mhw-mulx\libgcc.a(_sf_to_df.o)
 .debug_loc     0x00007c79       0x87 c:/altera/11.1/nios2eds/bin/gnu/h-i686-mingw32/bin/../lib/gcc/nios2-elf/4.1.2/mhw-mulx\libgcc.a(_usi_to_sf.o)
 .debug_loc     0x00007d00      0x47a c:/altera/11.1/nios2eds/bin/gnu/h-i686-mingw32/bin/../lib/gcc/nios2-elf/4.1.2/mhw-mulx\libgcc.a(_addsub_df.o)
 .debug_loc     0x0000817a      0x346 c:/altera/11.1/nios2eds/bin/gnu/h-i686-mingw32/bin/../lib/gcc/nios2-elf/4.1.2/mhw-mulx\libgcc.a(_mul_df.o)
 .debug_loc     0x000084c0      0x1df c:/altera/11.1/nios2eds/bin/gnu/h-i686-mingw32/bin/../lib/gcc/nios2-elf/4.1.2/mhw-mulx\libgcc.a(_div_df.o)
 .debug_loc     0x0000869f       0x70 c:/altera/11.1/nios2eds/bin/gnu/h-i686-mingw32/bin/../lib/gcc/nios2-elf/4.1.2/mhw-mulx\libgcc.a(_gt_df.o)
 .debug_loc     0x0000870f       0x70 c:/altera/11.1/nios2eds/bin/gnu/h-i686-mingw32/bin/../lib/gcc/nios2-elf/4.1.2/mhw-mulx\libgcc.a(_ge_df.o)
 .debug_loc     0x0000877f       0x9a c:/altera/11.1/nios2eds/bin/gnu/h-i686-mingw32/bin/../lib/gcc/nios2-elf/4.1.2/mhw-mulx\libgcc.a(_si_to_df.o)
 .debug_loc     0x00008819       0x8b c:/altera/11.1/nios2eds/bin/gnu/h-i686-mingw32/bin/../lib/gcc/nios2-elf/4.1.2/mhw-mulx\libgcc.a(_df_to_si.o)
 .debug_loc     0x000088a4       0x58 c:/altera/11.1/nios2eds/bin/gnu/h-i686-mingw32/bin/../lib/gcc/nios2-elf/4.1.2/mhw-mulx\libgcc.a(_make_df.o)
 .debug_loc     0x000088fc       0x6a c:/altera/11.1/nios2eds/bin/gnu/h-i686-mingw32/bin/../lib/gcc/nios2-elf/4.1.2/mhw-mulx\libgcc.a(_df_to_sf.o)
 .debug_loc     0x00008966       0x5b c:/altera/11.1/nios2eds/bin/gnu/h-i686-mingw32/bin/../lib/gcc/nios2-elf/4.1.2/mhw-mulx\libgcc.a(_usi_to_df.o)
 .debug_loc     0x000089c1      0x1d2 c:/altera/11.1/nios2eds/bin/gnu/h-i686-mingw32/bin/../lib/gcc/nios2-elf/4.1.2/mhw-mulx\libgcc.a(lib2-divmod.o)
 .debug_loc     0x00008b93       0x1e c:/altera/11.1/nios2eds/bin/gnu/h-i686-mingw32/bin/../lib/gcc/nios2-elf/4.1.2/mhw-mulx\libgcc.a(_clzsi2.o)
 .debug_loc     0x00008bb1       0xf9 c:/altera/11.1/nios2eds/bin/gnu/h-i686-mingw32/bin/../lib/gcc/nios2-elf/4.1.2/mhw-mulx\libgcc.a(_pack_sf.o)
 .debug_loc     0x00008caa       0x31 c:/altera/11.1/nios2eds/bin/gnu/h-i686-mingw32/bin/../lib/gcc/nios2-elf/4.1.2/mhw-mulx\libgcc.a(_unpack_sf.o)
 .debug_loc     0x00008cdb       0x3c c:/altera/11.1/nios2eds/bin/gnu/h-i686-mingw32/bin/../lib/gcc/nios2-elf/4.1.2/mhw-mulx\libgcc.a(_fpcmp_parts_sf.o)
 .debug_loc     0x00008d17       0x6b c:/altera/11.1/nios2eds/bin/gnu/h-i686-mingw32/bin/../lib/gcc/nios2-elf/4.1.2/mhw-mulx\libgcc.a(_make_sf.o)
 .debug_loc     0x00008d82      0x184 c:/altera/11.1/nios2eds/bin/gnu/h-i686-mingw32/bin/../lib/gcc/nios2-elf/4.1.2/mhw-mulx\libgcc.a(_pack_df.o)
 .debug_loc     0x00008f06       0xe5 c:/altera/11.1/nios2eds/bin/gnu/h-i686-mingw32/bin/../lib/gcc/nios2-elf/4.1.2/mhw-mulx\libgcc.a(_unpack_df.o)
 .debug_loc     0x00008feb       0xcb c:/altera/11.1/nios2eds/bin/gnu/h-i686-mingw32/bin/../lib/gcc/nios2-elf/4.1.2/../../../../nios2-elf/lib/mhw-mulx\libc.a(lib_a-printf.o)
 .debug_loc     0x000090b6       0x44 c:/altera/11.1/nios2eds/bin/gnu/h-i686-mingw32/bin/../lib/gcc/nios2-elf/4.1.2/../../../../nios2-elf/lib/mhw-mulx\libc.a(lib_a-putchar.o)
 .debug_loc     0x000090fa       0xa2 c:/altera/11.1/nios2eds/bin/gnu/h-i686-mingw32/bin/../lib/gcc/nios2-elf/4.1.2/../../../../nios2-elf/lib/mhw-mulx\libc.a(lib_a-puts.o)
 .debug_loc     0x0000919c       0x3c c:/altera/11.1/nios2eds/bin/gnu/h-i686-mingw32/bin/../lib/gcc/nios2-elf/4.1.2/../../../../nios2-elf/lib/mhw-mulx\libc.a(lib_a-strlen.o)
 .debug_loc     0x000091d8       0x78 c:/altera/11.1/nios2eds/bin/gnu/h-i686-mingw32/bin/../lib/gcc/nios2-elf/4.1.2/../../../../nios2-elf/lib/mhw-mulx\libc.a(lib_a-strncmp.o)
 .debug_loc     0x00009250     0x1e0d c:/altera/11.1/nios2eds/bin/gnu/h-i686-mingw32/bin/../lib/gcc/nios2-elf/4.1.2/../../../../nios2-elf/lib/mhw-mulx\libc.a(lib_a-vfprintf.o)
 .debug_loc     0x0000b05d       0x7c c:/altera/11.1/nios2eds/bin/gnu/h-i686-mingw32/bin/../lib/gcc/nios2-elf/4.1.2/../../../../nios2-elf/lib/mhw-mulx\libc.a(lib_a-wsetup.o)
 .debug_loc     0x0000b0d9     0x1dfa c:/altera/11.1/nios2eds/bin/gnu/h-i686-mingw32/bin/../lib/gcc/nios2-elf/4.1.2/../../../../nios2-elf/lib/mhw-mulx\libc.a(lib_a-dtoa.o)
 .debug_loc     0x0000ced3      0x1f6 c:/altera/11.1/nios2eds/bin/gnu/h-i686-mingw32/bin/../lib/gcc/nios2-elf/4.1.2/../../../../nios2-elf/lib/mhw-mulx\libc.a(lib_a-fflush.o)
 .debug_loc     0x0000d0c9      0x19f c:/altera/11.1/nios2eds/bin/gnu/h-i686-mingw32/bin/../lib/gcc/nios2-elf/4.1.2/../../../../nios2-elf/lib/mhw-mulx\libc.a(lib_a-findfp.o)
 .debug_loc     0x0000d268      0x4a7 c:/altera/11.1/nios2eds/bin/gnu/h-i686-mingw32/bin/../lib/gcc/nios2-elf/4.1.2/../../../../nios2-elf/lib/mhw-mulx\libc.a(lib_a-freer.o)
 .debug_loc     0x0000d70f      0x4e4 c:/altera/11.1/nios2eds/bin/gnu/h-i686-mingw32/bin/../lib/gcc/nios2-elf/4.1.2/../../../../nios2-elf/lib/mhw-mulx\libc.a(lib_a-fvwrite.o)
 .debug_loc     0x0000dbf3      0x1d2 c:/altera/11.1/nios2eds/bin/gnu/h-i686-mingw32/bin/../lib/gcc/nios2-elf/4.1.2/../../../../nios2-elf/lib/mhw-mulx\libc.a(lib_a-fwalk.o)
 .debug_loc     0x0000ddc5       0xe1 c:/altera/11.1/nios2eds/bin/gnu/h-i686-mingw32/bin/../lib/gcc/nios2-elf/4.1.2/../../../../nios2-elf/lib/mhw-mulx\libc.a(lib_a-locale.o)
 .debug_loc     0x0000dea6      0x11c c:/altera/11.1/nios2eds/bin/gnu/h-i686-mingw32/bin/../lib/gcc/nios2-elf/4.1.2/../../../../nios2-elf/lib/mhw-mulx\libc.a(lib_a-makebuf.o)
 .debug_loc     0x0000dfc2      0xaeb c:/altera/11.1/nios2eds/bin/gnu/h-i686-mingw32/bin/../lib/gcc/nios2-elf/4.1.2/../../../../nios2-elf/lib/mhw-mulx\libc.a(lib_a-mallocr.o)
 .debug_loc     0x0000eaad      0x106 c:/altera/11.1/nios2eds/bin/gnu/h-i686-mingw32/bin/../lib/gcc/nios2-elf/4.1.2/../../../../nios2-elf/lib/mhw-mulx\libc.a(lib_a-memchr.o)
 .debug_loc     0x0000ebb3       0xca c:/altera/11.1/nios2eds/bin/gnu/h-i686-mingw32/bin/../lib/gcc/nios2-elf/4.1.2/../../../../nios2-elf/lib/mhw-mulx\libc.a(lib_a-memcpy.o)
 .debug_loc     0x0000ec7d      0x117 c:/altera/11.1/nios2eds/bin/gnu/h-i686-mingw32/bin/../lib/gcc/nios2-elf/4.1.2/../../../../nios2-elf/lib/mhw-mulx\libc.a(lib_a-memmove.o)
 .debug_loc     0x0000ed94       0xa1 c:/altera/11.1/nios2eds/bin/gnu/h-i686-mingw32/bin/../lib/gcc/nios2-elf/4.1.2/../../../../nios2-elf/lib/mhw-mulx\libc.a(lib_a-memset.o)
 .debug_loc     0x0000ee35     0x14d6 c:/altera/11.1/nios2eds/bin/gnu/h-i686-mingw32/bin/../lib/gcc/nios2-elf/4.1.2/../../../../nios2-elf/lib/mhw-mulx\libc.a(lib_a-mprec.o)
 .debug_loc     0x0001030b      0x20d c:/altera/11.1/nios2eds/bin/gnu/h-i686-mingw32/bin/../lib/gcc/nios2-elf/4.1.2/../../../../nios2-elf/lib/mhw-mulx\libc.a(lib_a-putc.o)
 .debug_loc     0x00010518      0x8c0 c:/altera/11.1/nios2eds/bin/gnu/h-i686-mingw32/bin/../lib/gcc/nios2-elf/4.1.2/../../../../nios2-elf/lib/mhw-mulx\libc.a(lib_a-reallocr.o)
 .debug_loc     0x00010dd8       0x36 c:/altera/11.1/nios2eds/bin/gnu/h-i686-mingw32/bin/../lib/gcc/nios2-elf/4.1.2/../../../../nios2-elf/lib/mhw-mulx\libc.a(lib_a-s_isinfd.o)
 .debug_loc     0x00010e0e       0x18 c:/altera/11.1/nios2eds/bin/gnu/h-i686-mingw32/bin/../lib/gcc/nios2-elf/4.1.2/../../../../nios2-elf/lib/mhw-mulx\libc.a(lib_a-s_isnand.o)
 .debug_loc     0x00010e26       0x5b c:/altera/11.1/nios2eds/bin/gnu/h-i686-mingw32/bin/../lib/gcc/nios2-elf/4.1.2/../../../../nios2-elf/lib/mhw-mulx\libc.a(lib_a-sbrkr.o)
 .debug_loc     0x00010e81      0x21f c:/altera/11.1/nios2eds/bin/gnu/h-i686-mingw32/bin/../lib/gcc/nios2-elf/4.1.2/../../../../nios2-elf/lib/mhw-mulx\libc.a(lib_a-stdio.o)
 .debug_loc     0x000110a0       0x65 c:/altera/11.1/nios2eds/bin/gnu/h-i686-mingw32/bin/../lib/gcc/nios2-elf/4.1.2/../../../../nios2-elf/lib/mhw-mulx\libc.a(lib_a-strcmp.o)
 .debug_loc     0x00011105      0x157 c:/altera/11.1/nios2eds/bin/gnu/h-i686-mingw32/bin/../lib/gcc/nios2-elf/4.1.2/../../../../nios2-elf/lib/mhw-mulx\libc.a(lib_a-wbuf.o)
 .debug_loc     0x0001125c       0x97 c:/altera/11.1/nios2eds/bin/gnu/h-i686-mingw32/bin/../lib/gcc/nios2-elf/4.1.2/../../../../nios2-elf/lib/mhw-mulx\libc.a(lib_a-writer.o)
 .debug_loc     0x000112f3       0xe9 c:/altera/11.1/nios2eds/bin/gnu/h-i686-mingw32/bin/../lib/gcc/nios2-elf/4.1.2/../../../../nios2-elf/lib/mhw-mulx\libc.a(lib_a-callocr.o)
 .debug_loc     0x000113dc       0x5b c:/altera/11.1/nios2eds/bin/gnu/h-i686-mingw32/bin/../lib/gcc/nios2-elf/4.1.2/../../../../nios2-elf/lib/mhw-mulx\libc.a(lib_a-closer.o)
 .debug_loc     0x00011437       0xe4 c:/altera/11.1/nios2eds/bin/gnu/h-i686-mingw32/bin/../lib/gcc/nios2-elf/4.1.2/../../../../nios2-elf/lib/mhw-mulx\libc.a(lib_a-fclose.o)
 .debug_loc     0x0001151b       0x79 c:/altera/11.1/nios2eds/bin/gnu/h-i686-mingw32/bin/../lib/gcc/nios2-elf/4.1.2/../../../../nios2-elf/lib/mhw-mulx\libc.a(lib_a-fstatr.o)
 .debug_loc     0x00011594       0x5b c:/altera/11.1/nios2eds/bin/gnu/h-i686-mingw32/bin/../lib/gcc/nios2-elf/4.1.2/../../../../nios2-elf/lib/mhw-mulx\libc.a(lib_a-isattyr.o)
 .debug_loc     0x000115ef       0x97 c:/altera/11.1/nios2eds/bin/gnu/h-i686-mingw32/bin/../lib/gcc/nios2-elf/4.1.2/../../../../nios2-elf/lib/mhw-mulx\libc.a(lib_a-lseekr.o)
 .debug_loc     0x00011686       0x97 c:/altera/11.1/nios2eds/bin/gnu/h-i686-mingw32/bin/../lib/gcc/nios2-elf/4.1.2/../../../../nios2-elf/lib/mhw-mulx\libc.a(lib_a-readr.o)
 .debug_loc     0x0001171d      0xc12 c:/altera/11.1/nios2eds/bin/gnu/h-i686-mingw32/bin/../lib/gcc/nios2-elf/4.1.2/mhw-mulx\libgcc.a(_udivdi3.o)
 .debug_loc     0x0001232f      0xc31 c:/altera/11.1/nios2eds/bin/gnu/h-i686-mingw32/bin/../lib/gcc/nios2-elf/4.1.2/mhw-mulx\libgcc.a(_umoddi3.o)
 .debug_loc     0x00012f60       0x70 c:/altera/11.1/nios2eds/bin/gnu/h-i686-mingw32/bin/../lib/gcc/nios2-elf/4.1.2/mhw-mulx\libgcc.a(_eq_df.o)
 .debug_loc     0x00012fd0       0x70 c:/altera/11.1/nios2eds/bin/gnu/h-i686-mingw32/bin/../lib/gcc/nios2-elf/4.1.2/mhw-mulx\libgcc.a(_ne_df.o)
 .debug_loc     0x00013040       0x70 c:/altera/11.1/nios2eds/bin/gnu/h-i686-mingw32/bin/../lib/gcc/nios2-elf/4.1.2/mhw-mulx\libgcc.a(_lt_df.o)
 .debug_loc     0x000130b0       0x3d c:/altera/11.1/nios2eds/bin/gnu/h-i686-mingw32/bin/../lib/gcc/nios2-elf/4.1.2/../../../../nios2-elf/lib/mhw-mulx\libc.a(lib_a-exit.o)
 .debug_loc     0x000130ed      0x114 c:/altera/11.1/nios2eds/bin/gnu/h-i686-mingw32/bin/../lib/gcc/nios2-elf/4.1.2/../../../../nios2-elf/lib/mhw-mulx\libc.a(lib_a-memcmp.o)
 .debug_loc     0x00013201      0x1cb c:/altera/11.1/nios2eds/bin/gnu/h-i686-mingw32/bin/../lib/gcc/nios2-elf/4.1.2/../../../../nios2-elf/lib/mhw-mulx\libc.a(lib_a-__call_atexit.o)

.debug_macinfo
 *(.debug_macinfo)

.debug_weaknames
 *(.debug_weaknames)

.debug_funcnames
 *(.debug_funcnames)

.debug_typenames
 *(.debug_typenames)

.debug_varnames
 *(.debug_varnames)

.debug_alt_sim_info
                0x00000000       0x40
 *(.debug_alt_sim_info)
 .debug_alt_sim_info
                0x00000000       0x10 ../GIGLE10_bsp/obj/HAL/src/crt0.o
 .debug_alt_sim_info
                0x00000010       0x30 ../GIGLE10_bsp\libucosii_bsp.a(alt_busy_sleep.o)
                0x000ca000                __alt_data_end = 0xca000
                0x000ca000                PROVIDE (__alt_stack_pointer, __alt_data_end)
                0x000c6718                PROVIDE (__alt_stack_limit, __alt_stack_base)
                0x000c6718                PROVIDE (__alt_heap_start, end)
                0x000ca000                PROVIDE (__alt_heap_limit, 0xca000)
OUTPUT(GIGLE10_DBG.elf elf32-littlenios2)

.debug_ranges   0x00000000     0x1198
 .debug_ranges  0x00000000       0x60 obj/Debug/alt_2_wire.o
 .debug_ranges  0x00000060      0x120 obj/Debug/flash.o
 .debug_ranges  0x00000180      0x370 obj/Debug/intr.o
 .debug_ranges  0x000004f0       0x18 obj/Debug/loopback.o
 .debug_ranges  0x00000508       0x90 obj/Debug/main.o
 .debug_ranges  0x00000598       0x30 obj/Debug/sfp.o
 .debug_ranges  0x000005c8       0x30 c:/altera/11.1/nios2eds/bin/gnu/h-i686-mingw32/bin/../lib/gcc/nios2-elf/4.1.2/../../../../nios2-elf/lib/mhw-mulx\libm.a(lib_a-s_round.o)
 .debug_ranges  0x000005f8      0x1b0 c:/altera/11.1/nios2eds/bin/gnu/h-i686-mingw32/bin/../lib/gcc/nios2-elf/4.1.2/mhw-mulx\libgcc.a(_divdi3.o)
 .debug_ranges  0x000007a8       0x28 c:/altera/11.1/nios2eds/bin/gnu/h-i686-mingw32/bin/../lib/gcc/nios2-elf/4.1.2/mhw-mulx\libgcc.a(_addsub_sf.o)
 .debug_ranges  0x000007d0       0x80 c:/altera/11.1/nios2eds/bin/gnu/h-i686-mingw32/bin/../lib/gcc/nios2-elf/4.1.2/mhw-mulx\libgcc.a(_mul_sf.o)
 .debug_ranges  0x00000850       0x40 c:/altera/11.1/nios2eds/bin/gnu/h-i686-mingw32/bin/../lib/gcc/nios2-elf/4.1.2/mhw-mulx\libgcc.a(_usi_to_sf.o)
 .debug_ranges  0x00000890       0x30 c:/altera/11.1/nios2eds/bin/gnu/h-i686-mingw32/bin/../lib/gcc/nios2-elf/4.1.2/mhw-mulx\libgcc.a(_addsub_df.o)
 .debug_ranges  0x000008c0       0x88 c:/altera/11.1/nios2eds/bin/gnu/h-i686-mingw32/bin/../lib/gcc/nios2-elf/4.1.2/mhw-mulx\libgcc.a(_mul_df.o)
 .debug_ranges  0x00000948       0x50 c:/altera/11.1/nios2eds/bin/gnu/h-i686-mingw32/bin/../lib/gcc/nios2-elf/4.1.2/mhw-mulx\libgcc.a(_div_df.o)
 .debug_ranges  0x00000998       0x18 c:/altera/11.1/nios2eds/bin/gnu/h-i686-mingw32/bin/../lib/gcc/nios2-elf/4.1.2/mhw-mulx\libgcc.a(_usi_to_df.o)
 .debug_ranges  0x000009b0       0x28 c:/altera/11.1/nios2eds/bin/gnu/h-i686-mingw32/bin/../lib/gcc/nios2-elf/4.1.2/mhw-mulx\libgcc.a(_clzsi2.o)
 .debug_ranges  0x000009d8       0x28 c:/altera/11.1/nios2eds/bin/gnu/h-i686-mingw32/bin/../lib/gcc/nios2-elf/4.1.2/mhw-mulx\libgcc.a(_pack_df.o)
 .debug_ranges  0x00000a00      0x168 c:/altera/11.1/nios2eds/bin/gnu/h-i686-mingw32/bin/../lib/gcc/nios2-elf/4.1.2/../../../../nios2-elf/lib/mhw-mulx\libc.a(lib_a-vfprintf.o)
 .debug_ranges  0x00000b68       0x20 c:/altera/11.1/nios2eds/bin/gnu/h-i686-mingw32/bin/../lib/gcc/nios2-elf/4.1.2/../../../../nios2-elf/lib/mhw-mulx\libc.a(lib_a-fflush.o)
 .debug_ranges  0x00000b88       0x28 c:/altera/11.1/nios2eds/bin/gnu/h-i686-mingw32/bin/../lib/gcc/nios2-elf/4.1.2/../../../../nios2-elf/lib/mhw-mulx\libc.a(lib_a-fvwrite.o)
 .debug_ranges  0x00000bb0       0xa0 c:/altera/11.1/nios2eds/bin/gnu/h-i686-mingw32/bin/../lib/gcc/nios2-elf/4.1.2/../../../../nios2-elf/lib/mhw-mulx\libc.a(lib_a-fwalk.o)
 .debug_ranges  0x00000c50       0x70 c:/altera/11.1/nios2eds/bin/gnu/h-i686-mingw32/bin/../lib/gcc/nios2-elf/4.1.2/../../../../nios2-elf/lib/mhw-mulx\libc.a(lib_a-mallocr.o)
 .debug_ranges  0x00000cc0      0x110 c:/altera/11.1/nios2eds/bin/gnu/h-i686-mingw32/bin/../lib/gcc/nios2-elf/4.1.2/../../../../nios2-elf/lib/mhw-mulx\libc.a(lib_a-reallocr.o)
 .debug_ranges  0x00000dd0       0x38 c:/altera/11.1/nios2eds/bin/gnu/h-i686-mingw32/bin/../lib/gcc/nios2-elf/4.1.2/../../../../nios2-elf/lib/mhw-mulx\libc.a(lib_a-callocr.o)
 .debug_ranges  0x00000e08      0x188 c:/altera/11.1/nios2eds/bin/gnu/h-i686-mingw32/bin/../lib/gcc/nios2-elf/4.1.2/mhw-mulx\libgcc.a(_udivdi3.o)
 .debug_ranges  0x00000f90      0x198 c:/altera/11.1/nios2eds/bin/gnu/h-i686-mingw32/bin/../lib/gcc/nios2-elf/4.1.2/mhw-mulx\libgcc.a(_umoddi3.o)
 .debug_ranges  0x00001128       0x28 ../GIGLE10_bsp\libucosii_bsp.a(alt_irq_entry.o)
 .debug_ranges  0x00001150       0x30 ../GIGLE10_bsp\libucosii_bsp.a(alt_exception_entry.o)
 .debug_ranges  0x00001180       0x18 c:/altera/11.1/nios2eds/bin/gnu/h-i686-mingw32/bin/../lib/gcc/nios2-elf/4.1.2/../../../../nios2-elf/lib/mhw-mulx\libc.a(lib_a-__call_atexit.o)
