
GIGLE10_DBG.elf:     file format elf32-littlenios2
GIGLE10_DBG.elf
architecture: nios2, flags 0x00000112:
EXEC_P, HAS_SYMS, D_PAGED
start address 0x00080188

Program Header:
    LOAD off    0x00001000 vaddr 0x00000000 paddr 0x00000000 align 2**12
         filesz 0x00000000 memsz 0x00000000 flags r-x
    LOAD off    0x00001020 vaddr 0x00080020 paddr 0x00080020 align 2**12
         filesz 0x00036800 memsz 0x000466f8 flags rwx

Sections:
Idx Name          Size      VMA       LMA       File off  Algn
  0 .entry        00000000  00000000  00000000  00001000  2**5
                  CONTENTS, ALLOC, LOAD, READONLY, CODE
  1 .exceptions   00000168  00080020  00080020  00001020  2**2
                  CONTENTS, ALLOC, LOAD, READONLY, CODE
  2 .text         0002be74  00080188  00080188  00001188  2**2
                  CONTENTS, ALLOC, LOAD, READONLY, CODE
  3 .rodata       00008444  000abffc  000abffc  0002cffc  2**2
                  CONTENTS, ALLOC, LOAD, READONLY, DATA
  4 .rwdata       000023e0  000b4440  000b4440  00035440  2**2
                  CONTENTS, ALLOC, LOAD, DATA, SMALL_DATA
  5 .bss          0000fef8  000b6820  000b6820  00037820  2**2
                  ALLOC, SMALL_DATA
  6 .comment      00000023  00000000  00000000  00037820  2**0
                  CONTENTS, READONLY
  7 .debug_aranges 00000da8  00000000  00000000  00037848  2**3
                  CONTENTS, READONLY, DEBUGGING
  8 .debug_pubnames 00005782  00000000  00000000  000385f0  2**0
                  CONTENTS, READONLY, DEBUGGING
  9 .debug_info   00027517  00000000  00000000  0003dd72  2**0
                  CONTENTS, READONLY, DEBUGGING
 10 .debug_abbrev 00008c3d  00000000  00000000  00065289  2**0
                  CONTENTS, READONLY, DEBUGGING
 11 .debug_line   00028132  00000000  00000000  0006dec6  2**0
                  CONTENTS, READONLY, DEBUGGING
 12 .debug_frame  00002c1c  00000000  00000000  00095ff8  2**2
                  CONTENTS, READONLY, DEBUGGING
 13 .debug_str    0000679a  00000000  00000000  00098c14  2**0
                  CONTENTS, READONLY, DEBUGGING
 14 .debug_loc    000133cc  00000000  00000000  0009f3ae  2**0
                  CONTENTS, READONLY, DEBUGGING
 15 .debug_alt_sim_info 00000040  00000000  00000000  000b277c  2**2
                  CONTENTS, READONLY, DEBUGGING
 16 .debug_ranges 00001198  00000000  00000000  000b27c0  2**3
                  CONTENTS, READONLY, DEBUGGING
 17 .thread_model 00000006  00000000  00000000  000bf33b  2**0
                  CONTENTS, READONLY
 18 .cpu          00000007  00000000  00000000  000bf341  2**0
                  CONTENTS, READONLY
 19 .qsys         00000001  00000000  00000000  000bf348  2**0
                  CONTENTS, READONLY
 20 .simulation_enabled 00000001  00000000  00000000  000bf349  2**0
                  CONTENTS, READONLY
 21 .sysid_hash   00000004  00000000  00000000  000bf34a  2**0
                  CONTENTS, READONLY
 22 .sysid_base   00000004  00000000  00000000  000bf34e  2**0
                  CONTENTS, READONLY
 23 .sysid_time   00000004  00000000  00000000  000bf352  2**0
                  CONTENTS, READONLY
 24 .stderr_dev   00000009  00000000  00000000  000bf356  2**0
                  CONTENTS, READONLY
 25 .stdin_dev    00000009  00000000  00000000  000bf35f  2**0
                  CONTENTS, READONLY
 26 .stdout_dev   00000009  00000000  00000000  000bf368  2**0
                  CONTENTS, READONLY
 27 .sopc_system_name 00000006  00000000  00000000  000bf371  2**0
                  CONTENTS, READONLY
 28 .quartus_project_dir 00000003  00000000  00000000  000bf377  2**0
                  CONTENTS, READONLY
SYMBOL TABLE:
00000000 l    d  .entry	00000000 .entry
00080020 l    d  .exceptions	00000000 .exceptions
00080188 l    d  .text	00000000 .text
000abffc l    d  .rodata	00000000 .rodata
000b4440 l    d  .rwdata	00000000 .rwdata
000b6820 l    d  .bss	00000000 .bss
00000000 l    d  .comment	00000000 .comment
00000000 l    d  .debug_aranges	00000000 .debug_aranges
00000000 l    d  .debug_pubnames	00000000 .debug_pubnames
00000000 l    d  .debug_info	00000000 .debug_info
00000000 l    d  .debug_abbrev	00000000 .debug_abbrev
00000000 l    d  .debug_line	00000000 .debug_line
00000000 l    d  .debug_frame	00000000 .debug_frame
00000000 l    d  .debug_str	00000000 .debug_str
00000000 l    d  .debug_loc	00000000 .debug_loc
00000000 l    d  .debug_alt_sim_info	00000000 .debug_alt_sim_info
00000000 l    d  .debug_ranges	00000000 .debug_ranges
000801bc l       .text	00000000 alt_after_alt_main
00000000 l    df *ABS*	00000000 alt_irq_handler.c
00000000 l    df *ABS*	00000000 alt_2_wire.c
000801c0 l     F .text	0000000c tri_state_sda
000801d4 l     F .text	00000018 pullupSDA_B
000801ec l     F .text	00000018 pulldownSDA_B
00080204 l     F .text	00000018 pullupSDA_A
0008021c l     F .text	00000018 pulldownSDA_A
00080234 l     F .text	00000014 readSDA_B
00080248 l     F .text	00000010 readSDA_A
00080258 l     F .text	00000028 pullupSCL_B
000802a0 l     F .text	0000002c pulldownSCL_B
000804f4 l     F .text	00000028 pullupSCL_A
0008053c l     F .text	0000002c pulldownSCL_A
00000000 l    df *ABS*	00000000 c37dot94.c
00000000 l    df *ABS*	00000000 c37dot94_task.c
00000000 l    df *ABS*	00000000 c37dot94bert.c
000ac78c l     O .rodata	000001dc test_pattern_data
00000000 l    df *ABS*	00000000 cfg10_hw.c
00000000 l    df *ABS*	00000000 cfg_c37.c
00000000 l    df *ABS*	00000000 cfg_frame.c
00000000 l    df *ABS*	00000000 cfg_hw.c
00000000 l    df *ABS*	00000000 config.c
00000000 l    df *ABS*	00000000 config10g.c
00000000 l    df *ABS*	00000000 config_multistream.c
00000000 l    df *ABS*	00000000 flash.c
00000000 l    df *ABS*	00000000 functions.c
00000000 l    df *ABS*	00000000 gui_link.c
00000000 l    df *ABS*	00000000 helpers.c
00000000 l    df *ABS*	00000000 init.c
00000000 l    df *ABS*	00000000 intr.c
00000000 l    df *ABS*	00000000 link_task.c
00000000 l    df *ABS*	00000000 loopback.c
00000000 l    df *ABS*	00000000 main.c
00000000 l    df *ABS*	00000000 onesec_alrm.c
00000000 l    df *ABS*	00000000 packet10g.c
00000000 l    df *ABS*	00000000 results.c
00000000 l    df *ABS*	00000000 sfp.c
00000000 l    df *ABS*	00000000 status.c
00000000 l    df *ABS*	00000000 update_headers.c
00000000 l    df *ABS*	00000000 s_round.c
00000000 l    df *ABS*	00000000 libgcc2.c
00000000 l    df *ABS*	00000000 libgcc2.c
00000000 l    df *ABS*	00000000 libgcc2.c
00000000 l    df *ABS*	00000000 libgcc2.c
00000000 l    df *ABS*	00000000 libgcc2.c
00000000 l    df *ABS*	00000000 libgcc2.c
00000000 l    df *ABS*	00000000 fp-bit.c
00099fbc l     F .text	000001e4 _fpadd_parts
00000000 l    df *ABS*	00000000 fp-bit.c
00000000 l    df *ABS*	00000000 fp-bit.c
00000000 l    df *ABS*	00000000 fp-bit.c
00000000 l    df *ABS*	00000000 fp-bit.c
00000000 l    df *ABS*	00000000 fp-bit.c
00000000 l    df *ABS*	00000000 fp-bit.c
00000000 l    df *ABS*	00000000 fp-bit.c
00000000 l    df *ABS*	00000000 dp-bit.c
0009a6d4 l     F .text	00000410 _fpadd_parts
00000000 l    df *ABS*	00000000 dp-bit.c
00000000 l    df *ABS*	00000000 dp-bit.c
00000000 l    df *ABS*	00000000 dp-bit.c
00000000 l    df *ABS*	00000000 dp-bit.c
00000000 l    df *ABS*	00000000 dp-bit.c
00000000 l    df *ABS*	00000000 dp-bit.c
00000000 l    df *ABS*	00000000 dp-bit.c
00000000 l    df *ABS*	00000000 dp-bit.c
00000000 l    df *ABS*	00000000 dp-bit.c
00000000 l    df *ABS*	00000000 dp-bit.c
00000000 l    df *ABS*	00000000 lib2-divmod.c
0009b704 l     F .text	0000007c udivmodsi4
00000000 l    df *ABS*	00000000 libgcc2.c
00000000 l    df *ABS*	00000000 libgcc2.c
00000000 l    df *ABS*	00000000 fp-bit.c
00000000 l    df *ABS*	00000000 fp-bit.c
00000000 l    df *ABS*	00000000 fp-bit.c
00000000 l    df *ABS*	00000000 fp-bit.c
00000000 l    df *ABS*	00000000 dp-bit.c
00000000 l    df *ABS*	00000000 dp-bit.c
00000000 l    df *ABS*	00000000 dp-bit.c
00000000 l    df *ABS*	00000000 printf.c
00000000 l    df *ABS*	00000000 putchar.c
00000000 l    df *ABS*	00000000 puts.c
00000000 l    df *ABS*	00000000 strlen.c
00000000 l    df *ABS*	00000000 strncmp.c
00000000 l    df *ABS*	00000000 vfprintf.c
0009c394 l     F .text	00000058 __sprint_r
000b4166 l     O .rodata	00000010 blanks.3452
000b4156 l     O .rodata	00000010 zeroes.3453
00000000 l    df *ABS*	00000000 wsetup.c
00000000 l    df *ABS*	00000000 dtoa.c
0009e3f8 l     F .text	00000218 quorem
00000000 l    df *ABS*	00000000 fflush.c
00000000 l    df *ABS*	00000000 findfp.c
0009fdf4 l     F .text	00000058 std
0009ff00 l     F .text	00000008 __fp_lock
0009ff08 l     F .text	00000008 __fp_unlock
00000000 l    df *ABS*	00000000 mallocr.c
00000000 l    df *ABS*	00000000 fvwrite.c
00000000 l    df *ABS*	00000000 fwalk.c
00000000 l    df *ABS*	00000000 impure.c
000b478c l     O .rwdata	00000400 impure_data
00000000 l    df *ABS*	00000000 locale.c
000b6768 l     O .rwdata	00000004 charset
000b4194 l     O .rodata	00000030 lconv
00000000 l    df *ABS*	00000000 makebuf.c
00000000 l    df *ABS*	00000000 mallocr.c
00000000 l    df *ABS*	00000000 memchr.c
00000000 l    df *ABS*	00000000 memcpy.c
00000000 l    df *ABS*	00000000 memmove.c
00000000 l    df *ABS*	00000000 memset.c
00000000 l    df *ABS*	00000000 mprec.c
000b42dc l     O .rodata	0000000c p05.2458
00000000 l    df *ABS*	00000000 putc.c
00000000 l    df *ABS*	00000000 mallocr.c
00000000 l    df *ABS*	00000000 s_isinfd.c
00000000 l    df *ABS*	00000000 s_isnand.c
00000000 l    df *ABS*	00000000 sbrkr.c
00000000 l    df *ABS*	00000000 stdio.c
00000000 l    df *ABS*	00000000 strcmp.c
00000000 l    df *ABS*	00000000 wbuf.c
00000000 l    df *ABS*	00000000 writer.c
00000000 l    df *ABS*	00000000 mallocr.c
00000000 l    df *ABS*	00000000 closer.c
00000000 l    df *ABS*	00000000 fclose.c
00000000 l    df *ABS*	00000000 fstatr.c
00000000 l    df *ABS*	00000000 int_errno.c
00000000 l    df *ABS*	00000000 isattyr.c
00000000 l    df *ABS*	00000000 lseekr.c
00000000 l    df *ABS*	00000000 readr.c
00000000 l    df *ABS*	00000000 libgcc2.c
00000000 l    df *ABS*	00000000 libgcc2.c
00000000 l    df *ABS*	00000000 dp-bit.c
00000000 l    df *ABS*	00000000 dp-bit.c
00000000 l    df *ABS*	00000000 dp-bit.c
00000000 l    df *ABS*	00000000 alt_alarm_start.c
00000000 l    df *ABS*	00000000 alt_close.c
00000000 l    df *ABS*	00000000 alt_dcache_flush.c
00000000 l    df *ABS*	00000000 alt_dev.c
000a46ec l     F .text	00000008 alt_dev_null_write
00000000 l    df *ABS*	00000000 alt_errno.c
00000000 l    df *ABS*	00000000 alt_flash_dev.c
00000000 l    df *ABS*	00000000 alt_fstat.c
00000000 l    df *ABS*	00000000 alt_iic.c
00000000 l    df *ABS*	00000000 alt_iic_isr_register.c
00000000 l    df *ABS*	00000000 alt_irq_vars.c
00000000 l    df *ABS*	00000000 alt_isatty.c
00000000 l    df *ABS*	00000000 alt_lseek.c
00000000 l    df *ABS*	00000000 alt_main.c
00000000 l    df *ABS*	00000000 alt_read.c
00000000 l    df *ABS*	00000000 alt_release_fd.c
00000000 l    df *ABS*	00000000 alt_sbrk.c
000b6798 l     O .rwdata	00000004 heap_end
00000000 l    df *ABS*	00000000 alt_tick.c
00000000 l    df *ABS*	00000000 alt_usleep.c
00000000 l    df *ABS*	00000000 alt_write.c
00000000 l    df *ABS*	00000000 alt_env_lock.c
000b69b0 l     O .bss	00000004 locks
000b67a4 l     O .rwdata	00000004 lockid
00000000 l    df *ABS*	00000000 alt_malloc_lock.c
000b69b8 l     O .bss	00000004 locks
000b67a8 l     O .rwdata	00000004 lockid
00000000 l    df *ABS*	00000000 os_core.c
000a54e8 l     F .text	00000038 OS_SchedNew
00000000 l    df *ABS*	00000000 os_dbg.c
00000000 l    df *ABS*	00000000 os_flag.c
000a6460 l     F .text	000000b4 OS_FlagBlock
000a6554 l     F .text	00000090 OS_FlagTaskRdy
00000000 l    df *ABS*	00000000 os_mem.c
00000000 l    df *ABS*	00000000 os_q.c
00000000 l    df *ABS*	00000000 os_sem.c
00000000 l    df *ABS*	00000000 os_task.c
00000000 l    df *ABS*	00000000 os_time.c
00000000 l    df *ABS*	00000000 alt_sys_init.c
000b5148 l     O .rwdata	000000c4 epcs_flash_controller_0
000b520c l     O .rwdata	0000106c jtag_uart
000b6278 l     O .rwdata	000000d0 uart_0
000b6348 l     O .rwdata	000000d0 uart_usb
00000000 l    df *ABS*	00000000 altera_avalon_epcs_flash_controller.c
00000000 l    df *ABS*	00000000 altera_avalon_jtag_uart_fd.c
00000000 l    df *ABS*	00000000 altera_avalon_jtag_uart_init.c
000aa264 l     F .text	000000b4 altera_avalon_jtag_uart_timeout
000aa3e0 l     F .text	000001a0 altera_avalon_jtag_uart_irq
00000000 l    df *ABS*	00000000 altera_avalon_jtag_uart_ioctl.c
00000000 l    df *ABS*	00000000 altera_avalon_jtag_uart_read.c
00000000 l    df *ABS*	00000000 altera_avalon_jtag_uart_write.c
00000000 l    df *ABS*	00000000 altera_avalon_timer_sc.c
000aa9f8 l     F .text	0000003c alt_avalon_timer_sc_irq
00000000 l    df *ABS*	00000000 altera_avalon_uart_fd.c
00000000 l    df *ABS*	00000000 altera_avalon_uart_init.c
000aaa8c l     F .text	000001c8 altera_avalon_uart_irq
00000000 l    df *ABS*	00000000 altera_avalon_uart_read.c
00000000 l    df *ABS*	00000000 altera_avalon_uart_write.c
00000000 l    df *ABS*	00000000 epcs_commands.c
00000000 l    df *ABS*	00000000 alt_busy_sleep.c
00000000 l    df *ABS*	00000000 alt_dev_llist_insert.c
00000000 l    df *ABS*	00000000 alt_find_dev.c
00000000 l    df *ABS*	00000000 alt_io_redirect.c
000ab4e8 l     F .text	00000070 alt_open_fd
00000000 l    df *ABS*	00000000 alt_open.c
00000000 l    df *ABS*	00000000 altera_nios2_qsys_irq.c
00000040 l       *ABS*	00000000 OSCtxSw_SWITCH_PC
00000000 l    df *ABS*	00000000 os_cpu_c.c
00000014 l       *ABS*	00000000 OSTCBNext_OFFSET
00000032 l       *ABS*	00000000 OSTCBPrio_OFFSET
00000000 l       *ABS*	00000000 OSTCBStkPtr_OFFSET
00000000 l    df *ABS*	00000000 altera_avalon_spi.c
00000000 l    df *ABS*	00000000 alt_find_file.c
00000000 l    df *ABS*	00000000 alt_get_fd.c
00000000 l    df *ABS*	00000000 exit.c
00000000 l    df *ABS*	00000000 memcmp.c
00000000 l    df *ABS*	00000000 __call_atexit.c
000abd8c l     F .text	00000004 register_fini
00000000 l    df *ABS*	00000000 alt_exit.c
000b644a g     O .rwdata	00000001 PHYB_COPPER_FULLDUPLEX
000b683c g     O .bss	00000001 C3794_status
0009c158 g     F .text	0000001c putchar
000b65e8 g     O .rwdata	00000002 TRAFFIC_HDR17_0_ptr
000b65e4 g     O .rwdata	00000002 TRAFFIC_HDR17_2_ptr
000a1bb0 g     F .text	00000094 _mprec_log10
000b67f6 g     O .rwdata	00000002 OSTaskNameSize
000b64bc g     O .rwdata	00000008 DEF_EMIX_RANDOM
000a9cc8 g     F .text	00000038 alt_epcs_flash_get_info
000b672c g     O .rwdata	00000002 TRAFFIC_MSK26_2_ptr
00096e9c g     F .text	000001b8 read_phy_operating_mode
000a1c9c g     F .text	00000088 __any_on
000a36e0 g     F .text	00000070 _isatty_r
000b42b4 g     O .rodata	00000028 __mprec_tinytens
00086a0c g     F .text	00000024 restart_copper_auto_negotiation
000b6468 g     O .rwdata	00000001 SET_SWAP_B_TOGGLE
000a4a28 g     F .text	00000098 alt_main
0008e74c g     F .text	00000450 GET_EMIX_AVG_PKTLEN
00089524 g     F .text	00000098 _putchar
0009c17c g     F .text	000000a0 _puts_r
000b6750 g     O .rwdata	00000002 TRAFFIC_MSK30_0_ptr
000c33f4 g     O .bss	00000100 alt_irq
000b661a g     O .rwdata	00000002 TRAFFIC_HDR24_3_ptr
000a3750 g     F .text	00000078 _lseek_r
000b6720 g     O .rwdata	00000002 TRAFFIC_MSK24_0_ptr
000b6590 g     O .rwdata	00000002 TRAFFIC_HDR6_0_ptr
000a7278 g     F .text	00000068 OS_MemInit
000b65f6 g     O .rwdata	00000002 TRAFFIC_HDR19_1_ptr
000a98e0 g     F .text	00000024 OSTimeSet
000b6a38 g     O .bss	00000389 ConfigStat10GB
000807a8 g     F .text	00000018 update_alarms_event_status
000a43cc g     F .text	00000088 __eqdf2
0009993c g     F .text	00000680 __divdi3
000b6690 g     O .rwdata	00000002 TRAFFIC_MSK6_0_ptr
000b6446 g     O .rwdata	00000001 PHYA_COPPER_FULLDUPLEX
000862ac g     F .text	00000384 configure_phyb_copper
000b689f g     O .bss	00000001 DETECT_REMOTE_LOOPBACK_TSEA
000a5b3c g     F .text	0000038c OSEventPendMulti
000b64a4 g     O .rwdata	00000002 TRAFFIC_GEN_CONFIG22_ptr
000c6718 g       *ABS*	00000000 __alt_heap_start
000b66fe g     O .rwdata	00000002 TRAFFIC_MSK20_1_ptr
000ab83c g     F .text	00000004 OSTaskCreateHook
000b6528 g     O .rwdata	00000002 Y1564_EIR_1_ptr
000b6898 g     O .bss	00000004 maxRxBustinessVal
0009982c g     F .text	00000088 __floatdidf
000b6827 g     O .bss	00000001 READ_SFPA_DATA
000b6822 g     O .bss	00000001 gPACKET_TEST_TIMEOUT
000b667c g     O .rwdata	00000002 TRAFFIC_MSK4_2_ptr
000b66da g     O .rwdata	00000002 TRAFFIC_MSK16_3_ptr
000b651c g     O .rwdata	00000002 Y1564_CIR_3_ptr
0009c0e0 g     F .text	00000044 printf
000b67ce g     O .rwdata	00000002 OSMboxEn
000915b4 g     F .text	0000008c SET_EMIX_OFFSET
000b68c8 g     O .bss	00000001 test_options
000a5ec8 g     F .text	00000040 OSIntEnter
00096ca8 g     F .text	00000080 sfp_reg_write_diag_byte
000883ac g     F .text	000003e0 init_10G_external_phy
000b6dc1 g     O .bss	00000389 Special10GStat
000b6472 g     O .rwdata	00000002 TRAFFIC_GEN_PKT_EMIXUSERSIZE5_ptr
000b66be g     O .rwdata	00000002 TRAFFIC_MSK12_1_ptr
000a3060 g     F .text	00000068 __sseek
0009fe5c g     F .text	000000a4 __sinit
000a3260 g     F .text	00000130 __swbuf_r
0009692c g     F .text	000000a0 sfp_read_field_A
0009336c g     F .text	00000310 set_generator_tse_load
000895bc g     F .text	00000028 write_traffic_reg
00093c14 g     F .text	00000ec0 read_mon_status
000b6440 g     O .rwdata	00000001 OPTIONS_INSTALLED
000b67de g     O .rwdata	00000002 OSQEn
000b6724 g     O .rwdata	00000002 TRAFFIC_MSK25_2_ptr
000b6854 g     O .bss	00000004 USER_PAT
000a0b34 g     F .text	00000084 _setlocale_r
000b6736 g     O .rwdata	00000002 TRAFFIC_MSK27_1_ptr
0009ff5c g     F .text	00000068 __sfmoreglue
00090e58 g     F .text	000000d0 DEBUG_MON_ERRMSG
00086b78 g     F .text	00000080 read_10GMAC_64bit_stats
000b6740 g     O .rwdata	00000002 TRAFFIC_MSK28_0_ptr
000b68b0 g     O .bss	00000004 tot_hibytes
000a5080 g     F .text	00000060 __malloc_unlock
00099550 g     F .text	0000010c round
000b646a g     O .rwdata	00000002 requestTimer
00096dc0 g     F .text	00000038 set_PortB_LED
00086c3c g     F .text	0000002c set_10G_MAC_line_loopback
000ab848 g     F .text	00000004 OSTaskStatHook
0008d1ac g     F .text	000003c8 EXIT_LOOPBACK
000b6470 g     O .rwdata	00000001 num_of_streams
000b714a g     O .bss	0000157e ConfigMS
000b6638 g     O .rwdata	00000002 TRAFFIC_HDR27_0_ptr
000b6540 g     O .rwdata	00000002 Y1564_MAX_FRAME_LOSS_2_ptr
000b68a2 g     O .bss	00000001 responseUnits
000b69c0 g     O .bss	00000001 OSLockNesting
000b648e g     O .rwdata	00000002 TRAFFIC_GEN_PKTPERCENT02_ptr
000870d8 g     F .text	00000048 CLR_10G_MAC_STATS
000b6708 g     O .rwdata	00000002 TRAFFIC_MSK21_0_ptr
000b64f8 g     O .rwdata	00000002 TRAFFIC_GEN_PKT_EMIXUSERSIZE1_ptr
0008778c g     F .text	000000ac sfp10G_transmit_laser
000b654c g     O .rwdata	00000002 Y1564_MAX_AVAIL_0_ptr
0008b8e4 g     F .text	00001828 handle_aggr_ISR
00092268 g     F .text	0000007c SETGEN_TSEMAC_SOURCE_ADDR
000895e4 g     F .text	00001384 config_gui_link
000b681c g     O .rwdata	00000002 OSDataSize
000b69c1 g     O .bss	00000001 OSRunning
00088ed0 g     F .text	00000180 read_flash_parameters
00086c18 g     F .text	00000024 set_reset_10GMAC_FIFOS
000b673e g     O .rwdata	00000002 TRAFFIC_MSK28_1_ptr
00086200 g     F .text	00000078 configure_tse0_to_phya
000b86c8 g     O .bss	00000389 ConfigStatB
000b666a g     O .rwdata	00000002 TRAFFIC_MSK2_3_ptr
000b6430 g     O .rwdata	00000008 number_packet_lsb
000b6823 g     O .bss	00000001 END_TO_END_TEST
000b662c g     O .rwdata	00000002 TRAFFIC_HDR26_2_ptr
0008b3cc g     F .text	00000128 handle_sfp_ISR
000b64b0 g     O .rwdata	00000002 TRAFFIC_GEN_CONFIG10_ptr
000811b0 g     F .text	0000000c stop_BERT_test
000a162c g     F .text	000000e0 memmove
000ab850 g     F .text	00000004 OSInitHookBegin
000b662e g     O .rwdata	00000002 TRAFFIC_HDR26_1_ptr
000b6814 g     O .rwdata	00000002 OSTmrSize
0009ff4c g     F .text	00000010 _cleanup
000b6670 g     O .rwdata	00000002 TRAFFIC_MSK2_0_ptr
000a1d24 g     F .text	000000bc _Balloc
000811ec g     F .text	00000054 restart_bert
0009a52c g     F .text	00000094 __fixsfsi
000b64cc g     O .rwdata	00000008 DEF_GEN_EMIXSEQ1
000b682e g     O .bss	00000001 MS_PKT_RCVD
000b65ba g     O .rwdata	00000002 TRAFFIC_HDR12_3_ptr
000b69c4 g     O .bss	00000004 OSIdleCtr
000b65d0 g     O .rwdata	00000002 TRAFFIC_HDR14_0_ptr
000b6578 g     O .rwdata	00000002 TRAFFIC_HDR3_0_ptr
000b68d9 g     O .bss	00000001 MS_TEST_ACTIVE
000b458c g     O .rwdata	00000100 TRAFFIC_MON_MASK
0009b1e4 g     F .text	00000088 __gtdf2
000b668e g     O .rwdata	00000002 TRAFFIC_MSK6_1_ptr
000b674c g     O .rwdata	00000002 TRAFFIC_MSK30_2_ptr
000ab818 g       .text	00000000 OSStartTsk
00000000  w      *UND*	00000000 __errno
000b68e0 g     O .bss	00000004 tot_packets_act_transmit
000b66a6 g     O .rwdata	00000002 TRAFFIC_MSK9_1_ptr
000a62c0 g     F .text	0000019c OS_TCBInit
000ab170 g     F .text	0000006c epcs_sector_erase
000b661c g     O .rwdata	00000002 TRAFFIC_HDR24_2_ptr
000b65f0 g     O .rwdata	00000002 TRAFFIC_HDR18_0_ptr
000869b4 g     F .text	00000034 configure_phy_rx_delay_timing
000b6732 g     O .rwdata	00000002 TRAFFIC_MSK27_3_ptr
000b684c g     O .bss	00000001 BERT_STATUS
00000000 g     F .entry	00000000 __reset
000b650a g     O .rwdata	00000002 TRAFFIC_GEN_EMIXSEQ20_ptr
000b648a g     O .rwdata	00000002 TRAFFIC_GEN_PKTPERCENT10_ptr
000b672a g     O .rwdata	00000002 TRAFFIC_MSK26_3_ptr
000b64ae g     O .rwdata	00000002 TRAFFIC_GEN_CONFIG11_ptr
000b6746 g     O .rwdata	00000002 TRAFFIC_MSK29_1_ptr
000b64a2 g     O .rwdata	00000002 TRAFFIC_GEN_CONFIG23_ptr
000b68a1 g     O .bss	00000001 DETECT_REMOTE_LOOPBACK_10GA
000811c8 g     F .text	0000000c load_test_pattern
0008b4f4 g     F .text	000000ac timer1_ISR
00091770 g     F .text	000003f0 DBG_MON_STATS
000b644b g     O .rwdata	00000001 PHYB_FIBER_FULLDUPLEX
000b681a g     O .rwdata	00000002 OSTmrWheelTblSize
00088924 g     F .text	00000194 load_flashparameters_into_systemvars
000b6658 g     O .rwdata	00000002 TRAFFIC_HDR31_0_ptr
000b67ba g     O .rwdata	00000002 OSEventSize
000b6494 g     O .rwdata	00000002 EGEN_PKT_TYPE_ptr
0008140c g     F .text	00000044 get_BERT_rcv_pattern
000b65b0 g     O .rwdata	00000002 TRAFFIC_HDR10_0_ptr
000b69c8 g     O .bss	00000001 OSPrioHighRdy
000a366c g     F .text	00000074 _fstat_r
000ab840 g     F .text	00000004 OSTaskDelHook
00086cf8 g     F .text	0000002c read_ext_10G_phy
000b66f0 g     O .rwdata	00000002 TRAFFIC_MSK18_0_ptr
000b6464 g     O .rwdata	00000004 traffic_gen_config4
000b6990 g     O .bss	00000004 errno
0009b4c4 g     F .text	00000038 __make_dp
000ab7f8 g       .text	00000000 OSStartHighRdy
000b66b8 g     O .rwdata	00000002 TRAFFIC_MSK11_0_ptr
000b64c4 g     O .rwdata	00000008 DEF_GEN_EMIXSEQ0
000b656e g     O .rwdata	00000002 TRAFFIC_HDR2_1_ptr
000b6560 g     O .rwdata	00000002 TRAFFIC_HDR0_0_ptr
000a8e08 g     F .text	0000017c OSTaskCreateExt
00085720 g     F .text	000000cc tseMacWriteCommandConfigAndReset
000b670a g     O .rwdata	00000002 TRAFFIC_MSK22_3_ptr
000a702c g     F .text	0000002c OSFlagPendGetFlagsRdy
0008133c g     F .text	000000d0 read_C3794_BERT_counts
000b67fa g     O .rwdata	00000002 OSTaskStatStkSize
00080d54 g     F .text	0000000c clear_far_end_loopback
0009bba0 g     F .text	0000002c __make_fp
000a66bc g     F .text	000001a4 OSFlagAccept
000a7b5c g     F .text	00000058 OSQFlush
000b6542 g     O .rwdata	00000002 Y1564_MAX_FRAME_LOSS_1_ptr
000a77b8 g     F .text	000000b0 OSQAccept
000b69a0 g     O .bss	00000004 alt_argv
000b6880 g     O .bss	00000004 MAC10G_0B
000be418 g       *ABS*	00000000 _gp
000a4d48 g     F .text	00000168 usleep
000b66fc g     O .rwdata	00000002 TRAFFIC_MSK20_2_ptr
000b65a6 g     O .rwdata	00000002 TRAFFIC_HDR9_1_ptr
000b6504 g     O .rwdata	00000002 TRAFFIC_GEN_EMIXSEQ23_ptr
0008fcfc g     F .text	00000114 process_alarms_events
000b6826 g     O .bss	00000001 SEND_SFP10A_DATA
0009a1a0 g     F .text	00000070 __subsf3
000b661e g     O .rwdata	00000002 TRAFFIC_HDR24_1_ptr
000a8ce0 g     F .text	00000128 OSTaskCreate
000b6474 g     O .rwdata	00000002 TRAFFIC_GEN_PKT_EMIXUSERSIZE4_ptr
000b664a g     O .rwdata	00000002 TRAFFIC_HDR30_3_ptr
000a8a08 g     F .text	000002d8 OSTaskChangePrio
000b69bc g     O .bss	00000004 alt_heapsem
000b65d6 g     O .rwdata	00000002 TRAFFIC_HDR15_1_ptr
00096df8 g     F .text	00000038 set_PortA_LED
000894c0 g     F .text	0000003c CalcChecksum
000b8a51 g     O .bss	00000389 SpecialStat
000a645c g     F .text	00000004 OSDebugInit
000a8f84 g     F .text	00000280 OSTaskDel
000b654e g     O .rwdata	00000002 SPARE_THRESHOLD_03
00080c78 g     F .text	00000020 gate_C3794_blocks
000b450c g     O .rwdata	00000080 TRAFFIC_GEN_HDR
000b658c g     O .rwdata	00000002 TRAFFIC_HDR6_2_ptr
000811d4 g     F .text	0000000c latch_BERT_counts
000b657c g     O .rwdata	00000002 TRAFFIC_HDR4_2_ptr
000b6580 g     O .rwdata	00000002 TRAFFIC_HDR4_0_ptr
000b6510 g     O .rwdata	00000002 TRAFFIC_GEN_EMIXSEQ11_ptr
00081684 g     F .text	000000c8 run_C3794_BERT_test2
000b4fc8 g     O .rwdata	00000180 alt_fd_list
000c34f4 g     O .bss	00000370 OSFlagTbl
000b6676 g     O .rwdata	00000002 TRAFFIC_MSK3_1_ptr
000b652e g     O .rwdata	00000002 Y1564_MAX_FTD_3_ptr
000b65be g     O .rwdata	00000002 TRAFFIC_HDR12_1_ptr
0009c174 g     F .text	00000008 _putchar_r
000b6600 g     O .rwdata	00000002 TRAFFIC_HDR20_0_ptr
000a52e0 g     F .text	00000050 OS_EventTaskRemove
000ab314 g     F .text	00000058 epcs_write_status_register
000b6712 g     O .rwdata	00000002 TRAFFIC_MSK23_3_ptr
000ab454 g     F .text	00000094 alt_find_dev
000a158c g     F .text	000000a0 memcpy
000b663a g     O .rwdata	00000002 TRAFFIC_HDR28_3_ptr
00080660 g     F .text	00000080 alt_2_wireTransmitByte_A
000b65c0 g     O .rwdata	00000002 TRAFFIC_HDR12_0_ptr
000b66aa g     O .rwdata	00000002 TRAFFIC_MSK10_3_ptr
000b67e4 g     O .rwdata	00000002 OSRdyTblSize
00092458 g     F .text	000000a8 SETMONHDR_10GMAC_DEST_ADDR
00086f0c g     F .text	0000002c write_ext_10G_phy
000b6602 g     O .rwdata	00000002 TRAFFIC_HDR21_3_ptr
0009ff40 g     F .text	0000000c _cleanup_r
0009b2f4 g     F .text	000000f8 __floatsidf
000929c0 g     F .text	00000030 SETGEN_START
000ab558 g     F .text	0000008c alt_io_redirect
0009209c g     F .text	0000001c CLR_GEN_HEADER_BY_STREAM
000b65ac g     O .rwdata	00000002 TRAFFIC_HDR10_2_ptr
000b6520 g     O .rwdata	00000002 Y1564_CIR_1_ptr
000a44dc g     F .text	00000088 __ltdf2
000b66d2 g     O .rwdata	00000002 TRAFFIC_MSK15_3_ptr
000b684e g     O .bss	00000001 outcntr
000b6538 g     O .rwdata	00000002 Y1564_MAX_FDV_2_ptr
000b64ac g     O .rwdata	00000002 TRAFFIC_GEN_CONFIG12_ptr
000b64a8 g     O .rwdata	00000002 TRAFFIC_GEN_CONFIG20_ptr
000801d0 g     F .text	00000004 alt_2_wireInit_A
00080d3c g     F .text	00000018 clear_register_bit
000b651a g     O .rwdata	00000002 TRAFFIC_GEN_EMIXSEQ00_ptr
000b682a g     O .bss	00000001 SEND_LPBK_DATA
00093684 g     F .text	00000590 GetTotalResults
0009c21c g     F .text	00000014 puts
000b6831 g     O .bss	00000001 RxBuffer_RDY
00085c28 g     F .text	00000088 configure_TxClkB_speed
000b689d g     O .bss	00000001 loopup_prev
000a58d8 g     F .text	00000128 OSEventNameGet
000b68a6 g     O .bss	00000001 ipv4B_active
000b67c8 g     O .rwdata	00000002 OSFlagMax
000b68c0 g     O .bss	00000008 tot_seconds
000b66f4 g     O .rwdata	00000002 TRAFFIC_MSK19_2_ptr
00088128 g     F .text	00000284 init_10G_MAC
000922e4 g     F .text	0000007c SETGEN_TSEMAC_DEST_ADDR
000a9d78 g     F .text	000000d0 alt_epcs_flash_write_block
000b653e g     O .rwdata	00000002 Y1564_MAX_FRAME_LOSS_3_ptr
000857ec g     F .text	0000043c configure_tse_mac
0008051c g     F .text	00000020 alt_2_wireStop_A
000a1b00 g     F .text	000000b0 __ratio
000b6728 g     O .rwdata	00000002 TRAFFIC_MSK25_0_ptr
000b68a4 g     O .bss	00000001 SWAP_IP
000a5f08 g     F .text	000000d0 OSIntExit
00089460 g     F .text	00000020 BytesToInt
000b65e6 g     O .rwdata	00000002 TRAFFIC_HDR17_1_ptr
000b6802 g     O .rwdata	00000002 OSTCBSize
00086630 g     F .text	00000384 configure_phya_copper
000b68e4 g     O .bss	00000004 tot_packets_to_transmit
00080790 g     F .text	00000018 update_bert_status
000b68e8 g     O .bss	00000004 source_10g_addr1
000b69c9 g     O .bss	00000001 OSPrioCur
0008efa8 g     F .text	0000010c CONFIGURE_TEST_STREAMS
000aa608 g     F .text	000001c8 altera_avalon_jtag_uart_read
000b65e0 g     O .rwdata	00000002 TRAFFIC_HDR16_0_ptr
0009c124 g     F .text	00000034 _printf_r
000b66ee g     O .rwdata	00000002 TRAFFIC_MSK18_1_ptr
000b6608 g     O .rwdata	00000002 TRAFFIC_HDR21_0_ptr
0008076c g     F .text	00000024 alt_2_wireStart_A
0009b840 g     F .text	00000008 __udivsi3
000a4908 g     F .text	00000084 isatty
000b6484 g     O .rwdata	00000002 TRAFFIC_RATE1_ptr
000b669e g     O .rwdata	00000002 TRAFFIC_MSK8_1_ptr
000b67e8 g     O .rwdata	00000002 OSStkWidth
00090b68 g     F .text	00000010 DISABLE_MON_MASK
000b66ec g     O .rwdata	00000002 TRAFFIC_MSK18_2_ptr
000b6682 g     O .rwdata	00000002 TRAFFIC_MSK5_3_ptr
00086b74 g     F .text	00000004 sfp_B_read_10G_block_into_Array
000b41c4 g     O .rodata	000000c8 __mprec_tens
000b67dc g     O .rwdata	00000002 OSPtrSize
000b6532 g     O .rwdata	00000002 Y1564_MAX_FTD_1_ptr
0009288c g     F .text	0000001c SET_GEN_MON_TO_STREAM
000a0b10 g     F .text	00000008 __locale_charset
000b67bc g     O .rwdata	00000002 OSEventTblSize
000b6492 g     O .rwdata	00000002 TRAFFIC_GEN_PKTPERCENT00_ptr
000996cc g     F .text	000000a4 __fixunsdfsi
000ab76c g       .text	00000000 OSCtxSw
000b649a g     O .rwdata	00000002 TRAFFIC_GEN_CONFIG33_ptr
000b6450 g     O .rwdata	00000002 MAC_FRM_LENGTH
000b64a0 g     O .rwdata	00000002 TRAFFIC_GEN_CONFIG30_ptr
000b655c g     O .rwdata	00000002 TRAFFIC_HDR0_2_ptr
000b6984 g     O .bss	00000004 __malloc_top_pad
000b6586 g     O .rwdata	00000002 TRAFFIC_HDR5_1_ptr
000b69cc g     O .bss	00000004 OSTCBList
000b685e g     O .bss	00000002 PIO2_Content
000b6994 g     O .bss	00000004 alt_fd_list_lock
000b6970 g     O .bss	00000008 SUM_DURATION_CYCLES
000b68c9 g     O .bss	00000001 emix
000b6618 g     O .rwdata	00000002 TRAFFIC_HDR23_0_ptr
000b6764 g     O .rwdata	00000004 __mb_cur_max
000916e8 g     F .text	00000088 SET_TRAFFIC_GEN_GBLCONFIG
000b6742 g     O .rwdata	00000002 TRAFFIC_MSK29_3_ptr
000b8dda g     O .bss	00000080 FlashQTX
000a0b18 g     F .text	0000000c _localeconv_r
000b671c g     O .rwdata	00000002 TRAFFIC_MSK24_2_ptr
000a241c g     F .text	0000003c __i2b
000a04f4 g     F .text	0000049c __sfvwrite_r
000b6748 g     O .rwdata	00000002 TRAFFIC_MSK29_0_ptr
000b65d8 g     O .rwdata	00000002 TRAFFIC_HDR15_0_ptr
000c3864 g     O .bss	00000c30 OSMemTbl
000b69d0 g     O .bss	00000001 OSTickStepState
000b65c8 g     O .rwdata	00000002 TRAFFIC_HDR13_0_ptr
000964dc g     F .text	00000080 snap_tse_a_frame_counters
00095c60 g     F .text	0000087c read_tse_stat_counters
000b6458 g     O .rwdata	00000004 traffic_gen_config
000a2fe8 g     F .text	00000070 _sbrk_r
0008ee9c g     F .text	0000010c SET_TEST_PARAMS
00085698 g     F .text	0000002c set_TxClkB_speed
000b65b4 g     O .rwdata	00000002 TRAFFIC_HDR11_2_ptr
000b68ec g     O .bss	00000004 destination_10g_addr0
000b6628 g     O .rwdata	00000002 TRAFFIC_HDR25_0_ptr
000b6630 g     O .rwdata	00000002 TRAFFIC_HDR26_0_ptr
0008aaec g     F .text	000000a4 validateHexString
000b6482 g     O .rwdata	00000002 TRAFFIC_RATE2_ptr
0009299c g     F .text	00000010 CLRGEN_STOP
000b6444 g     O .rwdata	00000001 PHYA_COPPER_ENABLE_AN
000b67e0 g     O .rwdata	00000002 OSQMax
0008765c g     F .text	00000098 loopback_pma_sys_10G_external_phy
000c4494 g     O .bss	00000800 OSTaskStatStk
000b6668 g     O .rwdata	00000002 TRAFFIC_MSK1_0_ptr
000a7494 g     F .text	000000d4 OSMemNameGet
000b649e g     O .rwdata	00000002 TRAFFIC_GEN_CONFIG31_ptr
000814c4 g     F .text	000000d0 set_test_pattern
000b67c0 g     O .rwdata	00000002 OSFlagEn
000a37c8 g     F .text	00000078 _read_r
000b6806 g     O .rwdata	00000002 OSTimeTickHookEn
000a46e8 g     F .text	00000004 alt_dcache_flush
000a7ea0 g     F .text	000000dc OSQPost
000a6514 g     F .text	00000040 OS_FlagUnlink
000b6754 g     O .rwdata	00000002 TRAFFIC_MSK31_2_ptr
00080568 g     F .text	000000f8 alt_2_wireReadByte_A
000b4b8c g     O .rwdata	0000000c __lc_ctype
000b6784 g     O .rwdata	00000004 alt_max_fd
00096c18 g     F .text	00000090 sfp_reg_write_diag_word
000a54c0 g     F .text	00000028 OS_MemCopy
000a560c g     F .text	0000009c OS_Sched
0009bee0 g     F .text	00000138 __unpack_d
000a3548 g     F .text	00000110 _fclose_r
000b66d4 g     O .rwdata	00000002 TRAFFIC_MSK15_2_ptr
000a7428 g     F .text	0000006c OSMemGet
000a9408 g     F .text	00000150 OSTaskNameSet
0009fdc0 g     F .text	00000034 fflush
000b6624 g     O .rwdata	00000002 TRAFFIC_HDR25_2_ptr
000b6988 g     O .bss	00000004 __malloc_max_sbrked_mem
000b69d4 g     O .bss	00000004 OSCtxSwCtr
000b6614 g     O .rwdata	00000002 TRAFFIC_HDR23_2_ptr
000ab84c g     F .text	00000004 OSTimeTickHook
00088d10 g     F .text	000001c0 write_flash_parameter_block
000b67ca g     O .rwdata	00000002 OSFlagNameSize
000b647c g     O .rwdata	00000002 TRAFFIC_MON_STREAM_CNTL0_ptr
000b666c g     O .rwdata	00000002 TRAFFIC_MSK2_2_ptr
000876f4 g     F .text	00000098 loopback_xgxs_sys_10G_external_phy
0009a5c0 g     F .text	00000054 __extendsfdf2
000b65b8 g     O .rwdata	00000002 TRAFFIC_HDR11_0_ptr
000a5330 g     F .text	00000060 OS_EventTaskRemoveMulti
000b68a5 g     O .bss	00000001 FRAME_TYPE_LLC
000b671e g     O .rwdata	00000002 TRAFFIC_MSK24_1_ptr
000b6640 g     O .rwdata	00000002 TRAFFIC_HDR28_0_ptr
000b68a8 g     O .bss	00000001 stream_no
0009ab64 g     F .text	00000074 __adddf3
0008fe10 g     F .text	00000144 process_bert_errors
000a5238 g     F .text	000000a8 OS_EventTaskWaitMulti
000aa184 g     F .text	00000070 alt_epcs_flash_erase_block
00087354 g     F .text	0000006c init_10G_SC_FIFO
000a19e0 g     F .text	00000120 __b2d
00080d60 g     F .text	0000000c clear_internal_loopback
000b67e2 g     O .rwdata	00000002 OSQSize
000a3e1c g     F .text	000005b0 __umoddi3
000b6438 g     O .rwdata	00000004 MACA_COMMAND_CONFIG
000a498c g     F .text	0000009c lseek
000b6664 g     O .rwdata	00000002 TRAFFIC_MSK1_2_ptr
00091640 g     F .text	000000a8 SETMON_MAC_SOURCE_DEST_ADDR
000a84d8 g     F .text	000001a8 OSSemPend
000b660e g     O .rwdata	00000002 TRAFFIC_HDR22_1_ptr
000b66c6 g     O .rwdata	00000002 TRAFFIC_MSK13_1_ptr
00092844 g     F .text	00000048 SETMON_L2_HEADER_MASK_MACFRAME
000b66b2 g     O .rwdata	00000002 TRAFFIC_MSK11_3_ptr
000b6552 g     O .rwdata	00000002 SPARE_THRESHOLD_01
000b6626 g     O .rwdata	00000002 TRAFFIC_HDR25_1_ptr
000b6760 g     O .rwdata	00000004 _global_impure_ptr
000b6584 g     O .rwdata	00000002 TRAFFIC_HDR5_2_ptr
00085d38 g     F .text	000001b4 configure_phyb_fiber
000a2984 g     F .text	000005f4 _realloc_r
000894a8 g     F .text	00000018 SaveBytesInt
000b67cc g     O .rwdata	00000002 OSLowestPrio
000c6718 g       *ABS*	00000000 __bss_end
000a4880 g     F .text	00000088 alt_iic_isr_register
000ab85c g     F .text	00000004 OSTCBInitHook
000b65d2 g     O .rwdata	00000002 TRAFFIC_HDR15_3_ptr
000920b8 g     F .text	00000028 CLR_GEN_MON_HDRS_BY_STREAM
000b6812 g     O .rwdata	00000002 OSTmrCfgTicksPerSec
000a4c88 g     F .text	000000c0 alt_tick
00095860 g     F .text	00000400 read_tse_stat_counters_debug
000b8e5a g     O .bss	00000389 SpecialStatB
000b653c g     O .rwdata	00000002 Y1564_MAX_FDV_0_ptr
000a3840 g     F .text	000005dc __udivdi3
00082ee0 g     F .text	000002e4 config_c37_hw
000b66ce g     O .rwdata	00000002 TRAFFIC_MSK14_1_ptr
000b91e4 g     O .bss	00002000 c3794_task_stk
000b67b4 g     O .rwdata	00000002 OSEventEn
000b428c g     O .rodata	00000028 __mprec_bigtens
00087444 g     F .text	00000218 init_10G_xaui
000a2678 g     F .text	00000120 __s2b
000b680e g     O .rwdata	00000002 OSTmrCfgNameSize
000b65b6 g     O .rwdata	00000002 TRAFFIC_HDR11_1_ptr
0008174c g     F .text	00000188 run_C3794_BERT_test1
000b655e g     O .rwdata	00000002 TRAFFIC_HDR0_1_ptr
0009b570 g     F .text	00000194 __floatunsidf
000b6678 g     O .rwdata	00000002 TRAFFIC_MSK3_0_ptr
000a1900 g     F .text	00000060 __mcmp
000aac54 g     F .text	000000c0 altera_avalon_uart_init
000b68f0 g     O .bss	00000004 irq_aggr_capture
000807c0 g     F .text	000000e0 dump_C3794_status
000b65a8 g     O .rwdata	00000002 TRAFFIC_HDR9_0_ptr
000b6420 g     O .rwdata	00000004 RCV_CLOCK_WATCHDOG_LIMIT
000b65fc g     O .rwdata	00000002 TRAFFIC_HDR20_2_ptr
00091518 g     F .text	0000009c DUMP_GEN_CONFIGS
00080d98 g     F .text	00000020 transition_register_bit
0009ff28 g     F .text	00000018 __fp_lock_all
000873c0 g     F .text	00000084 XAUI_SERIAL_SELFLPBK
000a47e4 g     F .text	00000018 alt_ic_irq_enabled
00080d6c g     F .text	00000014 set_register_bit
0009685c g     F .text	000000d0 read_sfp_name
0008fc98 g     F .text	00000064 update_history
000966d4 g     F .text	000000d8 sfp_A_read_block_into_Array
000b6694 g     O .rwdata	00000002 TRAFFIC_MSK7_2_ptr
000b672e g     O .rwdata	00000002 TRAFFIC_MSK26_1_ptr
000a65e4 g     F .text	00000070 OS_FlagInit
000a4c54 g     F .text	00000034 alt_alarm_stop
000b68d8 g     O .bss	00000001 MS_PKT
000b648c g     O .rwdata	00000002 TRAFFIC_GEN_PKTPERCENT03_ptr
00080b20 g     F .text	00000158 wait_for_FrameSync
000b65bc g     O .rwdata	00000002 TRAFFIC_HDR12_2_ptr
000b68f4 g     O .bss	00000008 tot_good_pkts_rcvd1
000b6692 g     O .rwdata	00000002 TRAFFIC_MSK7_3_ptr
000b67f0 g     O .rwdata	00000002 OSTaskIdleStkSize
000b6688 g     O .rwdata	00000002 TRAFFIC_MSK5_0_ptr
000b6452 g     O .rwdata	00000002 traffic_gen_pkt_length
000b6998 g     O .bss	00000004 alt_irq_active
000b6874 g     O .bss	00000004 MAC_1B
000a8248 g     F .text	0000004c OSSemAccept
000b65aa g     O .rwdata	00000002 TRAFFIC_HDR10_3_ptr
0008aaa0 g     F .text	0000004c stripLeadingHex
000a7660 g     F .text	00000058 OSMemPut
000b64aa g     O .rwdata	00000002 TRAFFIC_GEN_CONFIG13_ptr
000808d4 g     F .text	000000f4 wait_for_C3794_clk
000a7344 g     F .text	000000e4 OSMemCreate
000b69d8 g     O .bss	00000004 OSIdleCtrMax
000bb1e4 g     O .bss	00000389 LoopbackStat
00080000 g       *ABS*	00000000 __alt_mem_onchip_mem
000b68cb g     O .bss	00000001 mplsTags
000bb56d g     O .bss	00000389 ConfigStat
000800ec g     F .exceptions	0000009c alt_irq_handler
000b64a6 g     O .rwdata	00000002 TRAFFIC_GEN_CONFIG21_ptr
000b4fa0 g     O .rwdata	00000028 alt_dev_null
000b6840 g     O .bss	00000001 BERT_SYNC
000b6804 g     O .rwdata	00000002 OSTicksPerSec
000b647e g     O .rwdata	00000002 TRAFFIC_RATE_TYPE
0008ab90 g     F .text	00000164 convertStringToHex
00086c68 g     F .text	00000048 enable_PHY_clock
000b6894 g     O .bss	00000001 SET_SWAP_A_TOGGLE
0009ba30 g     F .text	000000c8 __unpack_f
0008a968 g     F .text	0000002c littleEndianizeWord
00086a70 g     F .text	00000078 select_copper_operation
000b66e4 g     O .rwdata	00000002 TRAFFIC_MSK17_2_ptr
00080d14 g     F .text	00000018 set_XMT_N_CHANNELS
000ab76c g       .text	00000000 OSIntCtxSw
000b6606 g     O .rwdata	00000002 TRAFFIC_HDR21_1_ptr
000b6850 g     O .bss	00000001 Misc_stat37
00086e38 g     F .text	000000d4 read_10G_sfp_power
00090b78 g     F .text	000002e0 SET_MON_IP_ADDR_BY_STREAM
000b6598 g     O .rwdata	00000002 TRAFFIC_HDR7_0_ptr
0008eb9c g     F .text	00000220 SET_LINE_LOAD_RATE
000b65ca g     O .rwdata	00000002 TRAFFIC_HDR14_3_ptr
000a17cc g     F .text	00000070 __hi0bits
000b66a8 g     O .rwdata	00000002 TRAFFIC_MSK9_0_ptr
0009b3ec g     F .text	000000d8 __fixdfsi
000b682f g     O .bss	00000001 SENDING_MS_CONFIG
000802cc g     F .text	000000f8 alt_2_wireReadByte_B
000872fc g     F .text	0000002c SET_10G_MAC_TX_ADDR
00087120 g     F .text	000001dc dump_MAC_settings
00080e88 g     F .text	00000118 load_RCVD_FRAME
000b644c g     O .rwdata	00000002 PHYA_CONFIG
000b69dc g     O .bss	00000004 OSTCBFreeList
000912ec g     F .text	0000022c DUMP_MON_HDRS_BY_STREAM
000b6860 g     O .bss	00000002 number_packet_msb
000a8680 g     F .text	0000012c OSSemPendAbort
000b6592 g     O .rwdata	00000002 TRAFFIC_HDR7_3_ptr
000b6734 g     O .rwdata	00000002 TRAFFIC_MSK27_2_ptr
000b677c g     O .rwdata	00000008 alt_dev_list
000a4eb0 g     F .text	00000118 write
000a289c g     F .text	000000e8 _putc_r
000b6730 g     O .rwdata	00000002 TRAFFIC_MSK26_0_ptr
000b6808 g     O .rwdata	00000002 OSVersionNbr
000b6441 g     O .rwdata	00000001 OPTIONS_ENABLED
000a4754 g     F .text	00000090 fstat
00095750 g     F .text	00000088 getOctetsReceivedOK_64
000b68a7 g     O .bss	00000001 ipv6B_active
000923dc g     F .text	0000007c SETMON_TSEMAC_SOURCE_ADDR
000b660c g     O .rwdata	00000002 TRAFFIC_HDR22_2_ptr
00090744 g     F .text	000002cc set_num_test_packets_by_secs
000b689c g     O .bss	00000001 LOOK_FOR_RESPONSE
000b6522 g     O .rwdata	00000002 Y1564_CIR_0_ptr
000b6636 g     O .rwdata	00000002 TRAFFIC_HDR27_1_ptr
000b67b0 g     O .rwdata	00000004 OSEndiannessTest
000b670e g     O .rwdata	00000002 TRAFFIC_MSK22_1_ptr
000a2558 g     F .text	00000120 __pow5mult
000b6480 g     O .rwdata	00000002 TRAFFIC_RATE3_ptr
000b6978 g     O .bss	00000004 __nlocale_changed
000b646e g     O .rwdata	00000002 size_offset
000b6496 g     O .rwdata	00000002 EGEN_PKT_TYPE_ptr_1
0009b848 g     F .text	00000008 __umodsi3
000b6820 g     O .bss	00000001 gCUSTOM_TEST_START
000b687c g     O .bss	00000004 MAC10G_0
000b6447 g     O .rwdata	00000001 PHYA_FIBER_FULLDUPLEX
000b6830 g     O .bss	00000001 SENDING_STD_PKT
00096634 g     F .text	000000a0 sfp_read_field_B
000b64d4 g     O .rwdata	00000008 DEF_GEN_EMIXSEQ2
000b65ae g     O .rwdata	00000002 TRAFFIC_HDR10_1_ptr
000b6838 g     O .bss	00000001 UART_CONTROL_REG
000b6821 g     O .bss	00000001 gCUSTOM_TEST_STOP
000bb8f6 g     O .bss	00000389 ConfigStat10G
000ab09c g     F .text	00000054 epcs_read_electronic_signature
000920fc g     F .text	00000070 SET_MON_BY_STREAM
000b68a0 g     O .bss	00000001 DETECT_REMOTE_LOOPBACK_TSEB
000b67c2 g     O .rwdata	00000002 OSFlagGrpSize
00094ad4 g     F .text	00000230 test_complete
000bbc7f g     O .bss	00000389 LoopbackStatB
000b6534 g     O .rwdata	00000002 Y1564_MAX_FTD_0_ptr
000c6718 g       *ABS*	00000000 end
000b6870 g     O .bss	00000004 MAC_0B
00092930 g     F .text	0000006c DEBUG_GEN_MSG
000b673c g     O .rwdata	00000002 TRAFFIC_MSK28_2_ptr
000b66ac g     O .rwdata	00000002 TRAFFIC_MSK10_2_ptr
0009b8d0 g     F .text	00000160 __pack_f
000b684f g     O .bss	00000001 BERT_STATE
000b6752 g     O .rwdata	00000002 TRAFFIC_MSK31_3_ptr
000b6662 g     O .rwdata	00000002 TRAFFIC_MSK1_3_ptr
000b6572 g     O .rwdata	00000002 TRAFFIC_HDR3_3_ptr
000b65ea g     O .rwdata	00000002 TRAFFIC_HDR18_3_ptr
00091104 g     F .text	000001e8 DUMP_MON_MASK_BY_STREAM
000aaea0 g     F .text	000001ac altera_avalon_uart_write
000b68fc g     O .bss	00000004 tot_lobytes
000aa318 g     F .text	000000c8 altera_avalon_jtag_uart_init
000a6224 g     F .text	0000009c OS_TaskStat
00087838 g     F .text	0000011c config_10G_external_phy
00086078 g     F .text	0000001c exit_100FX_operation
000856f0 g     F .text	0000001c tseMacReset
000b65c6 g     O .rwdata	00000002 TRAFFIC_HDR13_1_ptr
000ca000 g       *ABS*	00000000 __alt_stack_pointer
000aa9a8 g     F .text	00000050 alt_avalon_timer_sc_init
000aaa44 g     F .text	00000010 altera_avalon_uart_write_fd
0009b850 g     F .text	00000080 __clzsi2
000b6900 g     O .bss	00000004 destination_tse_addr0
000b6843 g     O .bss	00000001 HISTORY_LED
000aaa34 g     F .text	00000010 altera_avalon_uart_close_fd
000aa7d0 g     F .text	000001d8 altera_avalon_jtag_uart_write
000b650e g     O .rwdata	00000002 TRAFFIC_GEN_EMIXSEQ12_ptr
000b66ea g     O .rwdata	00000002 TRAFFIC_MSK18_3_ptr
000b6666 g     O .rwdata	00000002 TRAFFIC_MSK1_1_ptr
0009fe4c g     F .text	00000004 __sfp_lock_acquire
000a14a8 g     F .text	000000e4 memchr
000a54a0 g     F .text	00000020 OS_MemClr
000b6512 g     O .rwdata	00000002 TRAFFIC_GEN_EMIXSEQ10_ptr
0009c3ec g     F .text	00001eac ___vfprintf_internal_r
00080d2c g     F .text	00000010 set_IDLE_code
000ab860 g     F .text	000001cc OSTaskStkInit
000b645c g     O .rwdata	00000004 traffic_gen_config2
000a01e0 g     F .text	00000314 _free_r
000b6488 g     O .rwdata	00000002 TRAFFIC_GEN_PKTPERCENT11_ptr
000b6674 g     O .rwdata	00000002 TRAFFIC_MSK3_2_ptr
00086d24 g     F .text	00000114 sfp_A_read_10G_block_into_Array
000b64ec g     O .rwdata	00000008 DEF_GEN_EMIXUSER1
000b66f6 g     O .rwdata	00000002 TRAFFIC_MSK19_1_ptr
00086ae8 g     F .text	00000078 select_fiber_operation
000a5390 g     F .text	000000f4 OS_EventTaskRdy
000b66e8 g     O .rwdata	00000002 TRAFFIC_MSK17_0_ptr
000b664e g     O .rwdata	00000002 TRAFFIC_HDR30_1_ptr
000abd90 g     F .text	000001b0 __call_exitprocs
000b69e0 g     O .bss	00000001 OSCPUUsage
000b6576 g     O .rwdata	00000002 TRAFFIC_HDR3_1_ptr
000b6654 g     O .rwdata	00000002 TRAFFIC_HDR31_2_ptr
000b697c g     O .bss	00000004 __mlocale_changed
00095514 g     F .text	0000001c collect_TSE_MAC_test_stats
000b6574 g     O .rwdata	00000002 TRAFFIC_HDR3_2_ptr
000b6770 g     O .rwdata	00000004 __malloc_sbrk_base
00080188 g     F .text	00000038 _start
000b66b4 g     O .rwdata	00000002 TRAFFIC_MSK11_2_ptr
000925ac g     F .text	00000074 SETGENMONHDR_10GMAC_DEST_ADDR
000b69a8 g     O .bss	00000004 _alt_tick_rate
000a7bb4 g     F .text	000001c4 OSQPend
000b6904 g     O .bss	00000008 tot_avg_pkt_size
000b685a g     O .bss	00000002 OOFCNT
000811e0 g     F .text	0000000c Insert_BERT_biterror
0008edbc g     F .text	000000e0 SET_GEN_PACKET_LENGTH
000b6648 g     O .rwdata	00000002 TRAFFIC_HDR29_0_ptr
000b6550 g     O .rwdata	00000002 SPARE_THRESHOLD_02
000b690c g     O .bss	00000008 tot_good_pkts_rcvd
000a9904 g     F .text	000000a4 OSTimeDly
000998b4 g     F .text	00000088 __floatundidf
000b66a2 g     O .rwdata	00000002 TRAFFIC_MSK9_3_ptr
000b6596 g     O .rwdata	00000002 TRAFFIC_HDR7_1_ptr
0009367c g     F .text	00000008 SET_FPSLOAD_BY_STREAM
000b6566 g     O .rwdata	00000002 TRAFFIC_HDR1_1_ptr
00090460 g     F .text	000001e8 set_num_test_packets_by_secs_precision
000a20e8 g     F .text	0000014c __lshift
000aba2c g     F .text	00000124 alt_avalon_spi_command
000b6914 g     O .bss	00000008 tot_bad_pkts_rcvd1
000b69ac g     O .bss	00000004 _alt_nticks
000a4ac0 g     F .text	0000011c read
000b66c4 g     O .rwdata	00000002 TRAFFIC_MSK13_2_ptr
00097054 g     F .text	00000500 read_phy_operating_mode_printf
000a9c14 g     F .text	000000b4 alt_sys_init
000b691c g     O .bss	00000004 tot_packets_to_transmit1
000806e0 g     F .text	0000008c alt_2_wireSendByte_A
00086fc8 g     F .text	00000058 reset_10G_MAC_FIFOS
000b6526 g     O .rwdata	00000002 Y1564_EIR_2_ptr
000b6634 g     O .rwdata	00000002 TRAFFIC_HDR27_2_ptr
000b6620 g     O .rwdata	00000002 TRAFFIC_HDR24_0_ptr
000b662a g     O .rwdata	00000002 TRAFFIC_HDR26_3_ptr
0008d928 g     F .text	000001f0 loopback_event_processing
000b69e1 g     O .bss	00000001 OSTaskCtr
00080d80 g     F .text	0000000c set_far_end_loopback
000818d4 g     F .text	0000160c config_hardware10G
00086cb0 g     F .text	00000048 set_10G_PHY_reset
000b6834 g     O .bss	00000002 tbuff_ptr
0009c2a4 g     F .text	000000f0 strncmp
00088824 g     F .text	00000100 save_systemvars_to_flashparameters
000b658e g     O .rwdata	00000002 TRAFFIC_HDR6_1_ptr
0008d574 g     F .text	000003b4 ENTER_LOOPBACK
000a99a8 g     F .text	00000124 OSTimeDlyHMSM
000b65a0 g     O .rwdata	00000002 TRAFFIC_HDR8_0_ptr
000a2234 g     F .text	000001e8 __multiply
00080fa0 g     F .text	0000008c init_c37dot94
000aa230 g     F .text	00000034 altera_avalon_jtag_uart_close
00090a10 g     F .text	00000158 Write_Mon_Mask
000b667e g     O .rwdata	00000002 TRAFFIC_MSK4_1_ptr
000b6a10 g     O .bss	00000028 __malloc_current_mallinfo
000b688c g     O .bss	00000008 total_num_packets
000b67b6 g     O .rwdata	00000002 OSEventMax
0009a43c g     F .text	00000078 __eqsf2
000a1de0 g     F .text	0000017c __d2b
000b6449 g     O .rwdata	00000001 PHYB_FIBER_ENABLE_AN
000b6864 g     O .bss	00000004 MAC10A_COMMAND_CONFIG
000a87ac g     F .text	000000b4 OSSemPost
000b6841 g     O .bss	00000001 BERT_INVERT
00086bf8 g     F .text	00000020 clear_reset_10GMAC_FIFOS
00092500 g     F .text	000000ac SETGENMONHDR_10GMAC_SOURCE_ADDR
000ab128 g     F .text	00000048 epcs_read_status_register
000a6020 g     F .text	00000058 OSSchedUnlock
000b6570 g     O .rwdata	00000002 TRAFFIC_HDR2_0_ptr
00088ab8 g     F .text	00000258 read_flash_qtx_block_and_write_phy
000aa220 g     F .text	00000010 altera_avalon_jtag_uart_read_fd
000abc00 g     F .text	000000e0 alt_get_fd
000b69e4 g     O .bss	00000004 OSMemFreeList
000b6920 g     O .bss	00000004 source_10g_addr0
000a6078 g     F .text	00000064 OSStatInit
000b6844 g     O .bss	00000004 CLKCTRL_register
000b6924 g     O .bss	00000008 tot_sumbytes
000ab36c g     F .text	0000006c alt_busy_sleep
000a6654 g     F .text	00000068 OSFlagQuery
000b682b g     O .bss	00000001 SEND_LPBK10G_DATA
0009c018 g     F .text	000000c8 __fpcmp_parts_d
000b67ec g     O .rwdata	00000002 OSTaskCreateExtEn
000a34d8 g     F .text	00000070 _close_r
0008a994 g     F .text	0000002c bigEndianizeWord
000b656c g     O .rwdata	00000002 TRAFFIC_HDR2_2_ptr
000b4440 g     O .rwdata	000000cc bert_str
000bc008 g     O .bss	000000c8 ConfigStatC37
000b6884 g     O .bss	00000004 MAC10G_1
000b683a g     O .bss	00000001 GIGE_STATUS
000811bc g     F .text	0000000c start_BERT_test
000b468c g     O .rwdata	00000100 TRAFFIC_MON_HDR
000b692c g     O .bss	00000004 tot_hicycles
000b659e g     O .rwdata	00000002 TRAFFIC_HDR8_1_ptr
000b646d g     O .rwdata	00000001 stream_offset
000b684d g     O .bss	00000001 incntr
000ab04c g     F .text	00000050 epcs_read_device_id
000abd18 g     F .text	00000074 memcmp
000a51b0 g     F .text	00000004 OS_Dummy
000aa200 g     F .text	00000010 altera_avalon_jtag_uart_close_fd
000b65de g     O .rwdata	00000002 TRAFFIC_HDR16_1_ptr
000c6718 g       *ABS*	00000000 __alt_stack_base
000aa1f4 g     F .text	0000000c altera_avalon_jtag_uart_ioctl_fd
00000000 g       *ABS*	00000000 __alt_mem_epcs_flash_controller_0
000b6700 g     O .rwdata	00000002 TRAFFIC_MSK20_0_ptr
000969cc g     F .text	000000b0 sfp_reg_read_one_byte
000b683b g     O .bss	00000001 C3794_State
000b656a g     O .rwdata	00000002 TRAFFIC_HDR2_3_ptr
0009e2bc g     F .text	0000013c __swsetup_r
000c4c94 g     O .bss	000001e0 OSQTbl
0009af8c g     F .text	00000258 __divdf3
00097554 g     F .text	000000a4 read_10G_phy_operating_mode
0009ffc4 g     F .text	000000f0 __sfp
000a1c44 g     F .text	00000058 __copybits
000b654a g     O .rwdata	00000002 Y1564_MAX_AVAIL_1_ptr
000b4b98 g     O .rwdata	00000408 __malloc_av_
000b652a g     O .rwdata	00000002 Y1564_EIR_0_ptr
0009fe58 g     F .text	00000004 __sinit_lock_release
000b660a g     O .rwdata	00000002 TRAFFIC_HDR22_3_ptr
000b668c g     O .rwdata	00000002 TRAFFIC_MSK6_2_ptr
000b69e8 g     O .bss	00000004 OSTCBHighRdy
0009abd8 g     F .text	000003b4 __muldf3
000921e4 g     F .text	00000030 SETMON_STOP
000a3144 g     F .text	00000060 __sread
00089050 g     F .text	0000019c read_flash_qtx_block
00080c98 g     F .text	00000030 reset_C3794_blocks
000b3fd4 g     O .rodata	00000010 __thenan_sf
000b69ec g     O .bss	00000004 OSQFreeList
000926c4 g     F .text	00000180 Write_Gen_Traffic
000abb50 g     F .text	000000b0 alt_find_file
000ab3d8 g     F .text	0000007c alt_dev_llist_insert
000b68bc g     O .bss	00000004 tot_rx_broadcast_cnt1
000a50e0 g     F .text	000000c8 __malloc_lock
000b664c g     O .rwdata	00000002 TRAFFIC_HDR30_2_ptr
000a4c00 g     F .text	00000054 sbrk
000810a4 g     F .text	0000010c c37dot94_task
000a5a00 g     F .text	0000013c OSEventNameSet
0009fbc4 g     F .text	000001fc _fflush_r
000b6514 g     O .rwdata	00000002 TRAFFIC_GEN_EMIXSEQ03_ptr
000b6710 g     O .rwdata	00000002 TRAFFIC_MSK22_0_ptr
000b6558 g     O .rwdata	00000002 TRAFFIC_HDR_DEF_ptr
000b6500 g     O .rwdata	00000002 TRAFFIC_GEN_EMIXSEQ31_ptr
000a3424 g     F .text	000000b4 _calloc_r
000b69f0 g     O .bss	00000001 OSRdyGrp
000b6622 g     O .rwdata	00000002 TRAFFIC_HDR25_3_ptr
000b6506 g     O .rwdata	00000002 TRAFFIC_GEN_EMIXSEQ22_ptr
00089480 g     F .text	00000028 SaveBytesLong
000b678c g     O .rwdata	00000008 alt_flash_dev_list
00092214 g     F .text	00000054 SETMON_TOTALNUMPKTS
000b6825 g     O .bss	00000001 SEND_SFPB_DATA
000b6888 g     O .bss	00000004 MAC10G_1B
00080280 g     F .text	00000020 alt_2_wireStop_B
00092360 g     F .text	0000007c SETMON_MAC_DEST_ADDR
00086a50 g     F .text	00000020 fiber_power_down
000b6820 g       *ABS*	00000000 __bss_start
000b65f2 g     O .rwdata	00000002 TRAFFIC_HDR19_3_ptr
000bc0d0 g     O .bss	0000157e RxBuffer
000b6546 g     O .rwdata	00000002 Y1564_MAX_AVAIL_3_ptr
000a170c g     F .text	00000098 memset
000957d8 g     F .text	00000088 getOctetsTransmittedOK_64
000b669a g     O .rwdata	00000002 TRAFFIC_MSK8_3_ptr
000b6516 g     O .rwdata	00000002 TRAFFIC_GEN_EMIXSEQ02_ptr
000b6714 g     O .rwdata	00000002 TRAFFIC_MSK23_2_ptr
000b6568 g     O .rwdata	00000002 TRAFFIC_HDR1_0_ptr
0008e670 g     F .text	000000dc main
000929ac g     F .text	00000014 SETGEN_STOP
000b6490 g     O .rwdata	00000002 TRAFFIC_GEN_PKTPERCENT01_ptr
000b69a4 g     O .bss	00000004 alt_envp
000b689e g     O .bss	00000001 loopdown_prev
000b698c g     O .bss	00000004 __malloc_max_total_mem
0008102c g     F .text	00000018 issue_UI_command
000b6445 g     O .rwdata	00000001 PHYA_FIBER_ENABLE_AN
000aa210 g     F .text	00000010 altera_avalon_jtag_uart_write_fd
000b65cc g     O .rwdata	00000002 TRAFFIC_HDR14_2_ptr
000b6544 g     O .rwdata	00000002 Y1564_MAX_FRAME_LOSS_0_ptr
000a3390 g     F .text	0000001c __swbuf
00091b60 g     F .text	00000520 SET_GEN_EMIX_BY_STREAM
000b643c g     O .rwdata	00000004 MACB_COMMAND_CONFIG
000b682d g     O .bss	00000001 SEND_MS_PACKET
000b4322 g     O .rodata	00000100 OSUnMapTbl
000920e0 g     F .text	0000001c CLR_MON_MASK_BY_STREAM
000b67e6 g     O .rwdata	00000002 OSSemEn
000b65fe g     O .rwdata	00000002 TRAFFIC_HDR20_1_ptr
000b6858 g     O .bss	00000002 LOSCNT
000a7058 g     F .text	00000220 OSFlagPost
000b663c g     O .rwdata	00000002 TRAFFIC_HDR28_2_ptr
000a3058 g     F .text	00000008 __sclose
000ca000 g       *ABS*	00000000 __alt_heap_limit
000b66f8 g     O .rwdata	00000002 TRAFFIC_MSK19_0_ptr
000b65dc g     O .rwdata	00000002 TRAFFIC_HDR16_2_ptr
000b65ec g     O .rwdata	00000002 TRAFFIC_HDR18_2_ptr
0008570c g     F .text	00000014 wait_for_tseMacReset
000a3658 g     F .text	00000014 fclose
000894fc g     F .text	00000028 read_traffic_reg
000a51b4 g     F .text	00000084 OS_EventTaskWait
000b647a g     O .rwdata	00000002 TRAFFIC_MON_STREAM_CNTL1_ptr
0009b4fc g     F .text	00000074 __truncdfsf2
000a5578 g     F .text	00000094 OS_TaskStatStkChk
000a9204 g     F .text	000000b8 OSTaskDelReq
0009e610 g     F .text	000015b4 _dtoa_r
000a0d68 g     F .text	00000740 _malloc_r
000b66bc g     O .rwdata	00000002 TRAFFIC_MSK12_2_ptr
000b659a g     O .rwdata	00000002 TRAFFIC_HDR8_3_ptr
000b6726 g     O .rwdata	00000002 TRAFFIC_MSK25_1_ptr
000b6616 g     O .rwdata	00000002 TRAFFIC_HDR23_1_ptr
000b6788 g     O .rwdata	00000004 alt_errno
000b667a g     O .rwdata	00000002 TRAFFIC_MSK4_3_ptr
000a56a8 g     F .text	00000054 OSStart
000b65fa g     O .rwdata	00000002 TRAFFIC_HDR20_3_ptr
000a4fc8 g     F .text	00000028 __env_unlock
000b659c g     O .rwdata	00000002 TRAFFIC_HDR8_2_ptr
000a0a58 g     F .text	000000b8 _fwalk
000a9558 g     F .text	00000118 OSTaskResume
000a72e0 g     F .text	00000064 OSMemQuery
000b67f8 g     O .rwdata	00000002 OSTaskStatEn
000bd650 g     O .bss	00002000 link_task_stk
00092ac8 g     F .text	00000064 SETGEN_TRAFFIC_GENMON_RNDSEED_BY_STREAM
000b66b6 g     O .rwdata	00000002 TRAFFIC_MSK11_1_ptr
000b68a3 g     O .bss	00000001 LOOPBACK_EVENT
000b67d2 g     O .rwdata	00000002 OSMemMax
000a7f7c g     F .text	000000e0 OSQPostFront
000b66ba g     O .rwdata	00000002 TRAFFIC_MSK12_3_ptr
0008ff54 g     F .text	000003e0 handle_one_sec_alarm
000a2798 g     F .text	00000104 putc
0009b780 g     F .text	00000060 __divsi3
000b69f1 g     O .bss	00000003 OSRdyTbl
000b67ac g     O .rwdata	00000002 OSDebugEn
000b3fe4 g     O .rodata	00000014 __thenan_df
000b6632 g     O .rwdata	00000002 TRAFFIC_HDR27_3_ptr
000b6702 g     O .rwdata	00000002 TRAFFIC_MSK21_3_ptr
000b6680 g     O .rwdata	00000002 TRAFFIC_MSK4_0_ptr
00080cc8 g     F .text	00000034 clear_C3794_counters
000a00b4 g     F .text	0000012c _malloc_trim_r
0009a274 g     F .text	000001c8 __mulsf3
000b67c4 g     O .rwdata	00000002 OSFlagNodeSize
000b653a g     O .rwdata	00000002 Y1564_MAX_FDV_1_ptr
000b66b0 g     O .rwdata	00000002 TRAFFIC_MSK10_0_ptr
000b6930 g     O .bss	00000004 tot_packets_act_transmit1
000b680c g     O .rwdata	00000002 OSTmrCfgMax
000a9e48 g     F .text	000001d0 alt_epcs_flash_write
000a31a4 g     F .text	000000bc strcmp
000a7868 g     F .text	00000108 OSQCreate
000b650c g     O .rwdata	00000002 TRAFFIC_GEN_EMIXSEQ13_ptr
000b65c2 g     O .rwdata	00000002 TRAFFIC_HDR13_3_ptr
000a92bc g     F .text	0000014c OSTaskNameGet
000a805c g     F .text	00000180 OSQPostOpt
000a60dc g     F .text	00000114 OSTimeTick
000b67f4 g     O .rwdata	00000002 OSTaskMax
000a8294 g     F .text	000000a0 OSSemCreate
000bf650 g     O .bss	0000157e TxBuffer
000b6818 g     O .rwdata	00000002 OSTmrWheelSize
000b6934 g     O .bss	00000004 tot_traffic_mon_delay_max
000b6938 g     O .bss	00000004 source_tse_addr1
00090334 g     F .text	0000012c clearTotalResults
00092620 g     F .text	000000a4 SET_GENMON_MAC_ADDR_BY_STREAM
000b6604 g     O .rwdata	00000002 TRAFFIC_HDR21_2_ptr
00095548 g     F .text	00000180 run_packet_test
000c33dc g     O .bss	00000018 one_sec_alarm
000b6642 g     O .rwdata	00000002 TRAFFIC_HDR29_3_ptr
000a4454 g     F .text	00000088 __nedf2
00099770 g     F .text	000000bc __fixunsdfdi
000b67ee g     O .rwdata	00000002 OSTaskDelEn
000b655a g     O .rwdata	00000002 TRAFFIC_HDR0_3_ptr
000809c8 g     F .text	00000158 wait_for_rcv_clock_locked
000b673a g     O .rwdata	00000002 TRAFFIC_MSK28_3_ptr
000b64f6 g     O .rwdata	00000002 TRAFFIC_GEN_PKT_EMIXUSERSIZE2_ptr
000b68ca g     O .bss	00000001 vlanTags
000a8860 g     F .text	00000074 OSSemQuery
000a7970 g     F .text	000001ec OSQDel
000a7d78 g     F .text	00000128 OSQPendAbort
000a9bf4 g     F .text	00000020 alt_irq_init
000928a8 g     F .text	00000088 DEBUG_MON_STAT_BY_STREAM
000b6716 g     O .rwdata	00000002 TRAFFIC_MSK23_1_ptr
000a4bdc g     F .text	00000024 alt_release_fd
000b6442 g     O .rwdata	00000001 PHYA_ETH_SPEED
00086a30 g     F .text	00000020 copper_power_down
000b665a g     O .rwdata	00000002 TRAFFIC_MSK0_3_ptr
000b3ff8 g     O .rodata	00000100 __clz_tab
000b6684 g     O .rwdata	00000002 TRAFFIC_MSK5_2_ptr
00095530 g     F .text	00000018 collect_10G_MAC_test_stats
0008942c g     F .text	00000034 BytesToLong
000b6980 g     O .bss	00000004 _PathLocale
000b6582 g     O .rwdata	00000002 TRAFFIC_HDR5_3_ptr
0008d10c g     F .text	000000a0 link_task
000b6656 g     O .rwdata	00000002 TRAFFIC_HDR31_1_ptr
000b641c g     O .rwdata	00000004 LOF_WATCHDOG_LIMIT
000b6686 g     O .rwdata	00000002 TRAFFIC_MSK5_1_ptr
0009a4b4 g     F .text	00000078 __gesf2
000a33ac g     F .text	00000078 _write_r
000c0bd0 g     O .bss	00002000 main_task_stk
000b657a g     O .rwdata	00000002 TRAFFIC_HDR4_3_ptr
000b65f8 g     O .rwdata	00000002 TRAFFIC_HDR19_0_ptr
000b6548 g     O .rwdata	00000002 Y1564_MAX_AVAIL_2_ptr
000b6832 g     O .bss	00000002 buff_ptr
0008878c g     F .text	00000098 config_multistream
000b6530 g     O .rwdata	00000002 Y1564_MAX_FTD_2_ptr
000a5fd8 g     F .text	00000048 OSSchedLock
000a0bb8 g     F .text	0000001c setlocale
000b675a g     O .rwdata	00000002 ConfigChecksum2
000b6610 g     O .rwdata	00000002 TRAFFIC_HDR22_0_ptr
00092a18 g     F .text	000000b0 SET_NUMPKTS_BY_STREAM
000b64e4 g     O .rwdata	00000008 DEF_GEN_EMIXUSER
000804d0 g     F .text	00000024 alt_2_wireStart_B
0009216c g     F .text	0000003c SETMON_CLEAR_CNTS_AND_START
000b693c g     O .bss	00000001 EXTERNAL_PHY_BOOT_COMPLETE
000a6860 g     F .text	00000090 OSFlagCreate
000b6848 g     O .bss	00000004 BERT
000b64fe g     O .rwdata	00000002 TRAFFIC_GEN_EMIXSEQ32_ptr
000b675c g     O .rwdata	00000004 _impure_ptr
000b66a4 g     O .rwdata	00000002 TRAFFIC_MSK9_2_ptr
000b699c g     O .bss	00000004 alt_argc
000808a0 g     F .text	00000034 verify_register
000b6536 g     O .rwdata	00000002 Y1564_MAX_FDV_3_ptr
000b67be g     O .rwdata	00000002 OSEventMultiEn
000b6588 g     O .rwdata	00000002 TRAFFIC_HDR5_0_ptr
000891ec g     F .text	00000240 erase_flash_block
000b651e g     O .rwdata	00000002 Y1564_CIR_2_ptr
000b6518 g     O .rwdata	00000002 TRAFFIC_GEN_EMIXSEQ01_ptr
000a68f0 g     F .text	000001b4 OSFlagDel
00086b60 g     F .text	00000014 set_10G_clock_source
000b69f4 g     O .bss	00000004 OSEventFreeList
00080020 g       .exceptions	00000000 alt_irq_entry
000b6478 g     O .rwdata	00000002 TRAFFIC_MON_STREAM_CNTL2_ptr
000b6829 g     O .bss	00000001 READ_SFP10A_DATA
000b6868 g     O .bss	00000004 MAC_0
000b66c0 g     O .rwdata	00000002 TRAFFIC_MSK12_0_ptr
000a1960 g     F .text	00000080 __ulp
000a2f78 g     F .text	00000040 __isinfd
000803c4 g     F .text	00000080 alt_2_wireTransmitByte_B
000a6cec g     F .text	00000340 OSFlagPend
000b680a g     O .rwdata	00000002 OSTmrEn
0009ff10 g     F .text	00000018 __fp_unlock_all
000967ac g     F .text	000000b0 read_sfp_info
000956c8 g     F .text	00000088 getEtherStatsOctets_64
000b6940 g     O .bss	00000004 tot_traffic_mon_delay_sum
0008b5a0 g     F .text	00000344 serial_ISR
0008705c g     F .text	0000007c read_10G_sfp_info
000b6774 g     O .rwdata	00000008 alt_fs_list
000b66d8 g     O .rwdata	00000002 TRAFFIC_MSK15_0_ptr
000a5520 g     F .text	00000034 OS_StrCopy
000932a0 g     F .text	000000cc SETGEN_TRAFFIC_GEN_PKTPERCENT
00086094 g     F .text	000000f4 configure_100FX_operation
000b6486 g     O .rwdata	00000002 TRAFFIC_RATE0_ptr
000b657e g     O .rwdata	00000002 TRAFFIC_HDR4_1_ptr
000b6878 g     O .bss	00000001 GIGE10
00087954 g     F .text	000007d4 read_10G_MAC_Stats
000b6704 g     O .rwdata	00000002 TRAFFIC_MSK21_2_ptr
000929f0 g     F .text	00000028 SETGEN_STREAM_NUMPKTS
000b67d4 g     O .rwdata	00000002 OSMemNameSize
00086f38 g     F .text	00000090 issue_10G_phy_I2C_stop_seq
000ab854 g     F .text	00000004 OSInitHookEnd
000b6839 g     O .bss	00000001 TIMER1_CONTROL_REG
000b6660 g     O .rwdata	00000002 TRAFFIC_MSK0_0_ptr
000b6722 g     O .rwdata	00000002 TRAFFIC_MSK25_3_ptr
000b66e0 g     O .rwdata	00000002 TRAFFIC_MSK16_0_ptr
000b6424 g     O .rwdata	00000001 GIGE_A
000b6800 g     O .rwdata	00000002 OSTCBPrioTblMax
000a0b24 g     F .text	00000010 localeconv
000ab28c g     F .text	00000088 epcs_read_buffer
000b6944 g     O .bss	00000004 destination_tse_addr1
000b67fc g     O .rwdata	00000002 OSTaskStatStkChkEn
00080cfc g     F .text	00000018 set_RCV_N_CHANNELS
000b68dc g     O .bss	00000001 ETH_PACKET
000b6706 g     O .rwdata	00000002 TRAFFIC_MSK21_1_ptr
000aa018 g     F .text	0000016c alt_epcs_flash_init
000b6758 g     O .rwdata	00000002 TRAFFIC_MSK31_0_ptr
000b652c g     O .rwdata	00000002 Y1564_CIR_STEPS_ptr
00090f28 g     F .text	000001dc DUMP_GEN_HDRS_BY_STREAM
000a487c g     F .text	00000004 alt_ic_isr_register
000b67d0 g     O .rwdata	00000002 OSMemEn
000b66cc g     O .rwdata	00000002 TRAFFIC_MSK14_2_ptr
000b66c2 g     O .rwdata	00000002 TRAFFIC_MSK13_3_ptr
000b67da g     O .rwdata	00000002 OSMutexEn
000c2bd0 g     O .bss	00000389 Special10GStatB
000b68cc g     O .bss	00000001 rndPayload
000b6820 g       *ABS*	00000000 _edata
00085cb0 g     F .text	00000088 configure_TxClkA_speed
000aaa54 g     F .text	00000010 altera_avalon_uart_read_fd
000c6718 g       *ABS*	00000000 _end
000a4708 g     F .text	0000004c alt_flash_open_dev
000b69f8 g     O .bss	00000001 OSIntNesting
000b658a g     O .rwdata	00000002 TRAFFIC_HDR6_3_ptr
000b683e g     O .bss	00000002 PPM_offset
000aa580 g     F .text	00000088 altera_avalon_jtag_uart_ioctl
000b6895 g     O .bss	00000001 SET_SWAP_10GA_TOGGLE
000a9acc g     F .text	00000104 OSTimeDlyResume
000b66fa g     O .rwdata	00000002 TRAFFIC_MSK20_3_ptr
000b64f4 g     O .rwdata	00000002 TRAFFIC_GEN_PKT_EMIXUSERSIZE3_ptr
000b68db g     O .bss	00000001 RCVING_MS_PKT
000a6bc0 g     F .text	0000012c OSFlagNameSet
000831c8 g     F .text	000024d0 config_hardware
00081594 g     F .text	000000f0 run_C3794_BERT_test3
000b6425 g     O .rwdata	00000001 EMON_TIMEOUT
000b663e g     O .rwdata	00000002 TRAFFIC_HDR28_1_ptr
00090648 g     F .text	000000fc StartTest
000a9670 g     F .text	0000011c OSTaskStkChk
000a483c g     F .text	00000040 alt_ic_irq_disable
000b65ee g     O .rwdata	00000002 TRAFFIC_HDR18_1_ptr
000b65da g     O .rwdata	00000002 TRAFFIC_HDR16_3_ptr
000b67d6 g     O .rwdata	00000002 OSMemSize
0008acf4 g     F .text	000006d8 init_gige
000b670c g     O .rwdata	00000002 TRAFFIC_MSK22_2_ptr
000a30c8 g     F .text	0000007c __swrite
000b6948 g     O .bss	00000004 tot_cycles_used
000b6594 g     O .rwdata	00000002 TRAFFIC_HDR7_2_ptr
000b64b6 g     O .rwdata	00000002 TRAFFIC_GEN_CONFIG01_ptr
000b676c g     O .rwdata	00000004 __malloc_trim_threshold
000b66d6 g     O .rwdata	00000002 TRAFFIC_MSK15_1_ptr
000ab764 g     F .text	00000008 altera_nios2_qsys_irq_init
000b69fc g     O .bss	00000004 OSTCBCur
000abce0 g     F .text	00000038 exit
000b6718 g     O .rwdata	00000002 TRAFFIC_MSK23_0_ptr
00087020 g     F .text	0000003c set_10G_MAC_self_loopback
000b68ac g     O .bss	00000004 tot_locycles
000b67d8 g     O .rwdata	00000002 OSMemTblSize
000a0990 g     F .text	000000c8 _fwalk_reent
000b694c g     O .bss	00000008 tot_rcvd_bytes
000b64dc g     O .rwdata	00000008 DEF_GEN_EMIXSEQ3
0009a614 g     F .text	000000c0 __floatunsisf
000a1f5c g     F .text	0000018c __mdiff
000b6954 g     O .bss	00000004 tot_traffic_mon_delay_min
000a46f4 g     F .text	00000014 alt_flash_close_dev
000b65e2 g     O .rwdata	00000002 TRAFFIC_HDR17_3_ptr
000b665e g     O .rwdata	00000002 TRAFFIC_MSK0_1_ptr
000b682c g     O .bss	00000001 SFP_10G_PRESENT
0009b7e0 g     F .text	00000060 __modsi3
0008e008 g     F .text	00000668 SEND_LOOPBACK_PACKET
000b6564 g     O .rwdata	00000002 TRAFFIC_HDR1_2_ptr
000b6460 g     O .rwdata	00000004 traffic_gen_config3
000801cc g     F .text	00000004 alt_2_wireInit_B
000b68d0 g     O .bss	00000008 burst_packets
000ca000 g       *ABS*	00000000 __alt_data_end
000b6958 g     O .bss	00000008 tot_bad_pkts_rcvd
00080020 g     F .exceptions	00000000 alt_exception
0009fe50 g     F .text	00000004 __sfp_lock_release
000b6960 g     O .bss	00000004 tot_rx_broadcast_cnt
000b6964 g     O .bss	00000004 source_tse_addr0
000a56fc g     F .text	000001dc OSInit
000b6428 g     O .rwdata	00000002 PIO3_Content
000b685c g     O .bss	00000002 YELCNT
00081450 g     F .text	00000024 set_C3794_BER
000a8904 g     F .text	00000104 OSTaskQuery
000b686c g     O .bss	00000004 MAC_1
000b65c4 g     O .rwdata	00000002 TRAFFIC_HDR13_2_ptr
000a76b8 g     F .text	00000050 OS_QInit
000a5554 g     F .text	00000024 OS_StrLen
00096d28 g     F .text	00000098 sfp_transmit_laser
000a7568 g     F .text	000000f8 OSMemNameSet
000b6836 g     O .bss	00000002 RxTIMEOUT
000c2f59 g     O .bss	00000389 LoopbackStat10G
00092080 g     F .text	0000001c CLR_MON_HEADER_BY_STREAM
000b67f2 g     O .rwdata	00000002 OSTaskProfileEn
000b6756 g     O .rwdata	00000002 TRAFFIC_MSK31_1_ptr
000b6a00 g     O .bss	00000004 OSTime
000c32e2 g     O .bss	000000fa FlashParameters
00080444 g     F .text	0000008c alt_2_wireSendByte_B
000b64b2 g     O .rwdata	00000002 TRAFFIC_GEN_CONFIG03_ptr
000aaa64 g     F .text	00000028 altera_avalon_uart_close
0009965c g     F .text	00000070 __fixunssfsi
000b64fc g     O .rwdata	00000002 TRAFFIC_GEN_EMIXSEQ33_ptr
0009baf8 g     F .text	000000a8 __fpcmp_parts_f
000b6443 g     O .rwdata	00000001 PHYB_ETH_SPEED
000b649c g     O .rwdata	00000002 TRAFFIC_GEN_CONFIG32_ptr
000c4e74 g     O .bss	00000800 OSTaskIdleStk
00092b2c g     F .text	00000774 SET_GEN_MON_TEST_BY_STREAM
000b66de g     O .rwdata	00000002 TRAFFIC_MSK16_1_ptr
000abf40 g     F .text	00000020 _exit
000a2fb8 g     F .text	00000030 __isnand
000b6508 g     O .rwdata	00000002 TRAFFIC_GEN_EMIXSEQ21_ptr
000b64b4 g     O .rwdata	00000002 TRAFFIC_GEN_CONFIG02_ptr
000b6502 g     O .rwdata	00000002 TRAFFIC_GEN_EMIXSEQ30_ptr
000a6aa4 g     F .text	0000011c OSFlagNameGet
000a4564 g     F .text	00000094 alt_alarm_start
000b6556 g     O .rwdata	00000002 TRAFFIC_GEN_SPARE_ptr
000b6498 g     O .rwdata	00000002 EGEN_PKT_TYPE_ptr_2
000b6646 g     O .rwdata	00000002 TRAFFIC_HDR29_1_ptr
000a9bd0 g     F .text	00000024 OSTimeGet
000b6696 g     O .rwdata	00000002 TRAFFIC_MSK7_1_ptr
000b665c g     O .rwdata	00000002 TRAFFIC_MSK0_2_ptr
000b6612 g     O .rwdata	00000002 TRAFFIC_HDR23_3_ptr
000b6650 g     O .rwdata	00000002 TRAFFIC_HDR30_0_ptr
000b66ae g     O .rwdata	00000002 TRAFFIC_MSK10_1_ptr
000b666e g     O .rwdata	00000002 TRAFFIC_MSK2_1_ptr
000a0bd4 g     F .text	00000194 __smakebuf_r
000b65d4 g     O .rwdata	00000002 TRAFFIC_HDR15_2_ptr
000b6744 g     O .rwdata	00000002 TRAFFIC_MSK29_2_ptr
00086278 g     F .text	00000034 configure_phy_rx_aligned_timing
000921a8 g     F .text	0000003c SETMON_START
00096e30 g     F .text	0000006c update_link_actv_leds
0009c230 g     F .text	00000074 strlen
000ab0f0 g     F .text	00000038 epcs_write_enable
000b6524 g     O .rwdata	00000002 Y1564_EIR_3_ptr
000b65b2 g     O .rwdata	00000002 TRAFFIC_HDR11_3_ptr
000ab844 g     F .text	00000004 OSTaskSwHook
000ab5e4 g     F .text	00000180 open
000856c4 g     F .text	0000002c set_TxClkA_speed
000c5674 g     O .bss	00000b40 OSEventTbl
000b6644 g     O .rwdata	00000002 TRAFFIC_HDR29_2_ptr
0009b26c g     F .text	00000088 __gedf2
000b6418 g     O .rwdata	00000004 alt_2_wireDelay
00081240 g     F .text	000000fc process_bert_sync
000c61b4 g     O .bss	00000510 OSTCBTbl
00081044 g     F .text	00000060 init_debug_test
000a81dc g     F .text	0000006c OSSemSet
000b6968 g     O .bss	00000004 destination_10g_addr1
000b66d0 g     O .rwdata	00000002 TRAFFIC_MSK14_0_ptr
000b6426 g     O .rwdata	00000001 Rx_PACKET_ID
000b64b8 g     O .rwdata	00000002 TRAFFIC_GEN_CONFIG00_ptr
00080db8 g     F .text	000000d0 write_ppm_offset
00080d8c g     F .text	0000000c set_internal_loopback
000b6454 g     O .rwdata	00000004 egen_line_load_rate
00081474 g     F .text	00000050 Invert_BERT_pattern
000b65f4 g     O .rwdata	00000002 TRAFFIC_HDR19_2_ptr
000b646c g     O .rwdata	00000001 loopbackStatPtr
000b668a g     O .rwdata	00000002 TRAFFIC_MSK6_3_ptr
000b65a4 g     O .rwdata	00000002 TRAFFIC_HDR9_2_ptr
000b674a g     O .rwdata	00000002 TRAFFIC_MSK30_3_ptr
0008f0b4 g     F .text	00000be4 main_task
000b6794 g     O .rwdata	00000004 alt_priority_mask
000b6652 g     O .rwdata	00000002 TRAFFIC_HDR31_3_ptr
000b6554 g     O .rwdata	00000002 SPARE_THRESHOLD_00
000a8334 g     F .text	000001a4 OSSemDel
000b6a04 g     O .bss	00000004 OSFlagFreeList
000b6476 g     O .rwdata	00000002 TRAFFIC_MON_STREAM_CNTL3_ptr
000a47fc g     F .text	00000040 alt_ic_irq_enable
000b67b8 g     O .rwdata	00000002 OSEventNameSize
00094d04 g     F .text	00000810 wait_for_packets
0009e298 g     F .text	00000024 __vfprintf_internal
000b6562 g     O .rwdata	00000002 TRAFFIC_HDR1_3_ptr
000b6a08 g     O .bss	00000001 OSStatRdy
000b674e g     O .rwdata	00000002 TRAFFIC_MSK30_1_ptr
000c66c4 g     O .bss	00000054 OSTCBPrioTbl
00096a7c g     F .text	0000019c read_sfp_power
000aad14 g     F .text	0000018c altera_avalon_uart_read
000a4ff0 g     F .text	00000090 __env_lock
000b67fe g     O .rwdata	00000002 OSTaskSwHookEn
000b6824 g     O .bss	00000001 SEND_SFPA_DATA
0009aae4 g     F .text	00000080 __subdf3
000b66e2 g     O .rwdata	00000002 TRAFFIC_MSK17_3_ptr
000b6828 g     O .bss	00000001 READ_SFPB_DATA
000b65a2 g     O .rwdata	00000002 TRAFFIC_HDR9_3_ptr
000a9d00 g     F .text	00000078 alt_epcs_flash_read
000b6448 g     O .rwdata	00000001 PHYB_COPPER_ENABLE_AN
000a183c g     F .text	000000c4 __lo0bits
00087328 g     F .text	0000002c SET_10G_MAC_RX_ADDR
000b66c8 g     O .rwdata	00000002 TRAFFIC_MSK13_0_ptr
000b679c g     O .rwdata	00000008 alt_alarm_list
000b67c6 g     O .rwdata	00000002 OSFlagWidth
000b66a0 g     O .rwdata	00000002 TRAFFIC_MSK8_0_ptr
0009655c g     F .text	000000d8 sfp_B_read_block_into_Array
000b6738 g     O .rwdata	00000002 TRAFFIC_MSK27_0_ptr
000b68da g     O .bss	00000001 ETH_PKT
000b644e g     O .rwdata	00000002 PHYB_CONFIG
000b66f2 g     O .rwdata	00000002 TRAFFIC_MSK19_3_ptr
000b66ca g     O .rwdata	00000002 TRAFFIC_MSK14_3_ptr
000831c4 g     F .text	00000004 config_frame_structure
000b696c g     O .bss	00000004 pio_edge_capture
00086188 g     F .text	00000078 configure_tse1_to_phyb
000a45f8 g     F .text	000000f0 close
0009a210 g     F .text	00000064 __addsf3
000b669c g     O .rwdata	00000002 TRAFFIC_MSK8_2_ptr
000b671a g     O .rwdata	00000002 TRAFFIC_MSK24_3_ptr
000b69b4 g     O .bss	00000004 alt_envsem
000b6a0c g     O .bss	00000004 OSIdleCtrRun
000b642c g     O .rwdata	00000004 gen_number_seconds
000a51a8 g     F .text	00000008 OSVersion
000b68b4 g     O .bss	00000008 tot_packets_rcvd
000b6672 g     O .rwdata	00000002 TRAFFIC_MSK3_3_ptr
000b6810 g     O .rwdata	00000002 OSTmrCfgWheelSize
000a88d4 g     F .text	00000030 OS_TaskStkClr
0009bbcc g     F .text	00000314 __pack_d
000b67ea g     O .rwdata	00000002 OSTaskCreateEn
000975f8 g     F .text	00001f58 update_headers
000b64fa g     O .rwdata	00000002 TRAFFIC_GEN_PKT_EMIXUSERSIZE0_ptr
000a5484 g     F .text	0000001c OS_EventWaitListInit
0008db18 g     F .text	000004f0 SEND_HELLO_PACKET
000ab858 g     F .text	00000004 OSTaskIdleHook
000869e8 g     F .text	00000024 restart_fiber_auto_negotiation
00000000  w      *UND*	00000000 free
0009fe54 g     F .text	00000004 __sinit_lock_acquire
000ab1dc g     F .text	000000b0 epcs_write_buffer
000b66dc g     O .rwdata	00000002 TRAFFIC_MSK16_2_ptr
000a2458 g     F .text	00000100 __multadd
000a17a4 g     F .text	00000028 _Bfree
000a978c g     F .text	00000154 OSTaskSuspend
000b6698 g     O .rwdata	00000002 TRAFFIC_MSK7_0_ptr
0008a9c0 g     F .text	000000e0 convertHexToString
000b66e6 g     O .rwdata	00000002 TRAFFIC_MSK17_1_ptr
000b6842 g     O .bss	00000001 ERRORS_LED
00085eec g     F .text	0000018c configure_phya_fiber
000a61f0 g     F .text	00000034 OS_TaskIdle
000b6816 g     O .rwdata	00000002 OSTmrTblSize
000a7708 g     F .text	000000b0 OSQQuery
000b65ce g     O .rwdata	00000002 TRAFFIC_HDR14_1_ptr



Disassembly of section .exceptions:

00080020 <alt_exception>:
         * Process an exception.  For all exceptions we must preserve all
         * caller saved registers on the stack (See the Nios2 ABI
         * documentation for details).
         */

        addi  sp, sp, -76
   80020:	deffed04 	addi	sp,sp,-76

#endif

#endif

        stw   ra,  0(sp)
   80024:	dfc00015 	stw	ra,0(sp)
        /*
         * Leave a gap in the stack frame at 4(sp) for the muldiv handler to
         * store zero into.
         */

        stw   r1,   8(sp)
   80028:	d8400215 	stw	at,8(sp)
        stw   r2,  12(sp)
   8002c:	d8800315 	stw	r2,12(sp)
        stw   r3,  16(sp)
   80030:	d8c00415 	stw	r3,16(sp)
        stw   r4,  20(sp)
   80034:	d9000515 	stw	r4,20(sp)
        stw   r5,  24(sp)
   80038:	d9400615 	stw	r5,24(sp)
        stw   r6,  28(sp)
   8003c:	d9800715 	stw	r6,28(sp)
        stw   r7,  32(sp)
   80040:	d9c00815 	stw	r7,32(sp)

        rdctl r5, estatus
   80044:	000b307a 	rdctl	r5,estatus

        stw   r8,  36(sp)
   80048:	da000915 	stw	r8,36(sp)
        stw   r9,  40(sp)
   8004c:	da400a15 	stw	r9,40(sp)
        stw   r10, 44(sp)
   80050:	da800b15 	stw	r10,44(sp)
        stw   r11, 48(sp)
   80054:	dac00c15 	stw	r11,48(sp)
        stw   r12, 52(sp)
   80058:	db000d15 	stw	r12,52(sp)
        stw   r13, 56(sp)
   8005c:	db400e15 	stw	r13,56(sp)
        stw   r14, 60(sp)
   80060:	db800f15 	stw	r14,60(sp)
        stw   r15, 64(sp)
   80064:	dbc01015 	stw	r15,64(sp)
        /*
         * ea-4 contains the address of the instruction being executed
         * when the exception occured. For interrupt exceptions, we will
         * will be re-issue the isntruction. Store it in 72(sp)
         */
        stw   r5,  68(sp)  /* estatus */
   80068:	d9401115 	stw	r5,68(sp)
        addi  r15, ea, -4  /* instruction that caused exception */
   8006c:	ebffff04 	addi	r15,ea,-4
        stw   r15,  72(sp)
   80070:	dbc01215 	stw	r15,72(sp)
#else
        /*
         * Test to see if the exception was a software exception or caused 
         * by an external interrupt, and vector accordingly.
         */
        rdctl r4, ipending
   80074:	0009313a 	rdctl	r4,ipending
        andi  r2, r5, 1
   80078:	2880004c 	andi	r2,r5,1
        beq   r2, zero, .Lnot_irq
   8007c:	10000326 	beq	r2,zero,8008c <alt_exception+0x6c>
        beq   r4, zero, .Lnot_irq
   80080:	20000226 	beq	r4,zero,8008c <alt_exception+0x6c>
        /*
         * Now that all necessary registers have been preserved, call 
         * alt_irq_handler() to process the interrupts.
         */

        call alt_irq_handler
   80084:	00800ec0 	call	800ec <alt_irq_handler>

        .section .exceptions.irqreturn, "xa"

        br    .Lexception_exit
   80088:	00000306 	br	80098 <alt_exception+0x78>
         * upon completion, so we write ea (address of instruction *after*
         * the one where the exception occured) into 72(sp). The actual
         * instruction that caused the exception is written in r2, which these
         * handlers will utilize.
         */
        stw   ea,  72(sp)  /* Don't re-issue */
   8008c:	df401215 	stw	ea,72(sp)
        ldw   r2, -4(ea)   /* Instruction that caused exception */
   80090:	e8bfff17 	ldw	r2,-4(ea)
#ifdef NIOS2_HAS_DEBUG_STUB
       /*
        *  Either tell the user now (if there is a debugger attached) or go into
        *  the debug monitor which will loop until a debugger is attached.
        */
        break
   80094:	003da03a 	break	0
        /* 
         * Restore the saved registers, so that all general purpose registers 
         * have been restored to their state at the time the interrupt occured.
         */

        ldw   r5,  68(sp)
   80098:	d9401117 	ldw	r5,68(sp)
        ldw   ea,  72(sp)  /* This becomes the PC once eret is executed */
   8009c:	df401217 	ldw	ea,72(sp)
        ldw   ra,   0(sp)
   800a0:	dfc00017 	ldw	ra,0(sp)

        wrctl estatus, r5
   800a4:	2801707a 	wrctl	estatus,r5

        ldw   r1,   8(sp)
   800a8:	d8400217 	ldw	at,8(sp)
        ldw   r2,  12(sp)
   800ac:	d8800317 	ldw	r2,12(sp)
        ldw   r3,  16(sp)
   800b0:	d8c00417 	ldw	r3,16(sp)
        ldw   r4,  20(sp)
   800b4:	d9000517 	ldw	r4,20(sp)
        ldw   r5,  24(sp)
   800b8:	d9400617 	ldw	r5,24(sp)
        ldw   r6,  28(sp)
   800bc:	d9800717 	ldw	r6,28(sp)
        ldw   r7,  32(sp)
   800c0:	d9c00817 	ldw	r7,32(sp)
#ifdef ALT_STACK_CHECK
        ldw   et, %gprel(alt_exception_old_stack_limit)(gp)
#endif
#endif

        ldw   r8,  36(sp)
   800c4:	da000917 	ldw	r8,36(sp)
        ldw   r9,  40(sp)
   800c8:	da400a17 	ldw	r9,40(sp)
        ldw   r10, 44(sp)
   800cc:	da800b17 	ldw	r10,44(sp)
        ldw   r11, 48(sp)
   800d0:	dac00c17 	ldw	r11,48(sp)
        ldw   r12, 52(sp)
   800d4:	db000d17 	ldw	r12,52(sp)
        ldw   r13, 56(sp)
   800d8:	db400e17 	ldw	r13,56(sp)
        ldw   r14, 60(sp)
   800dc:	db800f17 	ldw	r14,60(sp)
        ldw   r15, 64(sp)
   800e0:	dbc01017 	ldw	r15,64(sp)
#endif

        ldw   sp,  76(sp)

#else
        addi  sp, sp, 76
   800e4:	dec01304 	addi	sp,sp,76

        /*
         * Return to the interrupted instruction.
         */

        eret
   800e8:	ef80083a 	eret

000800ec <alt_irq_handler>:
   800ec:	defffe04 	addi	sp,sp,-8
   800f0:	dfc00115 	stw	ra,4(sp)
   800f4:	dc000015 	stw	r16,0(sp)
   800f8:	00a5ec80 	call	a5ec8 <OSIntEnter>
   800fc:	000b313a 	rdctl	r5,ipending
   80100:	2880004c 	andi	r2,r5,1
   80104:	1005003a 	cmpeq	r2,r2,zero
   80108:	04000334 	movhi	r16,12
   8010c:	840cfd04 	addi	r16,r16,13300
   80110:	10001126 	beq	r2,zero,80158 <alt_irq_handler+0x6c>
   80114:	00c00044 	movi	r3,1
   80118:	0009883a 	mov	r4,zero
   8011c:	18c7883a 	add	r3,r3,r3
   80120:	28c4703a 	and	r2,r5,r3
   80124:	21000044 	addi	r4,r4,1
   80128:	103ffc26 	beq	r2,zero,8011c <alt_irq_handler+0x30>
   8012c:	200490fa 	slli	r2,r4,3
   80130:	1405883a 	add	r2,r2,r16
   80134:	11000117 	ldw	r4,4(r2)
   80138:	10c00017 	ldw	r3,0(r2)
   8013c:	183ee83a 	callr	r3
   80140:	0005313a 	rdctl	r2,ipending
   80144:	10000c26 	beq	r2,zero,80178 <alt_irq_handler+0x8c>
   80148:	100b883a 	mov	r5,r2
   8014c:	2880004c 	andi	r2,r5,1
   80150:	1005003a 	cmpeq	r2,r2,zero
   80154:	103fef1e 	bne	r2,zero,80114 <alt_irq_handler+0x28>
   80158:	0009883a 	mov	r4,zero
   8015c:	200490fa 	slli	r2,r4,3
   80160:	1405883a 	add	r2,r2,r16
   80164:	11000117 	ldw	r4,4(r2)
   80168:	10c00017 	ldw	r3,0(r2)
   8016c:	183ee83a 	callr	r3
   80170:	0005313a 	rdctl	r2,ipending
   80174:	103ff41e 	bne	r2,zero,80148 <alt_irq_handler+0x5c>
   80178:	dfc00117 	ldw	ra,4(sp)
   8017c:	dc000017 	ldw	r16,0(sp)
   80180:	dec00204 	addi	sp,sp,8
   80184:	00a5f081 	jmpi	a5f08 <OSIntExit>

Disassembly of section .text:

00080188 <_start>:
#if (NIOS2_NUM_OF_SHADOW_REG_SETS == 0)    
    /*
     * Now that the caches are initialized, set up the stack pointer.
     * The value provided by the linker is assumed to be correctly aligned.
     */
    movhi sp, %hi(__alt_stack_pointer)
   80188:	06c00334 	movhi	sp,12
    ori sp, sp, %lo(__alt_stack_pointer)
   8018c:	dee80014 	ori	sp,sp,40960

    /* Set up the global pointer. */
    movhi gp, %hi(_gp)
   80190:	068002f4 	movhi	gp,11
    ori gp, gp, %lo(_gp)
   80194:	d6b90614 	ori	gp,gp,58392
 */
#ifndef ALT_SIM_OPTIMIZE
    /* Log that the BSS is about to be cleared. */
    ALT_LOG_PUTS(alt_log_msg_bss)

    movhi r2, %hi(__bss_start)
   80198:	008002f4 	movhi	r2,11
    ori r2, r2, %lo(__bss_start)
   8019c:	109a0814 	ori	r2,r2,26656

    movhi r3, %hi(__bss_end)
   801a0:	00c00334 	movhi	r3,12
    ori r3, r3, %lo(__bss_end)
   801a4:	18d9c614 	ori	r3,r3,26392

    beq r2, r3, 1f
   801a8:	10c00326 	beq	r2,r3,801b8 <_start+0x30>

0:
    stw zero, (r2)
   801ac:	10000015 	stw	zero,0(r2)
    addi r2, r2, 4
   801b0:	10800104 	addi	r2,r2,4
    bltu r2, r3, 0b
   801b4:	10fffd36 	bltu	r2,r3,801ac <_start+0x24>

    /* Log that alt_main is about to be called. */
    ALT_LOG_PUTS(alt_log_msg_alt_main)

    /* Call the C entry point. It should never return. */
    call alt_main
   801b8:	00a4a280 	call	a4a28 <alt_main>

000801bc <alt_after_alt_main>:

    /* Wait in infinite loop in case alt_main does return. */
alt_after_alt_main:
    br alt_after_alt_main
   801bc:	003fff06 	br	801bc <alt_after_alt_main>

000801c0 <tri_state_sda>:
    IOWR_8DIRECT(I2C_CONTROLLER_0_BASE, SDA_DATA_REG, 0x2);         // data = 1
 }

static void tri_state_sda()
{
  IOWR_8DIRECT(I2C_CONTROLLER_0_BASE, SDA_DIR_REG, SDA_TRI_STATE);// output
   801c0:	0086c844 	movi	r2,6945
   801c4:	10000025 	stbio	zero,0(r2)
}
   801c8:	f800283a 	ret

000801cc <alt_2_wireInit_B>:
  tri_state_sda();

}
void alt_2_wireInit_B()
{
	tri_state_sda();
   801cc:	00801c01 	jmpi	801c0 <tri_state_sda>

000801d0 <alt_2_wireInit_A>:
    IOWR_ALTERA_AVALON_PIO_DIRECTION(bus->sda_pio, ALTERA_AVALON_PIO_DIRECTION_OUTPUT);
}
***/
void alt_2_wireInit_A()
{
  tri_state_sda();
   801d0:	00801c01 	jmpi	801c0 <tri_state_sda>

000801d4 <pullupSDA_B>:
	  IOWR_8DIRECT(I2C_CONTROLLER_0_BASE, SDA_DATA_REG, 0x0);         // data = 0

}
static void pullupSDA_B()
 {
	IOWR_8DIRECT(I2C_CONTROLLER_0_BASE, SDA_DIR_REG, SDA_B_ENABLE);// direction = out
   801d4:	00800084 	movi	r2,2
   801d8:	00c6c844 	movi	r3,6945
   801dc:	18800025 	stbio	r2,0(r3)
    IOWR_8DIRECT(I2C_CONTROLLER_0_BASE, SDA_DATA_REG, 0x2);         // data = 1
   801e0:	0106c804 	movi	r4,6944
   801e4:	20800025 	stbio	r2,0(r4)
 }
   801e8:	f800283a 	ret

000801ec <pulldownSDA_B>:

 }

static void pulldownSDA_B()
{
	  IOWR_8DIRECT(I2C_CONTROLLER_0_BASE, SDA_DIR_REG, SDA_B_ENABLE);// direction = out
   801ec:	00800084 	movi	r2,2
   801f0:	00c6c844 	movi	r3,6945
   801f4:	18800025 	stbio	r2,0(r3)
	  IOWR_8DIRECT(I2C_CONTROLLER_0_BASE, SDA_DATA_REG, 0x0);         // data = 0
   801f8:	0106c804 	movi	r4,6944
   801fc:	20000025 	stbio	zero,0(r4)

}
   80200:	f800283a 	ret

00080204 <pullupSDA_A>:
  IOWR_8DIRECT(I2C_CONTROLLER_0_BASE, SDA_DATA_REG, 0x0);         // data = 0

}
static void pullupSDA_A()
 {
	IOWR_8DIRECT(I2C_CONTROLLER_0_BASE, SDA_DIR_REG, SDA_A_ENABLE);// direction = out
   80204:	00800044 	movi	r2,1
   80208:	00c6c844 	movi	r3,6945
   8020c:	18800025 	stbio	r2,0(r3)
    IOWR_8DIRECT(I2C_CONTROLLER_0_BASE, SDA_DATA_REG, 0x1);           // data = 1
   80210:	0106c804 	movi	r4,6944
   80214:	20800025 	stbio	r2,0(r4)

 }
   80218:	f800283a 	ret

0008021c <pulldownSDA_A>:
}

static void pulldownSDA_A()
{

  IOWR_8DIRECT(I2C_CONTROLLER_0_BASE, SDA_DIR_REG, SDA_A_ENABLE);// direction = out
   8021c:	00800044 	movi	r2,1
   80220:	00c6c844 	movi	r3,6945
   80224:	18800025 	stbio	r2,0(r3)
  IOWR_8DIRECT(I2C_CONTROLLER_0_BASE, SDA_DATA_REG, 0x0);         // data = 0
   80228:	0106c804 	movi	r4,6944
   8022c:	20000025 	stbio	zero,0(r4)

}
   80230:	f800283a 	ret

00080234 <readSDA_B>:
	return(read_data &= 0x1);
}
static int readSDA_B()
{
    int read_data;
    read_data = IORD_8DIRECT(I2C_CONTROLLER_0_BASE, SDA_DATA_REG);
   80234:	00c6c804 	movi	r3,6944
   80238:	18800023 	ldbuio	r2,0(r3)
    read_data >>= 1;
   8023c:	1005d07a 	srai	r2,r2,1
	return(read_data &= 0x1);
}
   80240:	1080004c 	andi	r2,r2,1
   80244:	f800283a 	ret

00080248 <readSDA_A>:


static int readSDA_A()
{
    int read_data;
    read_data = IORD_8DIRECT(I2C_CONTROLLER_0_BASE, SDA_DATA_REG);
   80248:	00c6c804 	movi	r3,6944
   8024c:	18800023 	ldbuio	r2,0(r3)
	return(read_data &= 0x1);
}
   80250:	1080004c 	andi	r2,r2,1
   80254:	f800283a 	ret

00080258 <pullupSCL_B>:
}

static void pulldownSCL_A()	{PIO2_Content &= PORTA_SFP_A_SCL_MASKLOW; IOWR_ALTERA_AVALON_PIO_DATA(PIO_2_BASE, PIO2_Content); setupDelay(); }
static void pullupSCL_A()	{PIO2_Content |= PORTA_SFP_A_SCL_HIGH; IOWR_ALTERA_AVALON_PIO_DATA(PIO_2_BASE, PIO2_Content); setupDelay(); }
static void pulldownSCL_B()	{PIO2_Content &= PORTB_SFP_B_SCL_MASKLOW; IOWR_ALTERA_AVALON_PIO_DATA(PIO_2_BASE, PIO2_Content); setupDelay(); }
static void pullupSCL_B()	{PIO2_Content |= PORTB_SFP_B_SCL_HIGH; IOWR_ALTERA_AVALON_PIO_DATA(PIO_2_BASE, PIO2_Content); setupDelay(); }
   80258:	010002f4 	movhi	r4,11
   8025c:	211a1784 	addi	r4,r4,26718
   80260:	2080000b 	ldhu	r2,0(r4)
   80264:	00c6d004 	movi	r3,6976
   80268:	10800094 	ori	r2,r2,2
   8026c:	117fffcc 	andi	r5,r2,65535
   80270:	2080000d 	sth	r2,0(r4)
   80274:	19400035 	stwio	r5,0(r3)
		;
	   //usleep(1);							// sleep 1uS
}
***/
static inline void setupDelay() {
	usleep(10);  //udelay()
   80278:	01000284 	movi	r4,10
   8027c:	00a4d481 	jmpi	a4d48 <usleep>

00080280 <alt_2_wireStop_B>:
 	pullupSCL_A();
	pullupSDA_A();
	tri_state_sda();
}
void alt_2_wireStop_B()
{
   80280:	deffff04 	addi	sp,sp,-4
   80284:	dfc00015 	stw	ra,0(sp)
	pulldownSDA_B();
   80288:	00801ec0 	call	801ec <pulldownSDA_B>
 	pullupSCL_B();
   8028c:	00802580 	call	80258 <pullupSCL_B>
	pullupSDA_B();
   80290:	00801d40 	call	801d4 <pullupSDA_B>
	tri_state_sda();
}
   80294:	dfc00017 	ldw	ra,0(sp)
   80298:	dec00104 	addi	sp,sp,4
void alt_2_wireStop_B()
{
	pulldownSDA_B();
 	pullupSCL_B();
	pullupSDA_B();
	tri_state_sda();
   8029c:	00801c01 	jmpi	801c0 <tri_state_sda>

000802a0 <pulldownSCL_B>:
  IOWR_8DIRECT(I2C_CONTROLLER_0_BASE, SDA_DIR_REG, SDA_TRI_STATE);// output
}

static void pulldownSCL_A()	{PIO2_Content &= PORTA_SFP_A_SCL_MASKLOW; IOWR_ALTERA_AVALON_PIO_DATA(PIO_2_BASE, PIO2_Content); setupDelay(); }
static void pullupSCL_A()	{PIO2_Content |= PORTA_SFP_A_SCL_HIGH; IOWR_ALTERA_AVALON_PIO_DATA(PIO_2_BASE, PIO2_Content); setupDelay(); }
static void pulldownSCL_B()	{PIO2_Content &= PORTB_SFP_B_SCL_MASKLOW; IOWR_ALTERA_AVALON_PIO_DATA(PIO_2_BASE, PIO2_Content); setupDelay(); }
   802a0:	014002f4 	movhi	r5,11
   802a4:	295a1784 	addi	r5,r5,26718
   802a8:	2880000b 	ldhu	r2,0(r5)
   802ac:	00ffff44 	movi	r3,-3
   802b0:	10c4703a 	and	r2,r2,r3
   802b4:	113fffcc 	andi	r4,r2,65535
   802b8:	00c6d004 	movi	r3,6976
   802bc:	2880000d 	sth	r2,0(r5)
   802c0:	19000035 	stwio	r4,0(r3)
		;
	   //usleep(1);							// sleep 1uS
}
***/
static inline void setupDelay() {
	usleep(10);  //udelay()
   802c4:	01000284 	movi	r4,10
   802c8:	00a4d481 	jmpi	a4d48 <usleep>

000802cc <alt_2_wireReadByte_B>:
            return -1;
	}
    tri_state_sda();
	return val;
}
int alt_2_wireReadByte_B(int ackControl) {
   802cc:	defffb04 	addi	sp,sp,-20
   802d0:	dcc00315 	stw	r19,12(sp)
   802d4:	dc800215 	stw	r18,8(sp)
   802d8:	dc400115 	stw	r17,4(sp)
   802dc:	dc000015 	stw	r16,0(sp)
   802e0:	dfc00415 	stw	ra,16(sp)
   802e4:	2027883a 	mov	r19,r4
	int i, val = 0, ack;
    tri_state_sda();
   802e8:	040001c4 	movi	r16,7
   802ec:	00801c00 	call	801c0 <tri_state_sda>
   802f0:	0025883a 	mov	r18,zero
   802f4:	047fffc4 	movi	r17,-1
	for(i = 7; i > -1; i--) {
		pullupSCL_B();
   802f8:	00802580 	call	80258 <pullupSCL_B>
		val |= (readSDA_B() << i);
   802fc:	00802340 	call	80234 <readSDA_B>
   80300:	1404983a 	sll	r2,r2,r16
	return val;
}
int alt_2_wireReadByte_B(int ackControl) {
	int i, val = 0, ack;
    tri_state_sda();
	for(i = 7; i > -1; i--) {
   80304:	843fffc4 	addi	r16,r16,-1
		pullupSCL_B();
		val |= (readSDA_B() << i);
   80308:	90a4b03a 	or	r18,r18,r2
		pulldownSCL_B();
   8030c:	00802a00 	call	802a0 <pulldownSCL_B>
	return val;
}
int alt_2_wireReadByte_B(int ackControl) {
	int i, val = 0, ack;
    tri_state_sda();
	for(i = 7; i > -1; i--) {
   80310:	847ff91e 	bne	r16,r17,802f8 <alt_2_wireReadByte_B+0x2c>
		pullupSCL_B();
		val |= (readSDA_B() << i);
		pulldownSCL_B();
	}

	switch(ackControl) {
   80314:	00800044 	movi	r2,1
   80318:	043fffc4 	movi	r16,-1
   8031c:	98801b26 	beq	r19,r2,8038c <alt_2_wireReadByte_B+0xc0>
   80320:	00800084 	movi	r2,2
   80324:	98801f26 	beq	r19,r2,803a4 <alt_2_wireReadByte_B+0xd8>
   80328:	98000a26 	beq	r19,zero,80354 <alt_2_wireReadByte_B+0x88>
			pullupSCL_B();
			pulldownSCL_B();
			pulldownSDA_B();
			break;
		default:
			alt_2_wireStop_B();
   8032c:	8025883a 	mov	r18,r16
   80330:	00802800 	call	80280 <alt_2_wireStop_B>
            return -1;
	}
    tri_state_sda();
	return val;
}
   80334:	9005883a 	mov	r2,r18
   80338:	dfc00417 	ldw	ra,16(sp)
   8033c:	dcc00317 	ldw	r19,12(sp)
   80340:	dc800217 	ldw	r18,8(sp)
   80344:	dc400117 	ldw	r17,4(sp)
   80348:	dc000017 	ldw	r16,0(sp)
   8034c:	dec00504 	addi	sp,sp,20
   80350:	f800283a 	ret
		pulldownSCL_B();
	}

	switch(ackControl) {
		case EXPECT_ACK:
			pullupSCL_B();
   80354:	00802580 	call	80258 <pullupSCL_B>
			ack = readSDA_B();
   80358:	00802340 	call	80234 <readSDA_B>
   8035c:	1023883a 	mov	r17,r2
			pulldownSCL_B();
   80360:	00802a00 	call	802a0 <pulldownSCL_B>
			if(ack) return -1;
   80364:	8800151e 	bne	r17,zero,803bc <alt_2_wireReadByte_B+0xf0>
			break;
		default:
			alt_2_wireStop_B();
            return -1;
	}
    tri_state_sda();
   80368:	00801c00 	call	801c0 <tri_state_sda>
	return val;
}
   8036c:	9005883a 	mov	r2,r18
   80370:	dfc00417 	ldw	ra,16(sp)
   80374:	dcc00317 	ldw	r19,12(sp)
   80378:	dc800217 	ldw	r18,8(sp)
   8037c:	dc400117 	ldw	r17,4(sp)
   80380:	dc000017 	ldw	r16,0(sp)
   80384:	dec00504 	addi	sp,sp,20
   80388:	f800283a 	ret
			ack = readSDA_B();
			pulldownSCL_B();
			if(ack) return -1;
			break;
		case SEND_ACK:
			pulldownSDA_B();
   8038c:	00801ec0 	call	801ec <pulldownSDA_B>
			pullupSCL_B();
   80390:	00802580 	call	80258 <pullupSCL_B>
			pulldownSCL_B();
   80394:	00802a00 	call	802a0 <pulldownSCL_B>
			pullupSDA_B();
   80398:	00801d40 	call	801d4 <pullupSDA_B>
			break;
		default:
			alt_2_wireStop_B();
            return -1;
	}
    tri_state_sda();
   8039c:	00801c00 	call	801c0 <tri_state_sda>
   803a0:	003ff206 	br	8036c <alt_2_wireReadByte_B+0xa0>
			pullupSCL_B();
			pulldownSCL_B();
			pullupSDA_B();
			break;
		case SEND_NACK:
			pullupSDA_B();
   803a4:	00801d40 	call	801d4 <pullupSDA_B>
			pullupSCL_B();
   803a8:	00802580 	call	80258 <pullupSCL_B>
			pulldownSCL_B();
   803ac:	00802a00 	call	802a0 <pulldownSCL_B>
			pulldownSDA_B();
   803b0:	00801ec0 	call	801ec <pulldownSDA_B>
			break;
		default:
			alt_2_wireStop_B();
            return -1;
	}
    tri_state_sda();
   803b4:	00801c00 	call	801c0 <tri_state_sda>
   803b8:	003fec06 	br	8036c <alt_2_wireReadByte_B+0xa0>
	switch(ackControl) {
		case EXPECT_ACK:
			pullupSCL_B();
			ack = readSDA_B();
			pulldownSCL_B();
			if(ack) return -1;
   803bc:	8025883a 	mov	r18,r16
   803c0:	003fdc06 	br	80334 <alt_2_wireReadByte_B+0x68>

000803c4 <alt_2_wireTransmitByte_B>:
    pullupSCL_A();
    ret = readSDA_A();
    pulldownSCL_A();
}
void alt_2_wireTransmitByte_B(int byte)
{
   803c4:	defffc04 	addi	sp,sp,-16
   803c8:	dc800215 	stw	r18,8(sp)
   803cc:	dc400115 	stw	r17,4(sp)
   803d0:	dc000015 	stw	r16,0(sp)
   803d4:	2023883a 	mov	r17,r4
   803d8:	040001c4 	movi	r16,7
   803dc:	04bfffc4 	movi	r18,-1
   803e0:	dfc00315 	stw	ra,12(sp)
   803e4:	00000506 	br	803fc <alt_2_wireTransmitByte_B+0x38>
    int i, ret;

    for(i = 7; i > -1; i--) {
   803e8:	843fffc4 	addi	r16,r16,-1
        (byte & (1 << i))?(pullupSDA_B()):(pulldownSDA_B());
   803ec:	00801d40 	call	801d4 <pullupSDA_B>

        pullupSCL_B();
   803f0:	00802580 	call	80258 <pullupSCL_B>
        pulldownSCL_B();
   803f4:	00802a00 	call	802a0 <pulldownSCL_B>
}
void alt_2_wireTransmitByte_B(int byte)
{
    int i, ret;

    for(i = 7; i > -1; i--) {
   803f8:	84800926 	beq	r16,r18,80420 <alt_2_wireTransmitByte_B+0x5c>
        (byte & (1 << i))?(pullupSDA_B()):(pulldownSDA_B());
   803fc:	8c05d83a 	sra	r2,r17,r16
   80400:	1080004c 	andi	r2,r2,1
   80404:	1005003a 	cmpeq	r2,r2,zero
   80408:	103ff726 	beq	r2,zero,803e8 <alt_2_wireTransmitByte_B+0x24>
}
void alt_2_wireTransmitByte_B(int byte)
{
    int i, ret;

    for(i = 7; i > -1; i--) {
   8040c:	843fffc4 	addi	r16,r16,-1
        (byte & (1 << i))?(pullupSDA_B()):(pulldownSDA_B());
   80410:	00801ec0 	call	801ec <pulldownSDA_B>

        pullupSCL_B();
   80414:	00802580 	call	80258 <pullupSCL_B>
        pulldownSCL_B();
   80418:	00802a00 	call	802a0 <pulldownSCL_B>
}
void alt_2_wireTransmitByte_B(int byte)
{
    int i, ret;

    for(i = 7; i > -1; i--) {
   8041c:	84bff71e 	bne	r16,r18,803fc <alt_2_wireTransmitByte_B+0x38>
        (byte & (1 << i))?(pullupSDA_B()):(pulldownSDA_B());

        pullupSCL_B();
        pulldownSCL_B();
    }
    tri_state_sda();
   80420:	00801c00 	call	801c0 <tri_state_sda>
    pullupSCL_B();
   80424:	00802580 	call	80258 <pullupSCL_B>
    ret = readSDA_B();
   80428:	00802340 	call	80234 <readSDA_B>
    pulldownSCL_B();
}
   8042c:	dfc00317 	ldw	ra,12(sp)
   80430:	dc800217 	ldw	r18,8(sp)
   80434:	dc400117 	ldw	r17,4(sp)
   80438:	dc000017 	ldw	r16,0(sp)
   8043c:	dec00404 	addi	sp,sp,16
        pulldownSCL_B();
    }
    tri_state_sda();
    pullupSCL_B();
    ret = readSDA_B();
    pulldownSCL_B();
   80440:	00802a01 	jmpi	802a0 <pulldownSCL_B>

00080444 <alt_2_wireSendByte_B>:
    ret = readSDA_A();	// capture ack and return ret
    pulldownSCL_A();
   return ret;
}
int alt_2_wireSendByte_B(int byte)
{
   80444:	defffc04 	addi	sp,sp,-16
   80448:	dc800215 	stw	r18,8(sp)
   8044c:	dc400115 	stw	r17,4(sp)
   80450:	dc000015 	stw	r16,0(sp)
   80454:	044001c4 	movi	r17,7
   80458:	2021883a 	mov	r16,r4
   8045c:	04bfffc4 	movi	r18,-1
   80460:	dfc00315 	stw	ra,12(sp)
   80464:	00000506 	br	8047c <alt_2_wireSendByte_B+0x38>
    int i, ret;
    for(i = 7; i > -1; i--) {
   80468:	8c7fffc4 	addi	r17,r17,-1
        (byte & (1 << i))?(pullupSDA_B()):(pulldownSDA_B());
   8046c:	00801d40 	call	801d4 <pullupSDA_B>

        pullupSCL_B();
   80470:	00802580 	call	80258 <pullupSCL_B>
        pulldownSCL_B();
   80474:	00802a00 	call	802a0 <pulldownSCL_B>
   return ret;
}
int alt_2_wireSendByte_B(int byte)
{
    int i, ret;
    for(i = 7; i > -1; i--) {
   80478:	8c800926 	beq	r17,r18,804a0 <alt_2_wireSendByte_B+0x5c>
        (byte & (1 << i))?(pullupSDA_B()):(pulldownSDA_B());
   8047c:	8445d83a 	sra	r2,r16,r17
   80480:	1080004c 	andi	r2,r2,1
   80484:	1005003a 	cmpeq	r2,r2,zero
   80488:	103ff726 	beq	r2,zero,80468 <alt_2_wireSendByte_B+0x24>
   return ret;
}
int alt_2_wireSendByte_B(int byte)
{
    int i, ret;
    for(i = 7; i > -1; i--) {
   8048c:	8c7fffc4 	addi	r17,r17,-1
        (byte & (1 << i))?(pullupSDA_B()):(pulldownSDA_B());
   80490:	00801ec0 	call	801ec <pulldownSDA_B>

        pullupSCL_B();
   80494:	00802580 	call	80258 <pullupSCL_B>
        pulldownSCL_B();
   80498:	00802a00 	call	802a0 <pulldownSCL_B>
   return ret;
}
int alt_2_wireSendByte_B(int byte)
{
    int i, ret;
    for(i = 7; i > -1; i--) {
   8049c:	8cbff71e 	bne	r17,r18,8047c <alt_2_wireSendByte_B+0x38>
        (byte & (1 << i))?(pullupSDA_B()):(pulldownSDA_B());

        pullupSCL_B();
        pulldownSCL_B();
    }
    tri_state_sda();
   804a0:	00801c00 	call	801c0 <tri_state_sda>
    pullupSCL_B();
   804a4:	00802580 	call	80258 <pullupSCL_B>
    ret = readSDA_B();	// capture ack and return ret
   804a8:	00802340 	call	80234 <readSDA_B>
   804ac:	1023883a 	mov	r17,r2
    pulldownSCL_B();
   804b0:	00802a00 	call	802a0 <pulldownSCL_B>
   return ret;
}
   804b4:	8805883a 	mov	r2,r17
   804b8:	dfc00317 	ldw	ra,12(sp)
   804bc:	dc800217 	ldw	r18,8(sp)
   804c0:	dc400117 	ldw	r17,4(sp)
   804c4:	dc000017 	ldw	r16,0(sp)
   804c8:	dec00404 	addi	sp,sp,16
   804cc:	f800283a 	ret

000804d0 <alt_2_wireStart_B>:
	pulldownSDA_A();
	pulldownSCL_A();
	tri_state_sda();
}
void alt_2_wireStart_B()
{
   804d0:	deffff04 	addi	sp,sp,-4
   804d4:	dfc00015 	stw	ra,0(sp)
	pullupSCL_B();
   804d8:	00802580 	call	80258 <pullupSCL_B>
	pullupSDA_B();
   804dc:	00801d40 	call	801d4 <pullupSDA_B>
	pulldownSDA_B();
   804e0:	00801ec0 	call	801ec <pulldownSDA_B>
	pulldownSCL_B();
   804e4:	00802a00 	call	802a0 <pulldownSCL_B>
	tri_state_sda();
}
   804e8:	dfc00017 	ldw	ra,0(sp)
   804ec:	dec00104 	addi	sp,sp,4
{
	pullupSCL_B();
	pullupSDA_B();
	pulldownSDA_B();
	pulldownSCL_B();
	tri_state_sda();
   804f0:	00801c01 	jmpi	801c0 <tri_state_sda>

000804f4 <pullupSCL_A>:
{
  IOWR_8DIRECT(I2C_CONTROLLER_0_BASE, SDA_DIR_REG, SDA_TRI_STATE);// output
}

static void pulldownSCL_A()	{PIO2_Content &= PORTA_SFP_A_SCL_MASKLOW; IOWR_ALTERA_AVALON_PIO_DATA(PIO_2_BASE, PIO2_Content); setupDelay(); }
static void pullupSCL_A()	{PIO2_Content |= PORTA_SFP_A_SCL_HIGH; IOWR_ALTERA_AVALON_PIO_DATA(PIO_2_BASE, PIO2_Content); setupDelay(); }
   804f4:	010002f4 	movhi	r4,11
   804f8:	211a1784 	addi	r4,r4,26718
   804fc:	2080000b 	ldhu	r2,0(r4)
   80500:	00c6d004 	movi	r3,6976
   80504:	10800054 	ori	r2,r2,1
   80508:	117fffcc 	andi	r5,r2,65535
   8050c:	2080000d 	sth	r2,0(r4)
   80510:	19400035 	stwio	r5,0(r3)
		;
	   //usleep(1);							// sleep 1uS
}
***/
static inline void setupDelay() {
	usleep(10);  //udelay()
   80514:	01000284 	movi	r4,10
   80518:	00a4d481 	jmpi	a4d48 <usleep>

0008051c <alt_2_wireStop_A>:
	pulldownSCL_B();
	tri_state_sda();
}

void alt_2_wireStop_A()
{
   8051c:	deffff04 	addi	sp,sp,-4
   80520:	dfc00015 	stw	ra,0(sp)

	pulldownSDA_A();
   80524:	008021c0 	call	8021c <pulldownSDA_A>
 	pullupSCL_A();
   80528:	00804f40 	call	804f4 <pullupSCL_A>
	pullupSDA_A();
   8052c:	00802040 	call	80204 <pullupSDA_A>
	tri_state_sda();
}
   80530:	dfc00017 	ldw	ra,0(sp)
   80534:	dec00104 	addi	sp,sp,4
{

	pulldownSDA_A();
 	pullupSCL_A();
	pullupSDA_A();
	tri_state_sda();
   80538:	00801c01 	jmpi	801c0 <tri_state_sda>

0008053c <pulldownSCL_A>:
static void tri_state_sda()
{
  IOWR_8DIRECT(I2C_CONTROLLER_0_BASE, SDA_DIR_REG, SDA_TRI_STATE);// output
}

static void pulldownSCL_A()	{PIO2_Content &= PORTA_SFP_A_SCL_MASKLOW; IOWR_ALTERA_AVALON_PIO_DATA(PIO_2_BASE, PIO2_Content); setupDelay(); }
   8053c:	014002f4 	movhi	r5,11
   80540:	295a1784 	addi	r5,r5,26718
   80544:	2880000b 	ldhu	r2,0(r5)
   80548:	00ffff84 	movi	r3,-2
   8054c:	10c4703a 	and	r2,r2,r3
   80550:	113fffcc 	andi	r4,r2,65535
   80554:	00c6d004 	movi	r3,6976
   80558:	2880000d 	sth	r2,0(r5)
   8055c:	19000035 	stwio	r4,0(r3)
		;
	   //usleep(1);							// sleep 1uS
}
***/
static inline void setupDelay() {
	usleep(10);  //udelay()
   80560:	01000284 	movi	r4,10
   80564:	00a4d481 	jmpi	a4d48 <usleep>

00080568 <alt_2_wireReadByte_A>:
    ret = readSDA_B();
    pulldownSCL_B();
}


int alt_2_wireReadByte_A(int ackControl) {
   80568:	defffb04 	addi	sp,sp,-20
   8056c:	dcc00315 	stw	r19,12(sp)
   80570:	dc800215 	stw	r18,8(sp)
   80574:	dc400115 	stw	r17,4(sp)
   80578:	dc000015 	stw	r16,0(sp)
   8057c:	dfc00415 	stw	ra,16(sp)
   80580:	2027883a 	mov	r19,r4
	int i, val = 0, ack;
    tri_state_sda();
   80584:	040001c4 	movi	r16,7
   80588:	00801c00 	call	801c0 <tri_state_sda>
   8058c:	0025883a 	mov	r18,zero
   80590:	047fffc4 	movi	r17,-1
	for(i = 7; i > -1; i--) {
		pullupSCL_A();
   80594:	00804f40 	call	804f4 <pullupSCL_A>
		val |= (readSDA_A() << i);
   80598:	00802480 	call	80248 <readSDA_A>
   8059c:	1404983a 	sll	r2,r2,r16


int alt_2_wireReadByte_A(int ackControl) {
	int i, val = 0, ack;
    tri_state_sda();
	for(i = 7; i > -1; i--) {
   805a0:	843fffc4 	addi	r16,r16,-1
		pullupSCL_A();
		val |= (readSDA_A() << i);
   805a4:	90a4b03a 	or	r18,r18,r2
		pulldownSCL_A();
   805a8:	008053c0 	call	8053c <pulldownSCL_A>


int alt_2_wireReadByte_A(int ackControl) {
	int i, val = 0, ack;
    tri_state_sda();
	for(i = 7; i > -1; i--) {
   805ac:	847ff91e 	bne	r16,r17,80594 <alt_2_wireReadByte_A+0x2c>
		pullupSCL_A();
		val |= (readSDA_A() << i);
		pulldownSCL_A();
	}

	switch(ackControl) {
   805b0:	00800044 	movi	r2,1
   805b4:	043fffc4 	movi	r16,-1
   805b8:	98801b26 	beq	r19,r2,80628 <alt_2_wireReadByte_A+0xc0>
   805bc:	00800084 	movi	r2,2
   805c0:	98801f26 	beq	r19,r2,80640 <alt_2_wireReadByte_A+0xd8>
   805c4:	98000a26 	beq	r19,zero,805f0 <alt_2_wireReadByte_A+0x88>
			pullupSCL_A();
			pulldownSCL_A();
			pulldownSDA_A();
			break;
		default:
			alt_2_wireStop_A();
   805c8:	8025883a 	mov	r18,r16
   805cc:	008051c0 	call	8051c <alt_2_wireStop_A>
            return -1;
	}
    tri_state_sda();
	return val;
}
   805d0:	9005883a 	mov	r2,r18
   805d4:	dfc00417 	ldw	ra,16(sp)
   805d8:	dcc00317 	ldw	r19,12(sp)
   805dc:	dc800217 	ldw	r18,8(sp)
   805e0:	dc400117 	ldw	r17,4(sp)
   805e4:	dc000017 	ldw	r16,0(sp)
   805e8:	dec00504 	addi	sp,sp,20
   805ec:	f800283a 	ret
		pulldownSCL_A();
	}

	switch(ackControl) {
		case EXPECT_ACK:
			pullupSCL_A();
   805f0:	00804f40 	call	804f4 <pullupSCL_A>
			ack = readSDA_A();
   805f4:	00802480 	call	80248 <readSDA_A>
   805f8:	1023883a 	mov	r17,r2
			pulldownSCL_A();
   805fc:	008053c0 	call	8053c <pulldownSCL_A>
			if(ack) return -1;
   80600:	8800151e 	bne	r17,zero,80658 <alt_2_wireReadByte_A+0xf0>
			break;
		default:
			alt_2_wireStop_A();
            return -1;
	}
    tri_state_sda();
   80604:	00801c00 	call	801c0 <tri_state_sda>
	return val;
}
   80608:	9005883a 	mov	r2,r18
   8060c:	dfc00417 	ldw	ra,16(sp)
   80610:	dcc00317 	ldw	r19,12(sp)
   80614:	dc800217 	ldw	r18,8(sp)
   80618:	dc400117 	ldw	r17,4(sp)
   8061c:	dc000017 	ldw	r16,0(sp)
   80620:	dec00504 	addi	sp,sp,20
   80624:	f800283a 	ret
			ack = readSDA_A();
			pulldownSCL_A();
			if(ack) return -1;
			break;
		case SEND_ACK:
			pulldownSDA_A();
   80628:	008021c0 	call	8021c <pulldownSDA_A>
			pullupSCL_A();
   8062c:	00804f40 	call	804f4 <pullupSCL_A>
			pulldownSCL_A();
   80630:	008053c0 	call	8053c <pulldownSCL_A>
			pullupSDA_A();
   80634:	00802040 	call	80204 <pullupSDA_A>
			break;
		default:
			alt_2_wireStop_A();
            return -1;
	}
    tri_state_sda();
   80638:	00801c00 	call	801c0 <tri_state_sda>
   8063c:	003ff206 	br	80608 <alt_2_wireReadByte_A+0xa0>
			pullupSCL_A();
			pulldownSCL_A();
			pullupSDA_A();
			break;
		case SEND_NACK:
			pullupSDA_A();
   80640:	00802040 	call	80204 <pullupSDA_A>
			pullupSCL_A();
   80644:	00804f40 	call	804f4 <pullupSCL_A>
			pulldownSCL_A();
   80648:	008053c0 	call	8053c <pulldownSCL_A>
			pulldownSDA_A();
   8064c:	008021c0 	call	8021c <pulldownSDA_A>
			break;
		default:
			alt_2_wireStop_A();
            return -1;
	}
    tri_state_sda();
   80650:	00801c00 	call	801c0 <tri_state_sda>
   80654:	003fec06 	br	80608 <alt_2_wireReadByte_A+0xa0>
	switch(ackControl) {
		case EXPECT_ACK:
			pullupSCL_A();
			ack = readSDA_A();
			pulldownSCL_A();
			if(ack) return -1;
   80658:	8025883a 	mov	r18,r16
   8065c:	003fdc06 	br	805d0 <alt_2_wireReadByte_A+0x68>

00080660 <alt_2_wireTransmitByte_A>:
    pulldownSCL_B();
   return ret;
}

void alt_2_wireTransmitByte_A(int byte)
{
   80660:	defffc04 	addi	sp,sp,-16
   80664:	dc800215 	stw	r18,8(sp)
   80668:	dc400115 	stw	r17,4(sp)
   8066c:	dc000015 	stw	r16,0(sp)
   80670:	2023883a 	mov	r17,r4
   80674:	040001c4 	movi	r16,7
   80678:	04bfffc4 	movi	r18,-1
   8067c:	dfc00315 	stw	ra,12(sp)
   80680:	00000506 	br	80698 <alt_2_wireTransmitByte_A+0x38>
    int i, ret;

    for(i = 7; i > -1; i--) {
   80684:	843fffc4 	addi	r16,r16,-1
        (byte & (1 << i))?(pullupSDA_A()):(pulldownSDA_A());
   80688:	00802040 	call	80204 <pullupSDA_A>
        pullupSCL_A();
   8068c:	00804f40 	call	804f4 <pullupSCL_A>
        pulldownSCL_A();
   80690:	008053c0 	call	8053c <pulldownSCL_A>

void alt_2_wireTransmitByte_A(int byte)
{
    int i, ret;

    for(i = 7; i > -1; i--) {
   80694:	84800926 	beq	r16,r18,806bc <alt_2_wireTransmitByte_A+0x5c>
        (byte & (1 << i))?(pullupSDA_A()):(pulldownSDA_A());
   80698:	8c05d83a 	sra	r2,r17,r16
   8069c:	1080004c 	andi	r2,r2,1
   806a0:	1005003a 	cmpeq	r2,r2,zero
   806a4:	103ff726 	beq	r2,zero,80684 <alt_2_wireTransmitByte_A+0x24>

void alt_2_wireTransmitByte_A(int byte)
{
    int i, ret;

    for(i = 7; i > -1; i--) {
   806a8:	843fffc4 	addi	r16,r16,-1
        (byte & (1 << i))?(pullupSDA_A()):(pulldownSDA_A());
   806ac:	008021c0 	call	8021c <pulldownSDA_A>
        pullupSCL_A();
   806b0:	00804f40 	call	804f4 <pullupSCL_A>
        pulldownSCL_A();
   806b4:	008053c0 	call	8053c <pulldownSCL_A>

void alt_2_wireTransmitByte_A(int byte)
{
    int i, ret;

    for(i = 7; i > -1; i--) {
   806b8:	84bff71e 	bne	r16,r18,80698 <alt_2_wireTransmitByte_A+0x38>
        (byte & (1 << i))?(pullupSDA_A()):(pulldownSDA_A());
        pullupSCL_A();
        pulldownSCL_A();
    }

    tri_state_sda();
   806bc:	00801c00 	call	801c0 <tri_state_sda>
    pullupSCL_A();
   806c0:	00804f40 	call	804f4 <pullupSCL_A>
    ret = readSDA_A();
   806c4:	00802480 	call	80248 <readSDA_A>
    pulldownSCL_A();
}
   806c8:	dfc00317 	ldw	ra,12(sp)
   806cc:	dc800217 	ldw	r18,8(sp)
   806d0:	dc400117 	ldw	r17,4(sp)
   806d4:	dc000017 	ldw	r16,0(sp)
   806d8:	dec00404 	addi	sp,sp,16
    }

    tri_state_sda();
    pullupSCL_A();
    ret = readSDA_A();
    pulldownSCL_A();
   806dc:	008053c1 	jmpi	8053c <pulldownSCL_A>

000806e0 <alt_2_wireSendByte_A>:
	pullupSDA_B();
	tri_state_sda();
}

int alt_2_wireSendByte_A(int byte)
{
   806e0:	defffc04 	addi	sp,sp,-16
   806e4:	dc800215 	stw	r18,8(sp)
   806e8:	dc400115 	stw	r17,4(sp)
   806ec:	dc000015 	stw	r16,0(sp)
   806f0:	044001c4 	movi	r17,7
   806f4:	2021883a 	mov	r16,r4
   806f8:	04bfffc4 	movi	r18,-1
   806fc:	dfc00315 	stw	ra,12(sp)
   80700:	00000506 	br	80718 <alt_2_wireSendByte_A+0x38>
    int i, ret;

    for(i = 7; i > -1; i--) {
   80704:	8c7fffc4 	addi	r17,r17,-1
        (byte & (1 << i))?(pullupSDA_A()):(pulldownSDA_A());
   80708:	00802040 	call	80204 <pullupSDA_A>
        pullupSCL_A();
   8070c:	00804f40 	call	804f4 <pullupSCL_A>
        pulldownSCL_A();
   80710:	008053c0 	call	8053c <pulldownSCL_A>

int alt_2_wireSendByte_A(int byte)
{
    int i, ret;

    for(i = 7; i > -1; i--) {
   80714:	8c800926 	beq	r17,r18,8073c <alt_2_wireSendByte_A+0x5c>
        (byte & (1 << i))?(pullupSDA_A()):(pulldownSDA_A());
   80718:	8445d83a 	sra	r2,r16,r17
   8071c:	1080004c 	andi	r2,r2,1
   80720:	1005003a 	cmpeq	r2,r2,zero
   80724:	103ff726 	beq	r2,zero,80704 <alt_2_wireSendByte_A+0x24>

int alt_2_wireSendByte_A(int byte)
{
    int i, ret;

    for(i = 7; i > -1; i--) {
   80728:	8c7fffc4 	addi	r17,r17,-1
        (byte & (1 << i))?(pullupSDA_A()):(pulldownSDA_A());
   8072c:	008021c0 	call	8021c <pulldownSDA_A>
        pullupSCL_A();
   80730:	00804f40 	call	804f4 <pullupSCL_A>
        pulldownSCL_A();
   80734:	008053c0 	call	8053c <pulldownSCL_A>

int alt_2_wireSendByte_A(int byte)
{
    int i, ret;

    for(i = 7; i > -1; i--) {
   80738:	8cbff71e 	bne	r17,r18,80718 <alt_2_wireSendByte_A+0x38>
        (byte & (1 << i))?(pullupSDA_A()):(pulldownSDA_A());
        pullupSCL_A();
        pulldownSCL_A();
    }

    tri_state_sda();
   8073c:	00801c00 	call	801c0 <tri_state_sda>
    pullupSCL_A();
   80740:	00804f40 	call	804f4 <pullupSCL_A>
    ret = readSDA_A();	// capture ack and return ret
   80744:	00802480 	call	80248 <readSDA_A>
   80748:	1023883a 	mov	r17,r2
    pulldownSCL_A();
   8074c:	008053c0 	call	8053c <pulldownSCL_A>
   return ret;
}
   80750:	8805883a 	mov	r2,r17
   80754:	dfc00317 	ldw	ra,12(sp)
   80758:	dc800217 	ldw	r18,8(sp)
   8075c:	dc400117 	ldw	r17,4(sp)
   80760:	dc000017 	ldw	r16,0(sp)
   80764:	dec00404 	addi	sp,sp,16
   80768:	f800283a 	ret

0008076c <alt_2_wireStart_A>:
    read_data >>= 1;
	return(read_data &= 0x1);
}

void alt_2_wireStart_A()
{
   8076c:	deffff04 	addi	sp,sp,-4
   80770:	dfc00015 	stw	ra,0(sp)
	pullupSCL_A();
   80774:	00804f40 	call	804f4 <pullupSCL_A>
	pullupSDA_A();
   80778:	00802040 	call	80204 <pullupSDA_A>
	pulldownSDA_A();
   8077c:	008021c0 	call	8021c <pulldownSDA_A>
	pulldownSCL_A();
   80780:	008053c0 	call	8053c <pulldownSCL_A>
	tri_state_sda();
}
   80784:	dfc00017 	ldw	ra,0(sp)
   80788:	dec00104 	addi	sp,sp,4
{
	pullupSCL_A();
	pullupSDA_A();
	pulldownSDA_A();
	pulldownSCL_A();
	tri_state_sda();
   8078c:	00801c01 	jmpi	801c0 <tri_state_sda>

00080790 <update_bert_status>:

//This Register may be something completely different:
//AWAITING DEFINITION...........
void update_bert_status()
{
	BERT_STATUS = IORD_32DIRECT(TOP_C37DOT94_0_BASE, ADDR_PSIR);
   80790:	00871b04 	movi	r2,7276
   80794:	11000037 	ldwio	r4,0(r2)
   80798:	00c002f4 	movhi	r3,11
   8079c:	18da1304 	addi	r3,r3,26700
   807a0:	19000005 	stb	r4,0(r3)
	//D(1, BUG("\nC3794_status_reg: %0X", C3794_status));
}
   807a4:	f800283a 	ret

000807a8 <update_alarms_event_status>:
#define BERT_INSYNC		(C3794_status&SYNC_STATUS_MASK) == SYNC_STATUS_MASK
#define LOF_ACTIVE		(C3794_status&LOF_STATUS_MASK) != LOF_STATUS_MASK	// ActvL
 */
void update_alarms_event_status()
{
	C3794_status = IORD_32DIRECT(TOP_C37DOT94_0_BASE, ADDR_STATUS);
   807a8:	00870c04 	movi	r2,7216
   807ac:	11000037 	ldwio	r4,0(r2)
   807b0:	00c002f4 	movhi	r3,11
   807b4:	18da0f04 	addi	r3,r3,26684
   807b8:	19000005 	stb	r4,0(r3)
	//D(1, BUG("\nC3794_status_reg: %0X", C3794_status));
}
   807bc:	f800283a 	ret

000807c0 <dump_C3794_status>:
	BERT_STATUS = IORD_32DIRECT(TOP_C37DOT94_0_BASE, ADDR_PSIR);
	//D(1, BUG("\nC3794_status_reg: %0X", C3794_status));
}


void dump_C3794_status() {
   807c0:	defffd04 	addi	sp,sp,-12
   807c4:	dfc00215 	stw	ra,8(sp)
	unsigned int temp;

	temp = IORD_32DIRECT(TOP_C37DOT94_0_BASE, ADDR_STATUS);
   807c8:	00870c04 	movi	r2,7216
   807cc:	11400037 	ldwio	r5,0(r2)
	D(1, BUG("\n\tINFO: C3794 STATUS register: 0x%02x", temp));
   807d0:	010002f4 	movhi	r4,11
   807d4:	212fff04 	addi	r4,r4,-16388
   807d8:	009c0e00 	call	9c0e0 <printf>
	D(1, BUG("\n\tRCVCLOCK_LOCKED:%d  TEST_ACTIVE:%d  LOF_ACTV:%d  RDI_ACTV:%d  BERT_INSYNC:%d\n",RCVCLOCK_LOCKED, TEST_ACTIVE, LOF_ACTIVE, RDI_ACTIVE, BERT_INSYNC));
   807dc:	00c002f4 	movhi	r3,11
   807e0:	18da0f04 	addi	r3,r3,26684
   807e4:	19800003 	ldbu	r6,0(r3)
   807e8:	00800044 	movi	r2,1
   807ec:	010002f4 	movhi	r4,11
   807f0:	21300904 	addi	r4,r4,-16348
   807f4:	300ed0ba 	srli	r7,r6,2
   807f8:	3006d0fa 	srli	r3,r6,3
   807fc:	308ad83a 	srl	r5,r6,r2
   80800:	3010d13a 	srli	r8,r6,4
   80804:	388ef03a 	xor	r7,r7,r2
   80808:	1886f03a 	xor	r3,r3,r2
   8080c:	1886703a 	and	r3,r3,r2
   80810:	4090703a 	and	r8,r8,r2
   80814:	388e703a 	and	r7,r7,r2
   80818:	288a703a 	and	r5,r5,r2
   8081c:	308c703a 	and	r6,r6,r2
   80820:	d8c00015 	stw	r3,0(sp)
   80824:	da000115 	stw	r8,4(sp)
   80828:	009c0e00 	call	9c0e0 <printf>
	temp = IORD_32DIRECT(TOP_C37DOT94_0_BASE, ADDR_LOF_DETECT_CNT);
   8082c:	00c71004 	movi	r3,7232
   80830:	19400037 	ldwio	r5,0(r3)
	D(1, BUG("\tINFO: C3794 LOF_DETECT_CNT_  register: %d\n", temp));
   80834:	010002f4 	movhi	r4,11
   80838:	21301d04 	addi	r4,r4,-16268
   8083c:	009c0e00 	call	9c0e0 <printf>
	temp = IORD_32DIRECT(TOP_C37DOT94_0_BASE, ADDR_LOF_NUMFRMS_ACTIVE);
   80840:	00c71104 	movi	r3,7236
   80844:	19400037 	ldwio	r5,0(r3)
	D(1, BUG("\tINFO: C3794 LOF_ACTIVE_#FRMS register: %d\n", temp));
   80848:	010002f4 	movhi	r4,11
   8084c:	21302804 	addi	r4,r4,-16224
   80850:	009c0e00 	call	9c0e0 <printf>
	temp = IORD_32DIRECT(TOP_C37DOT94_0_BASE, ADDR_RDI_DETECT_CNT);
   80854:	00c71204 	movi	r3,7240
   80858:	19400037 	ldwio	r5,0(r3)
	D(1, BUG("\tINFO: C3794 RDI_DETECT_CNT_  register: %d\n", temp));
   8085c:	010002f4 	movhi	r4,11
   80860:	21303304 	addi	r4,r4,-16180
   80864:	009c0e00 	call	9c0e0 <printf>
	temp = IORD_32DIRECT(TOP_C37DOT94_0_BASE, ADDR_RDI_NUMFRMS_ACTIVE);
   80868:	00c71304 	movi	r3,7244
   8086c:	19400037 	ldwio	r5,0(r3)
	D(1, BUG("\tINFO: C3794 RDI_ACTIVE_#FRMS register: %d\n", temp));
   80870:	010002f4 	movhi	r4,11
   80874:	21303e04 	addi	r4,r4,-16136
   80878:	009c0e00 	call	9c0e0 <printf>
	temp = IORD_32DIRECT(TOP_C37DOT94_0_BASE, ADDR_NUM_FRAMES_TX);
   8087c:	00c71504 	movi	r3,7252
   80880:	19400037 	ldwio	r5,0(r3)
	D(1, BUG("\tINFO: C3794 FRAMES_TX'D: %d	FRAMES_RX'D: %d \n", temp, IORD_32DIRECT(TOP_C37DOT94_0_BASE, ADDR_NUM_FRAMES_RX)));
   80884:	00871404 	movi	r2,7248
   80888:	11800037 	ldwio	r6,0(r2)
   8088c:	010002f4 	movhi	r4,11
   80890:	21304904 	addi	r4,r4,-16092
}
   80894:	dfc00217 	ldw	ra,8(sp)
   80898:	dec00304 	addi	sp,sp,12
	temp = IORD_32DIRECT(TOP_C37DOT94_0_BASE, ADDR_RDI_DETECT_CNT);
	D(1, BUG("\tINFO: C3794 RDI_DETECT_CNT_  register: %d\n", temp));
	temp = IORD_32DIRECT(TOP_C37DOT94_0_BASE, ADDR_RDI_NUMFRMS_ACTIVE);
	D(1, BUG("\tINFO: C3794 RDI_ACTIVE_#FRMS register: %d\n", temp));
	temp = IORD_32DIRECT(TOP_C37DOT94_0_BASE, ADDR_NUM_FRAMES_TX);
	D(1, BUG("\tINFO: C3794 FRAMES_TX'D: %d	FRAMES_RX'D: %d \n", temp, IORD_32DIRECT(TOP_C37DOT94_0_BASE, ADDR_NUM_FRAMES_RX)));
   8089c:	009c0e01 	jmpi	9c0e0 <printf>

000808a0 <verify_register>:
	D(1, BUG("\n\tRCVCLOCK_LOCKED:%d  TEST_ACTIVE:%d  LOF_ACTV:%d  RDI_ACTV:%d  BERT_INSYNC:%d\n",RCVCLOCK_LOCKED, TEST_ACTIVE, LOF_ACTIVE, RDI_ACTIVE, BERT_INSYNC));
}


void verify_register(unsigned int addr, unsigned int expected, unsigned int mask)
{
   808a0:	2807883a 	mov	r3,r5
   808a4:	3013883a 	mov	r9,r6
	unsigned int actual;

	actual = IORD_32DIRECT(TOP_C37DOT94_0_BASE, addr);
   808a8:	22870037 	ldwio	r10,7168(r4)
	if ((actual & mask) != (expected & mask))
		D(1, BUG("\tERROR: verify_register: actual(%0x) != expected(%0x) with mask(%0x)\n", actual, expected, mask));
   808ac:	010002f4 	movhi	r4,11
   808b0:	21305504 	addi	r4,r4,-16044
   808b4:	500b883a 	mov	r5,r10
   808b8:	480f883a 	mov	r7,r9
void verify_register(unsigned int addr, unsigned int expected, unsigned int mask)
{
	unsigned int actual;

	actual = IORD_32DIRECT(TOP_C37DOT94_0_BASE, addr);
	if ((actual & mask) != (expected & mask))
   808bc:	5254703a 	and	r10,r10,r9
   808c0:	48d2703a 	and	r9,r9,r3
		D(1, BUG("\tERROR: verify_register: actual(%0x) != expected(%0x) with mask(%0x)\n", actual, expected, mask));
   808c4:	180d883a 	mov	r6,r3
void verify_register(unsigned int addr, unsigned int expected, unsigned int mask)
{
	unsigned int actual;

	actual = IORD_32DIRECT(TOP_C37DOT94_0_BASE, addr);
	if ((actual & mask) != (expected & mask))
   808c8:	52400126 	beq	r10,r9,808d0 <verify_register+0x30>
		D(1, BUG("\tERROR: verify_register: actual(%0x) != expected(%0x) with mask(%0x)\n", actual, expected, mask));
   808cc:	009c0e01 	jmpi	9c0e0 <printf>
   808d0:	f800283a 	ret

000808d4 <wait_for_C3794_clk>:
		D(1, BUG("C37.94 NOT AVAILABLE:  Clock Failed to Start!\n"));
		}
}

unsigned char wait_for_C3794_clk()
{
   808d4:	defffb04 	addi	sp,sp,-20
   808d8:	dc400115 	stw	r17,4(sp)
   808dc:	dfc00415 	stw	ra,16(sp)
   808e0:	dcc00315 	stw	r19,12(sp)
   808e4:	dc800215 	stw	r18,8(sp)
   808e8:	dc000015 	stw	r16,0(sp)
	unsigned int reg_val=0;
	unsigned short i=0;
	reg_val = IORD_32DIRECT(CLKCTRL_BASE, CLKCTRL_REG);
   808ec:	04400634 	movhi	r17,24
   808f0:	8c500004 	addi	r17,r17,16384
   808f4:	8c000037 	ldwio	r16,0(r17)
	D(1, BUG("1st CLKCTRL_REG = %0X\n", reg_val));
   808f8:	010002f4 	movhi	r4,11
   808fc:	21306704 	addi	r4,r4,-15972
   80900:	800b883a 	mov	r5,r16
   80904:	009c0e00 	call	9c0e0 <printf>
	while(((reg_val&CLKCTRL_REG_ALIVE_MASK) == 0) && ++i < 55){ 	  // wait for IDT CLK to run: wait up to 550mS
   80908:	80002d16 	blt	r16,zero,809c0 <wait_for_C3794_clk+0xec>
   8090c:	8827883a 	mov	r19,r17
   80910:	04800dc4 	movi	r18,55
   80914:	04400044 	movi	r17,1
   80918:	00000306 	br	80928 <wait_for_C3794_clk+0x54>
   8091c:	8c400044 	addi	r17,r17,1
   80920:	897fffcc 	andi	r5,r17,65535
   80924:	2c801a26 	beq	r5,r18,80990 <wait_for_C3794_clk+0xbc>
		OSTimeDlyHMSM(0, 0, 0, 10);
   80928:	0009883a 	mov	r4,zero
   8092c:	000b883a 	mov	r5,zero
   80930:	000d883a 	mov	r6,zero
   80934:	01c00284 	movi	r7,10
   80938:	00a99a80 	call	a99a8 <OSTimeDlyHMSM>
		reg_val = IORD_32DIRECT(CLKCTRL_BASE, CLKCTRL_REG);
   8093c:	9c000037 	ldwio	r16,0(r19)
		D(1, BUG("CLKCTRL_REG = %0X\n", reg_val));
   80940:	010002f4 	movhi	r4,11
   80944:	21306804 	addi	r4,r4,-15968
   80948:	800b883a 	mov	r5,r16
   8094c:	009c0e00 	call	9c0e0 <printf>
{
	unsigned int reg_val=0;
	unsigned short i=0;
	reg_val = IORD_32DIRECT(CLKCTRL_BASE, CLKCTRL_REG);
	D(1, BUG("1st CLKCTRL_REG = %0X\n", reg_val));
	while(((reg_val&CLKCTRL_REG_ALIVE_MASK) == 0) && ++i < 55){ 	  // wait for IDT CLK to run: wait up to 550mS
   80950:	803ff20e 	bge	r16,zero,8091c <wait_for_C3794_clk+0x48>
		OSTimeDlyHMSM(0, 0, 0, 10);
		reg_val = IORD_32DIRECT(CLKCTRL_BASE, CLKCTRL_REG);
		D(1, BUG("CLKCTRL_REG = %0X\n", reg_val));
		}

	if(i>50){
   80954:	897fffcc 	andi	r5,r17,65535
   80958:	00800c84 	movi	r2,50
   8095c:	11400c36 	bltu	r2,r5,80990 <wait_for_C3794_clk+0xbc>
{
	unsigned int reg_val=0;
	unsigned short i=0;
	reg_val = IORD_32DIRECT(CLKCTRL_BASE, CLKCTRL_REG);
	D(1, BUG("1st CLKCTRL_REG = %0X\n", reg_val));
	while(((reg_val&CLKCTRL_REG_ALIVE_MASK) == 0) && ++i < 55){ 	  // wait for IDT CLK to run: wait up to 550mS
   80960:	294002a4 	muli	r5,r5,10
	if(i>50){
		D(1, BUG("C37.94 IDT CLK:  Failed to Start! (%dmS)\n", i*10));
		return(0);
		}
	else{
		D(1, BUG("C37.94 IDT CLK:  Started in %dmS!!\n", i*10));
   80964:	010002f4 	movhi	r4,11
   80968:	21307804 	addi	r4,r4,-15904
   8096c:	009c0e00 	call	9c0e0 <printf>
   80970:	00800044 	movi	r2,1
		return(1);
		}
}
   80974:	dfc00417 	ldw	ra,16(sp)
   80978:	dcc00317 	ldw	r19,12(sp)
   8097c:	dc800217 	ldw	r18,8(sp)
   80980:	dc400117 	ldw	r17,4(sp)
   80984:	dc000017 	ldw	r16,0(sp)
   80988:	dec00504 	addi	sp,sp,20
   8098c:	f800283a 	ret
		reg_val = IORD_32DIRECT(CLKCTRL_BASE, CLKCTRL_REG);
		D(1, BUG("CLKCTRL_REG = %0X\n", reg_val));
		}

	if(i>50){
		D(1, BUG("C37.94 IDT CLK:  Failed to Start! (%dmS)\n", i*10));
   80990:	294002a4 	muli	r5,r5,10
   80994:	010002f4 	movhi	r4,11
   80998:	21306d04 	addi	r4,r4,-15948
   8099c:	009c0e00 	call	9c0e0 <printf>
   809a0:	0005883a 	mov	r2,zero
		}
	else{
		D(1, BUG("C37.94 IDT CLK:  Started in %dmS!!\n", i*10));
		return(1);
		}
}
   809a4:	dfc00417 	ldw	ra,16(sp)
   809a8:	dcc00317 	ldw	r19,12(sp)
   809ac:	dc800217 	ldw	r18,8(sp)
   809b0:	dc400117 	ldw	r17,4(sp)
   809b4:	dc000017 	ldw	r16,0(sp)
   809b8:	dec00504 	addi	sp,sp,20
   809bc:	f800283a 	ret
		D(1, BUG("CLKCTRL_REG = %0X\n", reg_val));
		}

	if(i>50){
		D(1, BUG("C37.94 IDT CLK:  Failed to Start! (%dmS)\n", i*10));
		return(0);
   809c0:	000b883a 	mov	r5,zero
   809c4:	003fe706 	br	80964 <wait_for_C3794_clk+0x90>

000809c8 <wait_for_rcv_clock_locked>:
	D(1, BUG("\n\tRCVCLOCK_LOCKED:%d  TEST_ACTIVE:%d  LOF_ACTV:%d  RDI_ACTV:%d  BERT_INSYNC:%d\n",RCVCLOCK_LOCKED, TEST_ACTIVE, LOF_ACTIVE, RDI_ACTIVE, BERT_INSYNC));
}

int RCV_CLOCK_WATCHDOG_LIMIT = 500;
void wait_for_rcv_clock_locked()
{
   809c8:	defffa04 	addi	sp,sp,-24
   809cc:	dc400415 	stw	r17,16(sp)
	unsigned int watchdog_timer = 0;

	update_alarms_event_status();
	D(1, BUG("\n\tRCVCLOCK_LOCKED:%d  TEST_ACTIVE:%d  LOF_ACTV:%d  RDI_ACTV:%d  BERT_INSYNC:%d\n",RCVCLOCK_LOCKED, TEST_ACTIVE, LOF_ACTIVE, RDI_ACTIVE, BERT_INSYNC));
   809d0:	044002f4 	movhi	r17,11
   809d4:	8c5a0f04 	addi	r17,r17,26684
	D(1, BUG("\n\tRCVCLOCK_LOCKED:%d  TEST_ACTIVE:%d  LOF_ACTV:%d  RDI_ACTV:%d  BERT_INSYNC:%d\n",RCVCLOCK_LOCKED, TEST_ACTIVE, LOF_ACTIVE, RDI_ACTIVE, BERT_INSYNC));
}

int RCV_CLOCK_WATCHDOG_LIMIT = 500;
void wait_for_rcv_clock_locked()
{
   809d8:	dfc00515 	stw	ra,20(sp)
   809dc:	dc000315 	stw	r16,12(sp)
	unsigned int watchdog_timer = 0;

	update_alarms_event_status();
   809e0:	00807a80 	call	807a8 <update_alarms_event_status>
	D(1, BUG("\n\tRCVCLOCK_LOCKED:%d  TEST_ACTIVE:%d  LOF_ACTV:%d  RDI_ACTV:%d  BERT_INSYNC:%d\n",RCVCLOCK_LOCKED, TEST_ACTIVE, LOF_ACTIVE, RDI_ACTIVE, BERT_INSYNC));
   809e4:	89800003 	ldbu	r6,0(r17)
   809e8:	010002f4 	movhi	r4,11
   809ec:	21300904 	addi	r4,r4,-16348
   809f0:	300ed0ba 	srli	r7,r6,2
   809f4:	3004d0fa 	srli	r2,r6,3
   809f8:	300ad07a 	srli	r5,r6,1
   809fc:	3006d13a 	srli	r3,r6,4
   80a00:	39c0005c 	xori	r7,r7,1
   80a04:	1080005c 	xori	r2,r2,1
   80a08:	18c0004c 	andi	r3,r3,1
   80a0c:	1080004c 	andi	r2,r2,1
   80a10:	2940004c 	andi	r5,r5,1
   80a14:	3180004c 	andi	r6,r6,1
   80a18:	39c0004c 	andi	r7,r7,1
   80a1c:	d8c00115 	stw	r3,4(sp)
   80a20:	d8800015 	stw	r2,0(sp)
   80a24:	009c0e00 	call	9c0e0 <printf>
	while (RCVCLOCK_NOTLOCKED) {
   80a28:	88c00003 	ldbu	r3,0(r17)
   80a2c:	18c0008c 	andi	r3,r3,2
   80a30:	1800371e 	bne	r3,zero,80b10 <wait_for_rcv_clock_locked+0x148>
		if (watchdog_timer >= RCV_CLOCK_WATCHDOG_LIMIT) {
   80a34:	d0a00217 	ldw	r2,-32760(gp)
   80a38:	10003726 	beq	r2,zero,80b18 <wait_for_rcv_clock_locked+0x150>
			}
		OSTimeDlyHMSM(0, 0, 0, 10);  //wait 10mS
		watchdog_timer++;
		update_alarms_event_status();
		}
	if(RCVCLOCK_LOCKED){
   80a3c:	0021883a 	mov	r16,zero
   80a40:	00000206 	br	80a4c <wait_for_rcv_clock_locked+0x84>
	unsigned int watchdog_timer = 0;

	update_alarms_event_status();
	D(1, BUG("\n\tRCVCLOCK_LOCKED:%d  TEST_ACTIVE:%d  LOF_ACTV:%d  RDI_ACTV:%d  BERT_INSYNC:%d\n",RCVCLOCK_LOCKED, TEST_ACTIVE, LOF_ACTIVE, RDI_ACTIVE, BERT_INSYNC));
	while (RCVCLOCK_NOTLOCKED) {
		if (watchdog_timer >= RCV_CLOCK_WATCHDOG_LIMIT) {
   80a44:	d0a00217 	ldw	r2,-32760(gp)
   80a48:	8080242e 	bgeu	r16,r2,80adc <wait_for_rcv_clock_locked+0x114>
			D(1, BUG("\n\t	RCV_CLOCK_WATCHDOG TIMEOUT"));
			break;
			}
		OSTimeDlyHMSM(0, 0, 0, 10);  //wait 10mS
   80a4c:	0009883a 	mov	r4,zero
   80a50:	000b883a 	mov	r5,zero
   80a54:	000d883a 	mov	r6,zero
   80a58:	01c00284 	movi	r7,10
   80a5c:	00a99a80 	call	a99a8 <OSTimeDlyHMSM>
		watchdog_timer++;
		update_alarms_event_status();
   80a60:	00807a80 	call	807a8 <update_alarms_event_status>
{
	unsigned int watchdog_timer = 0;

	update_alarms_event_status();
	D(1, BUG("\n\tRCVCLOCK_LOCKED:%d  TEST_ACTIVE:%d  LOF_ACTV:%d  RDI_ACTV:%d  BERT_INSYNC:%d\n",RCVCLOCK_LOCKED, TEST_ACTIVE, LOF_ACTIVE, RDI_ACTIVE, BERT_INSYNC));
	while (RCVCLOCK_NOTLOCKED) {
   80a64:	88800003 	ldbu	r2,0(r17)
		if (watchdog_timer >= RCV_CLOCK_WATCHDOG_LIMIT) {
			D(1, BUG("\n\t	RCV_CLOCK_WATCHDOG TIMEOUT"));
			break;
			}
		OSTimeDlyHMSM(0, 0, 0, 10);  //wait 10mS
		watchdog_timer++;
   80a68:	84000044 	addi	r16,r16,1
{
	unsigned int watchdog_timer = 0;

	update_alarms_event_status();
	D(1, BUG("\n\tRCVCLOCK_LOCKED:%d  TEST_ACTIVE:%d  LOF_ACTV:%d  RDI_ACTV:%d  BERT_INSYNC:%d\n",RCVCLOCK_LOCKED, TEST_ACTIVE, LOF_ACTIVE, RDI_ACTIVE, BERT_INSYNC));
	while (RCVCLOCK_NOTLOCKED) {
   80a6c:	1080008c 	andi	r2,r2,2
   80a70:	103ff426 	beq	r2,zero,80a44 <wait_for_rcv_clock_locked+0x7c>
   80a74:	814002a4 	muli	r5,r16,10
		OSTimeDlyHMSM(0, 0, 0, 10);  //wait 10mS
		watchdog_timer++;
		update_alarms_event_status();
		}
	if(RCVCLOCK_LOCKED){
		D(1, BUG("\n\t	RCV_CLOCK Locked!  (in %d mS)",watchdog_timer*10));
   80a78:	010002f4 	movhi	r4,11
   80a7c:	21308904 	addi	r4,r4,-15836
   80a80:	009c0e00 	call	9c0e0 <printf>
		}
	else{
		D(1, BUG("\n\t	No LOCK on RCV Clock!  (in %d mS)",watchdog_timer*10));
		}
	D(1, BUG("\n\tRCVCLOCK_LOCKED:%d  TEST_ACTIVE:%d  LOF_ACTV:%d  RDI_ACTV:%d  BERT_INSYNC:%d\n",RCVCLOCK_LOCKED, TEST_ACTIVE, LOF_ACTIVE, RDI_ACTIVE, BERT_INSYNC));
   80a84:	89800003 	ldbu	r6,0(r17)
   80a88:	010002f4 	movhi	r4,11
   80a8c:	21300904 	addi	r4,r4,-16348
   80a90:	300ed0ba 	srli	r7,r6,2
   80a94:	3004d0fa 	srli	r2,r6,3
   80a98:	300ad07a 	srli	r5,r6,1
   80a9c:	3006d13a 	srli	r3,r6,4
   80aa0:	39c0005c 	xori	r7,r7,1
   80aa4:	1080005c 	xori	r2,r2,1
   80aa8:	18c0004c 	andi	r3,r3,1
   80aac:	1080004c 	andi	r2,r2,1
   80ab0:	2940004c 	andi	r5,r5,1
   80ab4:	3180004c 	andi	r6,r6,1
   80ab8:	39c0004c 	andi	r7,r7,1
   80abc:	d8800015 	stw	r2,0(sp)
   80ac0:	d8c00115 	stw	r3,4(sp)
   80ac4:	009c0e00 	call	9c0e0 <printf>
}
   80ac8:	dfc00517 	ldw	ra,20(sp)
   80acc:	dc400417 	ldw	r17,16(sp)
   80ad0:	dc000317 	ldw	r16,12(sp)
   80ad4:	dec00604 	addi	sp,sp,24
   80ad8:	f800283a 	ret
	unsigned int watchdog_timer = 0;

	update_alarms_event_status();
	D(1, BUG("\n\tRCVCLOCK_LOCKED:%d  TEST_ACTIVE:%d  LOF_ACTV:%d  RDI_ACTV:%d  BERT_INSYNC:%d\n",RCVCLOCK_LOCKED, TEST_ACTIVE, LOF_ACTIVE, RDI_ACTIVE, BERT_INSYNC));
	while (RCVCLOCK_NOTLOCKED) {
		if (watchdog_timer >= RCV_CLOCK_WATCHDOG_LIMIT) {
   80adc:	814002a4 	muli	r5,r16,10
			D(1, BUG("\n\t	RCV_CLOCK_WATCHDOG TIMEOUT"));
   80ae0:	010002f4 	movhi	r4,11
   80ae4:	21308104 	addi	r4,r4,-15868
   80ae8:	d9400215 	stw	r5,8(sp)
   80aec:	009c0e00 	call	9c0e0 <printf>
			}
		OSTimeDlyHMSM(0, 0, 0, 10);  //wait 10mS
		watchdog_timer++;
		update_alarms_event_status();
		}
	if(RCVCLOCK_LOCKED){
   80af0:	88c00003 	ldbu	r3,0(r17)
   80af4:	d9400217 	ldw	r5,8(sp)
   80af8:	18c0008c 	andi	r3,r3,2
   80afc:	183fde1e 	bne	r3,zero,80a78 <wait_for_rcv_clock_locked+0xb0>
		D(1, BUG("\n\t	RCV_CLOCK Locked!  (in %d mS)",watchdog_timer*10));
		}
	else{
		D(1, BUG("\n\t	No LOCK on RCV Clock!  (in %d mS)",watchdog_timer*10));
   80b00:	010002f4 	movhi	r4,11
   80b04:	21309204 	addi	r4,r4,-15800
   80b08:	009c0e00 	call	9c0e0 <printf>
   80b0c:	003fdd06 	br	80a84 <wait_for_rcv_clock_locked+0xbc>
		}
	D(1, BUG("\n\tRCVCLOCK_LOCKED:%d  TEST_ACTIVE:%d  LOF_ACTV:%d  RDI_ACTV:%d  BERT_INSYNC:%d\n",RCVCLOCK_LOCKED, TEST_ACTIVE, LOF_ACTIVE, RDI_ACTIVE, BERT_INSYNC));
}
   80b10:	000b883a 	mov	r5,zero
   80b14:	003fd806 	br	80a78 <wait_for_rcv_clock_locked+0xb0>
	unsigned int watchdog_timer = 0;

	update_alarms_event_status();
	D(1, BUG("\n\tRCVCLOCK_LOCKED:%d  TEST_ACTIVE:%d  LOF_ACTV:%d  RDI_ACTV:%d  BERT_INSYNC:%d\n",RCVCLOCK_LOCKED, TEST_ACTIVE, LOF_ACTIVE, RDI_ACTIVE, BERT_INSYNC));
	while (RCVCLOCK_NOTLOCKED) {
		if (watchdog_timer >= RCV_CLOCK_WATCHDOG_LIMIT) {
   80b18:	000b883a 	mov	r5,zero
   80b1c:	003ff006 	br	80ae0 <wait_for_rcv_clock_locked+0x118>

00080b20 <wait_for_FrameSync>:



int LOF_WATCHDOG_LIMIT = 500;
void wait_for_FrameSync()
{
   80b20:	defffa04 	addi	sp,sp,-24
   80b24:	dc400415 	stw	r17,16(sp)
	unsigned int watchdog_timer = 0;

	update_alarms_event_status();
	D(1, BUG("\n\tRCVCLOCK_LOCKED:%d  TEST_ACTIVE:%d  LOF_ACTV:%d  RDI_ACTV:%d  BERT_INSYNC:%d\n",RCVCLOCK_LOCKED, TEST_ACTIVE, LOF_ACTIVE, RDI_ACTIVE, BERT_INSYNC));
   80b28:	044002f4 	movhi	r17,11
   80b2c:	8c5a0f04 	addi	r17,r17,26684



int LOF_WATCHDOG_LIMIT = 500;
void wait_for_FrameSync()
{
   80b30:	dfc00515 	stw	ra,20(sp)
   80b34:	dc000315 	stw	r16,12(sp)
	unsigned int watchdog_timer = 0;

	update_alarms_event_status();
   80b38:	00807a80 	call	807a8 <update_alarms_event_status>
	D(1, BUG("\n\tRCVCLOCK_LOCKED:%d  TEST_ACTIVE:%d  LOF_ACTV:%d  RDI_ACTV:%d  BERT_INSYNC:%d\n",RCVCLOCK_LOCKED, TEST_ACTIVE, LOF_ACTIVE, RDI_ACTIVE, BERT_INSYNC));
   80b3c:	89800003 	ldbu	r6,0(r17)
   80b40:	010002f4 	movhi	r4,11
   80b44:	21300904 	addi	r4,r4,-16348
   80b48:	300ed0ba 	srli	r7,r6,2
   80b4c:	3004d0fa 	srli	r2,r6,3
   80b50:	300ad07a 	srli	r5,r6,1
   80b54:	3006d13a 	srli	r3,r6,4
   80b58:	39c0005c 	xori	r7,r7,1
   80b5c:	1080005c 	xori	r2,r2,1
   80b60:	18c0004c 	andi	r3,r3,1
   80b64:	1080004c 	andi	r2,r2,1
   80b68:	2940004c 	andi	r5,r5,1
   80b6c:	3180004c 	andi	r6,r6,1
   80b70:	39c0004c 	andi	r7,r7,1
   80b74:	d8c00115 	stw	r3,4(sp)
   80b78:	d8800015 	stw	r2,0(sp)
   80b7c:	009c0e00 	call	9c0e0 <printf>
	//while ((status_reg & LOF_STATUS_MASK) != (LOF_INACTIVE << LOF_STATUS_OFS)) {
	while (LOF_ACTIVE) { //while LOF is Active ( == 0x04)
   80b80:	88c00003 	ldbu	r3,0(r17)
   80b84:	18c0010c 	andi	r3,r3,4
   80b88:	1800371e 	bne	r3,zero,80c68 <wait_for_FrameSync+0x148>
		if (watchdog_timer >= LOF_WATCHDOG_LIMIT) {
   80b8c:	d0a00117 	ldw	r2,-32764(gp)
   80b90:	10003726 	beq	r2,zero,80c70 <wait_for_FrameSync+0x150>
			}
		OSTimeDlyHMSM(0, 0, 0, 10);  //wait 10mS
		watchdog_timer++;
		update_alarms_event_status();
		}
	if(LOF_ACTIVE){
   80b94:	0021883a 	mov	r16,zero
   80b98:	00000206 	br	80ba4 <wait_for_FrameSync+0x84>

	update_alarms_event_status();
	D(1, BUG("\n\tRCVCLOCK_LOCKED:%d  TEST_ACTIVE:%d  LOF_ACTV:%d  RDI_ACTV:%d  BERT_INSYNC:%d\n",RCVCLOCK_LOCKED, TEST_ACTIVE, LOF_ACTIVE, RDI_ACTIVE, BERT_INSYNC));
	//while ((status_reg & LOF_STATUS_MASK) != (LOF_INACTIVE << LOF_STATUS_OFS)) {
	while (LOF_ACTIVE) { //while LOF is Active ( == 0x04)
		if (watchdog_timer >= LOF_WATCHDOG_LIMIT) {
   80b9c:	d0a00117 	ldw	r2,-32764(gp)
   80ba0:	8080242e 	bgeu	r16,r2,80c34 <wait_for_FrameSync+0x114>
			D(1, BUG("\n\t	FRAME SYNC TIMEOUT"));
			break;
			}
		OSTimeDlyHMSM(0, 0, 0, 10);  //wait 10mS
   80ba4:	0009883a 	mov	r4,zero
   80ba8:	000b883a 	mov	r5,zero
   80bac:	000d883a 	mov	r6,zero
   80bb0:	01c00284 	movi	r7,10
   80bb4:	00a99a80 	call	a99a8 <OSTimeDlyHMSM>
		watchdog_timer++;
		update_alarms_event_status();
   80bb8:	00807a80 	call	807a8 <update_alarms_event_status>
	unsigned int watchdog_timer = 0;

	update_alarms_event_status();
	D(1, BUG("\n\tRCVCLOCK_LOCKED:%d  TEST_ACTIVE:%d  LOF_ACTV:%d  RDI_ACTV:%d  BERT_INSYNC:%d\n",RCVCLOCK_LOCKED, TEST_ACTIVE, LOF_ACTIVE, RDI_ACTIVE, BERT_INSYNC));
	//while ((status_reg & LOF_STATUS_MASK) != (LOF_INACTIVE << LOF_STATUS_OFS)) {
	while (LOF_ACTIVE) { //while LOF is Active ( == 0x04)
   80bbc:	88800003 	ldbu	r2,0(r17)
		if (watchdog_timer >= LOF_WATCHDOG_LIMIT) {
			D(1, BUG("\n\t	FRAME SYNC TIMEOUT"));
			break;
			}
		OSTimeDlyHMSM(0, 0, 0, 10);  //wait 10mS
		watchdog_timer++;
   80bc0:	84000044 	addi	r16,r16,1
	unsigned int watchdog_timer = 0;

	update_alarms_event_status();
	D(1, BUG("\n\tRCVCLOCK_LOCKED:%d  TEST_ACTIVE:%d  LOF_ACTV:%d  RDI_ACTV:%d  BERT_INSYNC:%d\n",RCVCLOCK_LOCKED, TEST_ACTIVE, LOF_ACTIVE, RDI_ACTIVE, BERT_INSYNC));
	//while ((status_reg & LOF_STATUS_MASK) != (LOF_INACTIVE << LOF_STATUS_OFS)) {
	while (LOF_ACTIVE) { //while LOF is Active ( == 0x04)
   80bc4:	1080010c 	andi	r2,r2,4
   80bc8:	103ff426 	beq	r2,zero,80b9c <wait_for_FrameSync+0x7c>
   80bcc:	814002a4 	muli	r5,r16,10
		}
	if(LOF_ACTIVE){
		D(1, BUG("\n\t	CANNOT FRAME SYNC!  (in %d mS)",watchdog_timer*10));
		}
	else{
		D(1, BUG("\n\t	FRAME SYNC Obtained!  (in %d mS)",watchdog_timer*10));
   80bd0:	010002f4 	movhi	r4,11
   80bd4:	2130ab04 	addi	r4,r4,-15700
   80bd8:	009c0e00 	call	9c0e0 <printf>
		}
	D(1, BUG("\n\tRCVCLOCK_LOCKED:%d  TEST_ACTIVE:%d  LOF_ACTV:%d  RDI_ACTV:%d  BERT_INSYNC:%d\n",RCVCLOCK_LOCKED, TEST_ACTIVE, LOF_ACTIVE, RDI_ACTIVE, BERT_INSYNC));
   80bdc:	89800003 	ldbu	r6,0(r17)
   80be0:	010002f4 	movhi	r4,11
   80be4:	21300904 	addi	r4,r4,-16348
   80be8:	300ed0ba 	srli	r7,r6,2
   80bec:	3004d0fa 	srli	r2,r6,3
   80bf0:	300ad07a 	srli	r5,r6,1
   80bf4:	3006d13a 	srli	r3,r6,4
   80bf8:	39c0005c 	xori	r7,r7,1
   80bfc:	1080005c 	xori	r2,r2,1
   80c00:	18c0004c 	andi	r3,r3,1
   80c04:	1080004c 	andi	r2,r2,1
   80c08:	2940004c 	andi	r5,r5,1
   80c0c:	3180004c 	andi	r6,r6,1
   80c10:	39c0004c 	andi	r7,r7,1
   80c14:	d8800015 	stw	r2,0(sp)
   80c18:	d8c00115 	stw	r3,4(sp)
   80c1c:	009c0e00 	call	9c0e0 <printf>
}
   80c20:	dfc00517 	ldw	ra,20(sp)
   80c24:	dc400417 	ldw	r17,16(sp)
   80c28:	dc000317 	ldw	r16,12(sp)
   80c2c:	dec00604 	addi	sp,sp,24
   80c30:	f800283a 	ret

	update_alarms_event_status();
	D(1, BUG("\n\tRCVCLOCK_LOCKED:%d  TEST_ACTIVE:%d  LOF_ACTV:%d  RDI_ACTV:%d  BERT_INSYNC:%d\n",RCVCLOCK_LOCKED, TEST_ACTIVE, LOF_ACTIVE, RDI_ACTIVE, BERT_INSYNC));
	//while ((status_reg & LOF_STATUS_MASK) != (LOF_INACTIVE << LOF_STATUS_OFS)) {
	while (LOF_ACTIVE) { //while LOF is Active ( == 0x04)
		if (watchdog_timer >= LOF_WATCHDOG_LIMIT) {
   80c34:	814002a4 	muli	r5,r16,10
			D(1, BUG("\n\t	FRAME SYNC TIMEOUT"));
   80c38:	010002f4 	movhi	r4,11
   80c3c:	21309c04 	addi	r4,r4,-15760
   80c40:	d9400215 	stw	r5,8(sp)
   80c44:	009c0e00 	call	9c0e0 <printf>
			}
		OSTimeDlyHMSM(0, 0, 0, 10);  //wait 10mS
		watchdog_timer++;
		update_alarms_event_status();
		}
	if(LOF_ACTIVE){
   80c48:	88c00003 	ldbu	r3,0(r17)
   80c4c:	d9400217 	ldw	r5,8(sp)
   80c50:	18c0010c 	andi	r3,r3,4
   80c54:	183fde1e 	bne	r3,zero,80bd0 <wait_for_FrameSync+0xb0>
		D(1, BUG("\n\t	CANNOT FRAME SYNC!  (in %d mS)",watchdog_timer*10));
   80c58:	010002f4 	movhi	r4,11
   80c5c:	2130a204 	addi	r4,r4,-15736
   80c60:	009c0e00 	call	9c0e0 <printf>
   80c64:	003fdd06 	br	80bdc <wait_for_FrameSync+0xbc>
		}
	else{
		D(1, BUG("\n\t	FRAME SYNC Obtained!  (in %d mS)",watchdog_timer*10));
		}
	D(1, BUG("\n\tRCVCLOCK_LOCKED:%d  TEST_ACTIVE:%d  LOF_ACTV:%d  RDI_ACTV:%d  BERT_INSYNC:%d\n",RCVCLOCK_LOCKED, TEST_ACTIVE, LOF_ACTIVE, RDI_ACTIVE, BERT_INSYNC));
}
   80c68:	000b883a 	mov	r5,zero
   80c6c:	003fd806 	br	80bd0 <wait_for_FrameSync+0xb0>

	update_alarms_event_status();
	D(1, BUG("\n\tRCVCLOCK_LOCKED:%d  TEST_ACTIVE:%d  LOF_ACTV:%d  RDI_ACTV:%d  BERT_INSYNC:%d\n",RCVCLOCK_LOCKED, TEST_ACTIVE, LOF_ACTIVE, RDI_ACTIVE, BERT_INSYNC));
	//while ((status_reg & LOF_STATUS_MASK) != (LOF_INACTIVE << LOF_STATUS_OFS)) {
	while (LOF_ACTIVE) { //while LOF is Active ( == 0x04)
		if (watchdog_timer >= LOF_WATCHDOG_LIMIT) {
   80c70:	000b883a 	mov	r5,zero
   80c74:	003ff006 	br	80c38 <wait_for_FrameSync+0x118>

00080c78 <gate_C3794_blocks>:
	PIO3_Content |= RESET_C3794_mask;
	IOWR_ALTERA_AVALON_PIO_DATA(PIO_3IO_BASE, PIO3_Content);
}
void gate_C3794_blocks()
{
	PIO3_Content = IORD_ALTERA_AVALON_PIO_DATA(PIO_3IO_BASE);
   80c78:	0086d804 	movi	r2,7008
   80c7c:	10c00037 	ldwio	r3,0(r2)
	PIO3_Content &= RESET_C3794_mask;
   80c80:	010002f4 	movhi	r4,11
   80c84:	21190a04 	addi	r4,r4,25640
   80c88:	18c0008c 	andi	r3,r3,2
   80c8c:	20c0000d 	sth	r3,0(r4)
	IOWR_ALTERA_AVALON_PIO_DATA(PIO_3IO_BASE, PIO3_Content);
   80c90:	10c00035 	stwio	r3,0(r2)
}
   80c94:	f800283a 	ret

00080c98 <reset_C3794_blocks>:

/// TODO
//_________________________________________________________________________________
void reset_C3794_blocks()
{
	C3794_State = 0;	//C37.94 Logic NOT Available - Do NOT R/W or lock-up will occur
   80c98:	00c002f4 	movhi	r3,11
   80c9c:	18da0ec4 	addi	r3,r3,26683
	PIO3_Content = IORD_ALTERA_AVALON_PIO_DATA(PIO_3IO_BASE);
   80ca0:	0146d804 	movi	r5,7008

/// TODO
//_________________________________________________________________________________
void reset_C3794_blocks()
{
	C3794_State = 0;	//C37.94 Logic NOT Available - Do NOT R/W or lock-up will occur
   80ca4:	18000005 	stb	zero,0(r3)
	PIO3_Content = IORD_ALTERA_AVALON_PIO_DATA(PIO_3IO_BASE);
   80ca8:	28800037 	ldwio	r2,0(r5)
	PIO3_Content |= RESET_C3794_mask;
   80cac:	00c002f4 	movhi	r3,11
   80cb0:	18d90a04 	addi	r3,r3,25640
   80cb4:	10800094 	ori	r2,r2,2
	IOWR_ALTERA_AVALON_PIO_DATA(PIO_3IO_BASE, PIO3_Content);
   80cb8:	113fffcc 	andi	r4,r2,65535
//_________________________________________________________________________________
void reset_C3794_blocks()
{
	C3794_State = 0;	//C37.94 Logic NOT Available - Do NOT R/W or lock-up will occur
	PIO3_Content = IORD_ALTERA_AVALON_PIO_DATA(PIO_3IO_BASE);
	PIO3_Content |= RESET_C3794_mask;
   80cbc:	1880000d 	sth	r2,0(r3)
	IOWR_ALTERA_AVALON_PIO_DATA(PIO_3IO_BASE, PIO3_Content);
   80cc0:	29000035 	stwio	r4,0(r5)
}
   80cc4:	f800283a 	ret

00080cc8 <clear_C3794_counters>:
	temp = IORD_32DIRECT(TOP_C37DOT94_0_BASE, ADDR_NUM_FRAMES_TX);
	D(1, BUG("\tINFO: C3794 FRAMES_TX'D: %d	FRAMES_RX'D: %d \n", temp, IORD_32DIRECT(TOP_C37DOT94_0_BASE, ADDR_NUM_FRAMES_RX)));
}
void clear_C3794_counters()
{
	IOWR_32DIRECT(TOP_C37DOT94_0_BASE, ADDR_LOF_DETECT_CNT, 0);
   80cc8:	00871004 	movi	r2,7232
   80ccc:	10000035 	stwio	zero,0(r2)
	IOWR_32DIRECT(TOP_C37DOT94_0_BASE, ADDR_LOF_NUMFRMS_ACTIVE, 0);
   80cd0:	00c71104 	movi	r3,7236
   80cd4:	18000035 	stwio	zero,0(r3)
	IOWR_32DIRECT(TOP_C37DOT94_0_BASE, ADDR_RDI_DETECT_CNT, 0);
   80cd8:	00871204 	movi	r2,7240
   80cdc:	10000035 	stwio	zero,0(r2)
	IOWR_32DIRECT(TOP_C37DOT94_0_BASE, ADDR_RDI_NUMFRMS_ACTIVE, 0);
   80ce0:	00c71304 	movi	r3,7244
   80ce4:	18000035 	stwio	zero,0(r3)
	IOWR_32DIRECT(TOP_C37DOT94_0_BASE, ADDR_NUM_FRAMES_RX, 0);
   80ce8:	00871404 	movi	r2,7248
   80cec:	10000035 	stwio	zero,0(r2)
	IOWR_32DIRECT(TOP_C37DOT94_0_BASE, ADDR_NUM_FRAMES_TX, 0);
   80cf0:	00c71504 	movi	r3,7252
   80cf4:	18000035 	stwio	zero,0(r3)
}
   80cf8:	f800283a 	ret

00080cfc <set_RCV_N_CHANNELS>:
	IOWR_32DIRECT(TOP_C37DOT94_0_BASE, ADDR_XMT_N_CHANNELS, value);
	D(1, BUG("\n\t XMT N channels set to %d\n", value));
}

void set_RCV_N_CHANNELS(unsigned char value) {
	IOWR_32DIRECT(TOP_C37DOT94_0_BASE, ADDR_RCV_N_CHANNELS, value);
   80cfc:	21403fcc 	andi	r5,r4,255
   80d00:	00870204 	movi	r2,7176
   80d04:	11400035 	stwio	r5,0(r2)
	D(1, BUG("\n\t RCV N channels set to %d\n", value));
   80d08:	010002f4 	movhi	r4,11
   80d0c:	2130b404 	addi	r4,r4,-15664
   80d10:	009c0e01 	jmpi	9c0e0 <printf>

00080d14 <set_XMT_N_CHANNELS>:
void set_IDLE_code(unsigned char value) {
	IOWR_32DIRECT(TOP_C37DOT94_0_BASE, ADDR_IDLE_CODE, value);
}

void set_XMT_N_CHANNELS(unsigned char value) {
	IOWR_32DIRECT(TOP_C37DOT94_0_BASE, ADDR_XMT_N_CHANNELS, value);
   80d14:	21403fcc 	andi	r5,r4,255
   80d18:	00870104 	movi	r2,7172
   80d1c:	11400035 	stwio	r5,0(r2)
	D(1, BUG("\n\t XMT N channels set to %d\n", value));
   80d20:	010002f4 	movhi	r4,11
   80d24:	2130bc04 	addi	r4,r4,-15632
   80d28:	009c0e01 	jmpi	9c0e0 <printf>

00080d2c <set_IDLE_code>:
void clear_far_end_loopback()
{
	clear_register_bit(ADDR_DEBUG, DEBUG_FAR_END_LOOPBACK_MASK);
}
void set_IDLE_code(unsigned char value) {
	IOWR_32DIRECT(TOP_C37DOT94_0_BASE, ADDR_IDLE_CODE, value);
   80d2c:	21003fcc 	andi	r4,r4,255
   80d30:	00870904 	movi	r2,7204
   80d34:	11000035 	stwio	r4,0(r2)
}
   80d38:	f800283a 	ret

00080d3c <clear_register_bit>:

void clear_register_bit(unsigned int addr, unsigned int mask)
{
	unsigned int temp_reg;

	temp_reg = IORD_32DIRECT(TOP_C37DOT94_0_BASE, addr);
   80d3c:	21070004 	addi	r4,r4,7168
   80d40:	20800037 	ldwio	r2,0(r4)
	temp_reg &= ~mask;
	IOWR_32DIRECT(TOP_C37DOT94_0_BASE, addr, temp_reg);
   80d44:	014a303a 	nor	r5,zero,r5
   80d48:	1144703a 	and	r2,r2,r5
   80d4c:	20800035 	stwio	r2,0(r4)
}
   80d50:	f800283a 	ret

00080d54 <clear_far_end_loopback>:
{
	set_register_bit(ADDR_DEBUG, DEBUG_FAR_END_LOOPBACK_MASK);
}
void clear_far_end_loopback()
{
	clear_register_bit(ADDR_DEBUG, DEBUG_FAR_END_LOOPBACK_MASK);
   80d54:	01000804 	movi	r4,32
   80d58:	01400104 	movi	r5,4
   80d5c:	0080d3c1 	jmpi	80d3c <clear_register_bit>

00080d60 <clear_internal_loopback>:
{
	set_register_bit(ADDR_DEBUG, DEBUG_LOOPBACK_MASK);
}
void clear_internal_loopback()
{
	clear_register_bit(ADDR_DEBUG, DEBUG_LOOPBACK_MASK);
   80d60:	01000804 	movi	r4,32
   80d64:	01400044 	movi	r5,1
   80d68:	0080d3c1 	jmpi	80d3c <clear_register_bit>

00080d6c <set_register_bit>:

void set_register_bit(unsigned int addr, unsigned int mask)
{
	unsigned int temp_reg;

	temp_reg = IORD_32DIRECT(TOP_C37DOT94_0_BASE, addr);
   80d6c:	21070004 	addi	r4,r4,7168
   80d70:	20800037 	ldwio	r2,0(r4)
	temp_reg |= mask;
	IOWR_32DIRECT(TOP_C37DOT94_0_BASE, addr, temp_reg);
   80d74:	1144b03a 	or	r2,r2,r5
   80d78:	20800035 	stwio	r2,0(r4)
}
   80d7c:	f800283a 	ret

00080d80 <set_far_end_loopback>:
{
	clear_register_bit(ADDR_DEBUG, DEBUG_LOOPBACK_MASK);
}
void set_far_end_loopback()
{
	set_register_bit(ADDR_DEBUG, DEBUG_FAR_END_LOOPBACK_MASK);
   80d80:	01000804 	movi	r4,32
   80d84:	01400104 	movi	r5,4
   80d88:	0080d6c1 	jmpi	80d6c <set_register_bit>

00080d8c <set_internal_loopback>:
}


void set_internal_loopback()
{
	set_register_bit(ADDR_DEBUG, DEBUG_LOOPBACK_MASK);
   80d8c:	01000804 	movi	r4,32
   80d90:	01400044 	movi	r5,1
   80d94:	0080d6c1 	jmpi	80d6c <set_register_bit>

00080d98 <transition_register_bit>:

void transition_register_bit(unsigned int addr, unsigned int mask)
{
	unsigned int temp_reg;

	temp_reg = IORD_32DIRECT(TOP_C37DOT94_0_BASE, addr);
   80d98:	21070004 	addi	r4,r4,7168
   80d9c:	20800037 	ldwio	r2,0(r4)
	temp_reg &= ~mask;
   80da0:	0146303a 	nor	r3,zero,r5
   80da4:	10c4703a 	and	r2,r2,r3
	IOWR_32DIRECT(TOP_C37DOT94_0_BASE, addr, temp_reg);
   80da8:	20800035 	stwio	r2,0(r4)
	temp_reg |= mask;
	IOWR_32DIRECT(TOP_C37DOT94_0_BASE, addr, temp_reg);
   80dac:	288ab03a 	or	r5,r5,r2
   80db0:	21400035 	stwio	r5,0(r4)
}
   80db4:	f800283a 	ret

00080db8 <write_ppm_offset>:
	IOWR_ALTERA_AVALON_PIO_DATA(PIO_3IO_BASE, PIO3_Content);
}
// Clock must be written to start 131MHz Clock and allow C37.94 functions
// (C3794_Status&0x80) must be TRUE before any C37.94 logical write.
void write_ppm_offset(signed short ppm_value)
{
   80db8:	defffd04 	addi	sp,sp,-12
   80dbc:	dc800115 	stw	r18,4(sp)
	reset_C3794_blocks();							//Ensure C37.94 is off-line

	CLKCTRL_register &= ~CLKCTRL_REG_PPM_MASK;		//clear PPM value
   80dc0:	048002f4 	movhi	r18,11
   80dc4:	949a1104 	addi	r18,r18,26692
	IOWR_ALTERA_AVALON_PIO_DATA(PIO_3IO_BASE, PIO3_Content);
}
// Clock must be written to start 131MHz Clock and allow C37.94 functions
// (C3794_Status&0x80) must be TRUE before any C37.94 logical write.
void write_ppm_offset(signed short ppm_value)
{
   80dc8:	dfc00215 	stw	ra,8(sp)
   80dcc:	dc400015 	stw	r17,0(sp)
   80dd0:	2023883a 	mov	r17,r4
	reset_C3794_blocks();							//Ensure C37.94 is off-line
   80dd4:	0080c980 	call	80c98 <reset_C3794_blocks>

	CLKCTRL_register &= ~CLKCTRL_REG_PPM_MASK;		//clear PPM value
   80dd8:	90c00017 	ldw	r3,0(r18)
   80ddc:	00bf8004 	movi	r2,-512
	D(1, BUG("\nC37.94 new ppm value: %d (%0X)\n", ppm_value, ppm_value&CLKCTRL_REG_PPM_MASK));
   80de0:	897fffcc 	andi	r5,r17,65535
// (C3794_Status&0x80) must be TRUE before any C37.94 logical write.
void write_ppm_offset(signed short ppm_value)
{
	reset_C3794_blocks();							//Ensure C37.94 is off-line

	CLKCTRL_register &= ~CLKCTRL_REG_PPM_MASK;		//clear PPM value
   80de4:	1886703a 	and	r3,r3,r2
	D(1, BUG("\nC37.94 new ppm value: %d (%0X)\n", ppm_value, ppm_value&CLKCTRL_REG_PPM_MASK));
   80de8:	2960001c 	xori	r5,r5,32768
   80dec:	89807fcc 	andi	r6,r17,511
// (C3794_Status&0x80) must be TRUE before any C37.94 logical write.
void write_ppm_offset(signed short ppm_value)
{
	reset_C3794_blocks();							//Ensure C37.94 is off-line

	CLKCTRL_register &= ~CLKCTRL_REG_PPM_MASK;		//clear PPM value
   80df0:	90c00015 	stw	r3,0(r18)
	D(1, BUG("\nC37.94 new ppm value: %d (%0X)\n", ppm_value, ppm_value&CLKCTRL_REG_PPM_MASK));
   80df4:	010002f4 	movhi	r4,11
   80df8:	2130c404 	addi	r4,r4,-15600
   80dfc:	29600004 	addi	r5,r5,-32768
   80e00:	009c0e00 	call	9c0e0 <printf>
	ppm_value &= CLKCTRL_REG_PPM_MASK;				// mask off unused bits
	CLKCTRL_register |= ppm_value;					// update Register settings with new ppm value
   80e04:	90c00017 	ldw	r3,0(r18)
   80e08:	8c407fcc 	andi	r17,r17,511
	//IOWR_32DIRECT(CLKCTRL_BASE, CLKCTRL_REG, CLKCTRL_register);
	IOWR_32DIRECT(CLKCTRL_BASE, CLKCTRL_REG, CLKCTRL_register | CLKCTRL_REG_STROBE_MASK); // strobe to latch in new ppm
   80e0c:	00800634 	movhi	r2,24
   80e10:	10900004 	addi	r2,r2,16384
	reset_C3794_blocks();							//Ensure C37.94 is off-line

	CLKCTRL_register &= ~CLKCTRL_REG_PPM_MASK;		//clear PPM value
	D(1, BUG("\nC37.94 new ppm value: %d (%0X)\n", ppm_value, ppm_value&CLKCTRL_REG_PPM_MASK));
	ppm_value &= CLKCTRL_REG_PPM_MASK;				// mask off unused bits
	CLKCTRL_register |= ppm_value;					// update Register settings with new ppm value
   80e14:	88e2b03a 	or	r17,r17,r3
	//IOWR_32DIRECT(CLKCTRL_BASE, CLKCTRL_REG, CLKCTRL_register);
	IOWR_32DIRECT(CLKCTRL_BASE, CLKCTRL_REG, CLKCTRL_register | CLKCTRL_REG_STROBE_MASK); // strobe to latch in new ppm
   80e18:	89200014 	ori	r4,r17,32768
	reset_C3794_blocks();							//Ensure C37.94 is off-line

	CLKCTRL_register &= ~CLKCTRL_REG_PPM_MASK;		//clear PPM value
	D(1, BUG("\nC37.94 new ppm value: %d (%0X)\n", ppm_value, ppm_value&CLKCTRL_REG_PPM_MASK));
	ppm_value &= CLKCTRL_REG_PPM_MASK;				// mask off unused bits
	CLKCTRL_register |= ppm_value;					// update Register settings with new ppm value
   80e1c:	94400015 	stw	r17,0(r18)
	//IOWR_32DIRECT(CLKCTRL_BASE, CLKCTRL_REG, CLKCTRL_register);
	IOWR_32DIRECT(CLKCTRL_BASE, CLKCTRL_REG, CLKCTRL_register | CLKCTRL_REG_STROBE_MASK); // strobe to latch in new ppm
   80e20:	11000035 	stwio	r4,0(r2)

	if(wait_for_C3794_clk() != 0){
   80e24:	00808d40 	call	808d4 <wait_for_C3794_clk>
   80e28:	10803fcc 	andi	r2,r2,255
		//_configure/set C37.94 blocks
		D(1, BUG("C37.94 AVAILABLE!\n"));
		}
	else{
		C3794_State = 0;	//C37.94 Logic NOT Available - Do NOT R/W or lock-up will occur
		D(1, BUG("C37.94 NOT AVAILABLE:  Clock Failed to Start!\n"));
   80e2c:	010002f4 	movhi	r4,11
   80e30:	2130d204 	addi	r4,r4,-15544
	ppm_value &= CLKCTRL_REG_PPM_MASK;				// mask off unused bits
	CLKCTRL_register |= ppm_value;					// update Register settings with new ppm value
	//IOWR_32DIRECT(CLKCTRL_BASE, CLKCTRL_REG, CLKCTRL_register);
	IOWR_32DIRECT(CLKCTRL_BASE, CLKCTRL_REG, CLKCTRL_register | CLKCTRL_REG_STROBE_MASK); // strobe to latch in new ppm

	if(wait_for_C3794_clk() != 0){
   80e34:	10000c26 	beq	r2,zero,80e68 <write_ppm_offset+0xb0>
		gate_C3794_blocks();	// Take C37.94 verilog OUT of reset
   80e38:	0080c780 	call	80c78 <gate_C3794_blocks>
		C3794_State = 0x80;	//C37.94 Logic Available
   80e3c:	00ffe004 	movi	r3,-128
   80e40:	008002f4 	movhi	r2,11
   80e44:	109a0ec4 	addi	r2,r2,26683
		//_configure/set C37.94 blocks
		D(1, BUG("C37.94 AVAILABLE!\n"));
   80e48:	010002f4 	movhi	r4,11
   80e4c:	2130cd04 	addi	r4,r4,-15564
	//IOWR_32DIRECT(CLKCTRL_BASE, CLKCTRL_REG, CLKCTRL_register);
	IOWR_32DIRECT(CLKCTRL_BASE, CLKCTRL_REG, CLKCTRL_register | CLKCTRL_REG_STROBE_MASK); // strobe to latch in new ppm

	if(wait_for_C3794_clk() != 0){
		gate_C3794_blocks();	// Take C37.94 verilog OUT of reset
		C3794_State = 0x80;	//C37.94 Logic Available
   80e50:	10c00005 	stb	r3,0(r2)
		}
	else{
		C3794_State = 0;	//C37.94 Logic NOT Available - Do NOT R/W or lock-up will occur
		D(1, BUG("C37.94 NOT AVAILABLE:  Clock Failed to Start!\n"));
		}
}
   80e54:	dfc00217 	ldw	ra,8(sp)
   80e58:	dc800117 	ldw	r18,4(sp)
   80e5c:	dc400017 	ldw	r17,0(sp)
   80e60:	dec00304 	addi	sp,sp,12
		//_configure/set C37.94 blocks
		D(1, BUG("C37.94 AVAILABLE!\n"));
		}
	else{
		C3794_State = 0;	//C37.94 Logic NOT Available - Do NOT R/W or lock-up will occur
		D(1, BUG("C37.94 NOT AVAILABLE:  Clock Failed to Start!\n"));
   80e64:	009c21c1 	jmpi	9c21c <puts>
		C3794_State = 0x80;	//C37.94 Logic Available
		//_configure/set C37.94 blocks
		D(1, BUG("C37.94 AVAILABLE!\n"));
		}
	else{
		C3794_State = 0;	//C37.94 Logic NOT Available - Do NOT R/W or lock-up will occur
   80e68:	008002f4 	movhi	r2,11
   80e6c:	109a0ec4 	addi	r2,r2,26683
   80e70:	10000005 	stb	zero,0(r2)
		D(1, BUG("C37.94 NOT AVAILABLE:  Clock Failed to Start!\n"));
		}
}
   80e74:	dfc00217 	ldw	ra,8(sp)
   80e78:	dc800117 	ldw	r18,4(sp)
   80e7c:	dc400017 	ldw	r17,0(sp)
   80e80:	dec00304 	addi	sp,sp,12
		//_configure/set C37.94 blocks
		D(1, BUG("C37.94 AVAILABLE!\n"));
		}
	else{
		C3794_State = 0;	//C37.94 Logic NOT Available - Do NOT R/W or lock-up will occur
		D(1, BUG("C37.94 NOT AVAILABLE:  Clock Failed to Start!\n"));
   80e84:	009c21c1 	jmpi	9c21c <puts>

00080e88 <load_RCVD_FRAME>:
	IOWR_32DIRECT(TOP_C37DOT94_0_BASE, ADDR_RCV_N_CHANNELS, value);
	D(1, BUG("\n\t RCV N channels set to %d\n", value));
}

void load_RCVD_FRAME()
{
   80e88:	defffb04 	addi	sp,sp,-20
	unsigned long framedata=0;
	unsigned short i=0;

	transition_register_bit(ADDR_CTL, CTL_RWLB_MASK);	// latch in new frame(s) content
   80e8c:	01000704 	movi	r4,28
   80e90:	01404004 	movi	r5,256
	IOWR_32DIRECT(TOP_C37DOT94_0_BASE, ADDR_RCV_N_CHANNELS, value);
	D(1, BUG("\n\t RCV N channels set to %d\n", value));
}

void load_RCVD_FRAME()
{
   80e94:	dfc00415 	stw	ra,16(sp)
   80e98:	dcc00315 	stw	r19,12(sp)
   80e9c:	dc800215 	stw	r18,8(sp)
   80ea0:	dc400115 	stw	r17,4(sp)
   80ea4:	dc000015 	stw	r16,0(sp)
	unsigned long framedata=0;
	unsigned short i=0;

	transition_register_bit(ADDR_CTL, CTL_RWLB_MASK);	// latch in new frame(s) content
   80ea8:	0080d980 	call	80d98 <transition_register_bit>

	//Wait for FrameWindow Data to be ready: CTL_RWLB_MASK bit clear...
	framedata = IORD_32DIRECT(TOP_C37DOT94_0_BASE, ADDR_CTL);
   80eac:	00c70704 	movi	r3,7196
   80eb0:	18800037 	ldwio	r2,0(r3)
	while((framedata&CTL_RWLB_MASK) != CTL_RWLB_MASK && ++i < 10){ // should be ready in <250uS (512 bits @ 2.048M) - give him 1500uS
   80eb4:	1080400c 	andi	r2,r2,256
   80eb8:	10000e1e 	bne	r2,zero,80ef4 <load_RCVD_FRAME+0x6c>
   80ebc:	1823883a 	mov	r17,r3
   80ec0:	04000044 	movi	r16,1
   80ec4:	04800284 	movi	r18,10
		usleep(150);
   80ec8:	01002584 	movi	r4,150
   80ecc:	00a4d480 	call	a4d48 <usleep>
		framedata = IORD_32DIRECT(TOP_C37DOT94_0_BASE, ADDR_CTL);
   80ed0:	88c00037 	ldwio	r3,0(r17)

	transition_register_bit(ADDR_CTL, CTL_RWLB_MASK);	// latch in new frame(s) content

	//Wait for FrameWindow Data to be ready: CTL_RWLB_MASK bit clear...
	framedata = IORD_32DIRECT(TOP_C37DOT94_0_BASE, ADDR_CTL);
	while((framedata&CTL_RWLB_MASK) != CTL_RWLB_MASK && ++i < 10){ // should be ready in <250uS (512 bits @ 2.048M) - give him 1500uS
   80ed4:	18c0400c 	andi	r3,r3,256
   80ed8:	18002e1e 	bne	r3,zero,80f94 <load_RCVD_FRAME+0x10c>
   80edc:	84000044 	addi	r16,r16,1
   80ee0:	80bfffcc 	andi	r2,r16,65535
   80ee4:	14bff81e 	bne	r2,r18,80ec8 <load_RCVD_FRAME+0x40>
		usleep(150);
		framedata = IORD_32DIRECT(TOP_C37DOT94_0_BASE, ADDR_CTL);
		}
	if(i==10){
		D(1, BUG("\nReceived Frame Window TIMEOUT:  Not ready in 1.5mS!!"));
   80ee8:	010002f4 	movhi	r4,11
   80eec:	2130de04 	addi	r4,r4,-15496
   80ef0:	009c0e00 	call	9c0e0 <printf>
		}

	//HDR1_ptr +0-31  (32 total bytes)
	D(1, BUG("\nReceived Frame1 Content: "));
   80ef4:	010002f4 	movhi	r4,11
   80ef8:	2130ec04 	addi	r4,r4,-15440
   80efc:	009c0e00 	call	9c0e0 <printf>
   80f00:	04474004 	movi	r17,7424
   80f04:	048026c4 	movi	r18,155
   80f08:	04c74204 	movi	r19,7432
	for(i=0;i<8;i++){
		//SaveBytesLong(ConfigStatC37, HDR1_ptr+(i*4), IORD_32DIRECT(TOP_C37DOT94_0_BASE, ADDR_RCV_WINDOW_BASE+i));
		framedata = IORD_32DIRECT(TOP_C37DOT94_0_BASE, ADDR_RCV_WINDOW_BASE+i);
   80f0c:	8c000037 	ldwio	r16,0(r17)
		D(1, BUG("%0lX ", framedata));
   80f10:	010002f4 	movhi	r4,11
   80f14:	2130f304 	addi	r4,r4,-15412
   80f18:	800b883a 	mov	r5,r16
   80f1c:	009c0e00 	call	9c0e0 <printf>
		SaveBytesLong(ConfigStatC37, HDR1_ptr+(i*4), IORD_32DIRECT(TOP_C37DOT94_0_BASE, framedata));
   80f20:	81870037 	ldwio	r6,7168(r16)
   80f24:	01000334 	movhi	r4,12
   80f28:	21300204 	addi	r4,r4,-16376
   80f2c:	900b883a 	mov	r5,r18
   80f30:	8c400044 	addi	r17,r17,1
   80f34:	00894800 	call	89480 <SaveBytesLong>
   80f38:	94800104 	addi	r18,r18,4
		D(1, BUG("\nReceived Frame Window TIMEOUT:  Not ready in 1.5mS!!"));
		}

	//HDR1_ptr +0-31  (32 total bytes)
	D(1, BUG("\nReceived Frame1 Content: "));
	for(i=0;i<8;i++){
   80f3c:	8cfff31e 	bne	r17,r19,80f0c <load_RCVD_FRAME+0x84>
		framedata = IORD_32DIRECT(TOP_C37DOT94_0_BASE, ADDR_RCV_WINDOW_BASE+i);
		D(1, BUG("%0lX ", framedata));
		SaveBytesLong(ConfigStatC37, HDR1_ptr+(i*4), IORD_32DIRECT(TOP_C37DOT94_0_BASE, framedata));
		}

	get_BERT_rcv_pattern();	//Check BERT PRR register as well to confirm it matches (somewhat) the content seen in the Frame (it should)
   80f40:	008140c0 	call	8140c <get_BERT_rcv_pattern>

	//Eyeball Second Frame for debugging
	D(1, BUG("\nReceived Frame2 Content: "));
   80f44:	010002f4 	movhi	r4,11
   80f48:	2130f504 	addi	r4,r4,-15404
   80f4c:	009c0e00 	call	9c0e0 <printf>
   80f50:	04074204 	movi	r16,7432
   80f54:	04474404 	movi	r17,7440
	for(i=8;i<16;i++){
		framedata = IORD_32DIRECT(TOP_C37DOT94_0_BASE, ADDR_RCV_WINDOW_BASE+i);
   80f58:	81400037 	ldwio	r5,0(r16)
		D(1, BUG("%0lX ", framedata));
   80f5c:	010002f4 	movhi	r4,11
   80f60:	2130f304 	addi	r4,r4,-15412
   80f64:	84000044 	addi	r16,r16,1
   80f68:	009c0e00 	call	9c0e0 <printf>

	get_BERT_rcv_pattern();	//Check BERT PRR register as well to confirm it matches (somewhat) the content seen in the Frame (it should)

	//Eyeball Second Frame for debugging
	D(1, BUG("\nReceived Frame2 Content: "));
	for(i=8;i<16;i++){
   80f6c:	847ffa1e 	bne	r16,r17,80f58 <load_RCVD_FRAME+0xd0>
		framedata = IORD_32DIRECT(TOP_C37DOT94_0_BASE, ADDR_RCV_WINDOW_BASE+i);
		D(1, BUG("%0lX ", framedata));
		}
	D(1, BUG("\n"));
   80f70:	01000284 	movi	r4,10
   80f74:	009c1580 	call	9c158 <putchar>

	get_BERT_rcv_pattern();

}
   80f78:	dfc00417 	ldw	ra,16(sp)
   80f7c:	dcc00317 	ldw	r19,12(sp)
   80f80:	dc800217 	ldw	r18,8(sp)
   80f84:	dc400117 	ldw	r17,4(sp)
   80f88:	dc000017 	ldw	r16,0(sp)
   80f8c:	dec00504 	addi	sp,sp,20
		framedata = IORD_32DIRECT(TOP_C37DOT94_0_BASE, ADDR_RCV_WINDOW_BASE+i);
		D(1, BUG("%0lX ", framedata));
		}
	D(1, BUG("\n"));

	get_BERT_rcv_pattern();
   80f90:	008140c1 	jmpi	8140c <get_BERT_rcv_pattern>
	framedata = IORD_32DIRECT(TOP_C37DOT94_0_BASE, ADDR_CTL);
	while((framedata&CTL_RWLB_MASK) != CTL_RWLB_MASK && ++i < 10){ // should be ready in <250uS (512 bits @ 2.048M) - give him 1500uS
		usleep(150);
		framedata = IORD_32DIRECT(TOP_C37DOT94_0_BASE, ADDR_CTL);
		}
	if(i==10){
   80f94:	80bfffcc 	andi	r2,r16,65535
   80f98:	14bfd61e 	bne	r2,r18,80ef4 <load_RCVD_FRAME+0x6c>
   80f9c:	003fd206 	br	80ee8 <load_RCVD_FRAME+0x60>

00080fa0 <init_c37dot94>:
	RxBuffer[msg_element] = value;
	config_c37_hw();	// call confg_hw to execute command
}

void init_c37dot94()
{
   80fa0:	defffe04 	addi	sp,sp,-8
   80fa4:	dc000015 	stw	r16,0(sp)
   80fa8:	dfc00115 	stw	ra,4(sp)
	ConfigStatC37[C37config_ptr] = 0;
   80fac:	04000334 	movhi	r16,12
   80fb0:	84300204 	addi	r16,r16,-16376
	ConfigStatC37[ID_ptr] = Packet_C3794;
   80fb4:	00801004 	movi	r2,64
	ConfigStatC37[TEST_ptr] = 0;
	ConfigStatC37[AUTO_ptr] = 0;
	ConfigStatC37[MODE_ptr] = 0;
	ConfigStatC37[CLOCK_ptr] = 0;		// 0=rcvrd
	SaveBytesInt(ConfigStatC37,CLK_PPM1_ptr,0);
   80fb8:	8009883a 	mov	r4,r16
}

void init_c37dot94()
{
	ConfigStatC37[C37config_ptr] = 0;
	ConfigStatC37[ID_ptr] = Packet_C3794;
   80fbc:	80800045 	stb	r2,1(r16)
	ConfigStatC37[TEST_ptr] = 0;
	ConfigStatC37[AUTO_ptr] = 0;
	ConfigStatC37[MODE_ptr] = 0;
	ConfigStatC37[CLOCK_ptr] = 0;		// 0=rcvrd
	SaveBytesInt(ConfigStatC37,CLK_PPM1_ptr,0);
   80fc0:	01400184 	movi	r5,6
   80fc4:	000d883a 	mov	r6,zero
	config_c37_hw();	// call confg_hw to execute command
}

void init_c37dot94()
{
	ConfigStatC37[C37config_ptr] = 0;
   80fc8:	80000005 	stb	zero,0(r16)
	ConfigStatC37[ID_ptr] = Packet_C3794;
	ConfigStatC37[TEST_ptr] = 0;
   80fcc:	80000085 	stb	zero,2(r16)
	ConfigStatC37[AUTO_ptr] = 0;
   80fd0:	800000c5 	stb	zero,3(r16)
	ConfigStatC37[MODE_ptr] = 0;
   80fd4:	80000105 	stb	zero,4(r16)
	ConfigStatC37[CLOCK_ptr] = 0;		// 0=rcvrd
   80fd8:	80000145 	stb	zero,5(r16)
	SaveBytesInt(ConfigStatC37,CLK_PPM1_ptr,0);
   80fdc:	00894a80 	call	894a8 <SaveBytesInt>
	ConfigStatC37[CLK_SPR_ptr] = 0;

	ConfigStatC37[TX_CHANS_ptr] = 1;
   80fe0:	00c00044 	movi	r3,1
	ConfigStatC37[BERTC37_ptr] = 0;
	ConfigStatC37[CLEARC37_ptr] = 0;
	ConfigStatC37[MISCC37_ptr] = 0;	// no insert, no invert
	ConfigStatC37[BER_ptr] = 0;

	ConfigStatC37[UserSize_ptr] = 8;
   80fe4:	00800204 	movi	r2,8
	SaveBytesLong(ConfigStatC37,USER3_ptr,0);
   80fe8:	8009883a 	mov	r4,r16
   80fec:	01400484 	movi	r5,18
   80ff0:	000d883a 	mov	r6,zero
	ConfigStatC37[CLOCK_ptr] = 0;		// 0=rcvrd
	SaveBytesInt(ConfigStatC37,CLK_PPM1_ptr,0);
	ConfigStatC37[CLK_SPR_ptr] = 0;

	ConfigStatC37[TX_CHANS_ptr] = 1;
	ConfigStatC37[RX_CHANS_ptr] = 1;
   80ff4:	80c00285 	stb	r3,10(r16)
	ConfigStatC37[BERTC37_ptr] = 0;
	ConfigStatC37[CLEARC37_ptr] = 0;
	ConfigStatC37[MISCC37_ptr] = 0;	// no insert, no invert
	ConfigStatC37[BER_ptr] = 0;

	ConfigStatC37[UserSize_ptr] = 8;
   80ff8:	80800445 	stb	r2,17(r16)
	ConfigStatC37[TEST_ptr] = 0;
	ConfigStatC37[AUTO_ptr] = 0;
	ConfigStatC37[MODE_ptr] = 0;
	ConfigStatC37[CLOCK_ptr] = 0;		// 0=rcvrd
	SaveBytesInt(ConfigStatC37,CLK_PPM1_ptr,0);
	ConfigStatC37[CLK_SPR_ptr] = 0;
   80ffc:	80000205 	stb	zero,8(r16)

	ConfigStatC37[TX_CHANS_ptr] = 1;
   81000:	80c00245 	stb	r3,9(r16)
	ConfigStatC37[RX_CHANS_ptr] = 1;
	ConfigStatC37[OVH_errors_ptr] = 0;
   81004:	800002c5 	stb	zero,11(r16)
	ConfigStatC37[Lpbk_ptr] = 0;
   81008:	80000305 	stb	zero,12(r16)
	ConfigStatC37[BERTC37_ptr] = 0;
   8100c:	80000345 	stb	zero,13(r16)
	ConfigStatC37[CLEARC37_ptr] = 0;
   81010:	80000385 	stb	zero,14(r16)
	ConfigStatC37[MISCC37_ptr] = 0;	// no insert, no invert
   81014:	800003c5 	stb	zero,15(r16)
	ConfigStatC37[BER_ptr] = 0;
   81018:	80000405 	stb	zero,16(r16)

	ConfigStatC37[UserSize_ptr] = 8;
	SaveBytesLong(ConfigStatC37,USER3_ptr,0);

}
   8101c:	dfc00117 	ldw	ra,4(sp)
   81020:	dc000017 	ldw	r16,0(sp)
   81024:	dec00204 	addi	sp,sp,8
	ConfigStatC37[CLEARC37_ptr] = 0;
	ConfigStatC37[MISCC37_ptr] = 0;	// no insert, no invert
	ConfigStatC37[BER_ptr] = 0;

	ConfigStatC37[UserSize_ptr] = 8;
	SaveBytesLong(ConfigStatC37,USER3_ptr,0);
   81028:	00894801 	jmpi	89480 <SaveBytesLong>

0008102c <issue_UI_command>:


//Simulate UI command
void issue_UI_command(unsigned short msg_element, unsigned char value)
{
	RxBuffer[msg_element] = value;
   8102c:	00800334 	movhi	r2,12
   81030:	10b03404 	addi	r2,r2,-16176
   81034:	213fffcc 	andi	r4,r4,65535
   81038:	2089883a 	add	r4,r4,r2
   8103c:	21400005 	stb	r5,0(r4)
	config_c37_hw();	// call confg_hw to execute command
   81040:	0082ee01 	jmpi	82ee0 <config_c37_hw>

00081044 <init_debug_test>:
	}//End infinite while
}


void init_debug_test()
{
   81044:	defffe04 	addi	sp,sp,-8
	//================================================================
	//set_far_end_loopback();	D(1, BUG("\n\t FAR END LOOPBACK ENABLED\n"));
//	set_internal_loopback();  D(1, BUG("\n\t INTL LOOPBACK ENABLED\n"));
	// set IDLE code byte to something other than default of AIS.
	set_IDLE_code((unsigned char)0xFF);	D(1, BUG("\n\t IDLE CODE SET\n"));  // 0xC3:   1100,0011
   81048:	01003fc4 	movi	r4,255
	}//End infinite while
}


void init_debug_test()
{
   8104c:	dfc00115 	stw	ra,4(sp)
   81050:	dc000015 	stw	r16,0(sp)
	//================================================================
	//set_far_end_loopback();	D(1, BUG("\n\t FAR END LOOPBACK ENABLED\n"));
//	set_internal_loopback();  D(1, BUG("\n\t INTL LOOPBACK ENABLED\n"));
	// set IDLE code byte to something other than default of AIS.
	set_IDLE_code((unsigned char)0xFF);	D(1, BUG("\n\t IDLE CODE SET\n"));  // 0xC3:   1100,0011
   81054:	0080d2c0 	call	80d2c <set_IDLE_code>
   81058:	010002f4 	movhi	r4,11
   8105c:	2130fc04 	addi	r4,r4,-15376
   81060:	009c21c0 	call	9c21c <puts>
	// set xmit and rcv channel numbers to 12
	ConfigStatC37[TX_CHANS_ptr] = 6;
   81064:	00800184 	movi	r2,6
   81068:	04000334 	movhi	r16,12
   8106c:	84300204 	addi	r16,r16,-16376
	ConfigStatC37[RX_CHANS_ptr] = 6;
	RxBuffer[TX_CHANS_ptr] = ConfigStatC37[TX_CHANS_ptr];
   81070:	00c00334 	movhi	r3,12
   81074:	18f03404 	addi	r3,r3,-16176
	RxBuffer[RX_CHANS_ptr] = ConfigStatC37[RX_CHANS_ptr];
	set_XMT_N_CHANNELS(ConfigStatC37[RX_CHANS_ptr]);
   81078:	01000184 	movi	r4,6
	//set_far_end_loopback();	D(1, BUG("\n\t FAR END LOOPBACK ENABLED\n"));
//	set_internal_loopback();  D(1, BUG("\n\t INTL LOOPBACK ENABLED\n"));
	// set IDLE code byte to something other than default of AIS.
	set_IDLE_code((unsigned char)0xFF);	D(1, BUG("\n\t IDLE CODE SET\n"));  // 0xC3:   1100,0011
	// set xmit and rcv channel numbers to 12
	ConfigStatC37[TX_CHANS_ptr] = 6;
   8107c:	80800245 	stb	r2,9(r16)
	ConfigStatC37[RX_CHANS_ptr] = 6;
   81080:	80800285 	stb	r2,10(r16)
	RxBuffer[TX_CHANS_ptr] = ConfigStatC37[TX_CHANS_ptr];
	RxBuffer[RX_CHANS_ptr] = ConfigStatC37[RX_CHANS_ptr];
   81084:	18800285 	stb	r2,10(r3)
	// set IDLE code byte to something other than default of AIS.
	set_IDLE_code((unsigned char)0xFF);	D(1, BUG("\n\t IDLE CODE SET\n"));  // 0xC3:   1100,0011
	// set xmit and rcv channel numbers to 12
	ConfigStatC37[TX_CHANS_ptr] = 6;
	ConfigStatC37[RX_CHANS_ptr] = 6;
	RxBuffer[TX_CHANS_ptr] = ConfigStatC37[TX_CHANS_ptr];
   81088:	18800245 	stb	r2,9(r3)
	RxBuffer[RX_CHANS_ptr] = ConfigStatC37[RX_CHANS_ptr];
	set_XMT_N_CHANNELS(ConfigStatC37[RX_CHANS_ptr]);
   8108c:	0080d140 	call	80d14 <set_XMT_N_CHANNELS>
	set_RCV_N_CHANNELS(ConfigStatC37[RX_CHANS_ptr]);
   81090:	81000283 	ldbu	r4,10(r16)
	// start the test
	//start_BERT_test();
	//D(1, BUG("\n BER=0"));

	//issue_UI_command(BERTC37_ptr,Poly2047);	//Emulate UI command
}
   81094:	dfc00117 	ldw	ra,4(sp)
   81098:	dc000017 	ldw	r16,0(sp)
   8109c:	dec00204 	addi	sp,sp,8
	ConfigStatC37[TX_CHANS_ptr] = 6;
	ConfigStatC37[RX_CHANS_ptr] = 6;
	RxBuffer[TX_CHANS_ptr] = ConfigStatC37[TX_CHANS_ptr];
	RxBuffer[RX_CHANS_ptr] = ConfigStatC37[RX_CHANS_ptr];
	set_XMT_N_CHANNELS(ConfigStatC37[RX_CHANS_ptr]);
	set_RCV_N_CHANNELS(ConfigStatC37[RX_CHANS_ptr]);
   810a0:	0080cfc1 	jmpi	80cfc <set_RCV_N_CHANNELS>

000810a4 <c37dot94_task>:
#include "c37dot94_def.h"


/* Prints "Hello World" and sleeps for three seconds */
void c37dot94_task(void* pdata)
{
   810a4:	defffa04 	addi	sp,sp,-24
	unsigned char cnt=0, old_status=0;
	unsigned char i=0;
	//unsigned long tmplong= 0;

	D(1, BUG("\n <> c37dot94_task ALIVE!\n"));
   810a8:	010002f4 	movhi	r4,11
   810ac:	21310104 	addi	r4,r4,-15356
#include "c37dot94_def.h"


/* Prints "Hello World" and sleeps for three seconds */
void c37dot94_task(void* pdata)
{
   810b0:	dfc00515 	stw	ra,20(sp)
   810b4:	dd000415 	stw	r20,16(sp)
   810b8:	dcc00315 	stw	r19,12(sp)
   810bc:	dc800215 	stw	r18,8(sp)
   810c0:	dc400115 	stw	r17,4(sp)
   810c4:	dc000015 	stw	r16,0(sp)
	unsigned char cnt=0, old_status=0;
	unsigned char i=0;
	//unsigned long tmplong= 0;

	D(1, BUG("\n <> c37dot94_task ALIVE!\n"));
   810c8:	009c21c0 	call	9c21c <puts>

	//___________________________________________________________________________
	D(1, BUG("\n---------> C37.94 initializing 131.062M CLOCK"));
   810cc:	010002f4 	movhi	r4,11
   810d0:	21310804 	addi	r4,r4,-15328
   810d4:	009c0e00 	call	9c0e0 <printf>
	write_ppm_offset(0);
   810d8:	0009883a 	mov	r4,zero
   810dc:	0080db80 	call	80db8 <write_ppm_offset>
	D(1, BUG("\nCLK initialized:"));
	if(C3794_READY){
   810e0:	050002f4 	movhi	r20,11
   810e4:	a51a0ec4 	addi	r20,r20,26683
	D(1, BUG("\n <> c37dot94_task ALIVE!\n"));

	//___________________________________________________________________________
	D(1, BUG("\n---------> C37.94 initializing 131.062M CLOCK"));
	write_ppm_offset(0);
	D(1, BUG("\nCLK initialized:"));
   810e8:	010002f4 	movhi	r4,11
   810ec:	21311404 	addi	r4,r4,-15280
   810f0:	009c0e00 	call	9c0e0 <printf>
	if(C3794_READY){
   810f4:	a0c00007 	ldb	r3,0(r20)
   810f8:	18002716 	blt	r3,zero,81198 <c37dot94_task+0xf4>
//		reinit_c37dot94();
		init_c37dot94();
		init_debug_test();
		}
	else{
		D(1, BUG(" CLOCK dead - no C37.94 processing can occur! \n"));
   810fc:	010002f4 	movhi	r4,11
   81100:	21311f04 	addi	r4,r4,-15236
   81104:	009c21c0 	call	9c21c <puts>
		OSTaskDel(C3794_TASK_PRIORITY);	// 3
   81108:	010000c4 	movi	r4,3
   8110c:	00a8f840 	call	a8f84 <OSTaskDel>
		}

	D(1, BUG("\n=========== STARTING C3794 TASK WHILE LOOP ======================\n"));
   81110:	010002f4 	movhi	r4,11
   81114:	21312b04 	addi	r4,r4,-15188
   81118:	009c21c0 	call	9c21c <puts>
   8111c:	0023883a 	mov	r17,zero
   81120:	04c002f4 	movhi	r19,11
   81124:	9cda0f04 	addi	r19,r19,26684
   81128:	048002f4 	movhi	r18,11
   8112c:	949a1204 	addi	r18,r18,26696
	//================================================================
	while (1)
	{

		if(!C3794_READY){
   81130:	a0800007 	ldb	r2,0(r20)
			D(1, BUG("\n\n CLOCK dead - SUSPENDING C37.94 Task!!! \n"));
   81134:	010002f4 	movhi	r4,11
   81138:	21313c04 	addi	r4,r4,-15120
	D(1, BUG("\n=========== STARTING C3794 TASK WHILE LOOP ======================\n"));
	//================================================================
	while (1)
	{

		if(!C3794_READY){
   8113c:	10000316 	blt	r2,zero,8114c <c37dot94_task+0xa8>
			D(1, BUG("\n\n CLOCK dead - SUSPENDING C37.94 Task!!! \n"));
   81140:	009c21c0 	call	9c21c <puts>
			OSTaskSuspend(C3794_TASK_PRIORITY);
   81144:	010000c4 	movi	r4,3
   81148:	00a978c0 	call	a978c <OSTaskSuspend>
			}

		OSTimeDlyHMSM(0, 0, 0, 100);
   8114c:	0009883a 	mov	r4,zero
   81150:	000b883a 	mov	r5,zero
   81154:	000d883a 	mov	r6,zero
   81158:	01c01904 	movi	r7,100
   8115c:	00a99a80 	call	a99a8 <OSTimeDlyHMSM>
		update_alarms_event_status();
   81160:	00807a80 	call	807a8 <update_alarms_event_status>
		if(C3794_status != old_status){
   81164:	9c000003 	ldbu	r16,0(r19)
   81168:	88c03fcc 	andi	r3,r17,255
			old_status = C3794_status;
			D(1, BUG("\n\n______STATUS CHANGE_____________________________ \n"));
   8116c:	010002f4 	movhi	r4,11
   81170:	21314704 	addi	r4,r4,-15076
			OSTaskSuspend(C3794_TASK_PRIORITY);
			}

		OSTimeDlyHMSM(0, 0, 0, 100);
		update_alarms_event_status();
		if(C3794_status != old_status){
   81174:	80803fcc 	andi	r2,r16,255
   81178:	18800226 	beq	r3,r2,81184 <c37dot94_task+0xe0>
			old_status = C3794_status;
			D(1, BUG("\n\n______STATUS CHANGE_____________________________ \n"));
   8117c:	009c21c0 	call	9c21c <puts>
			dump_C3794_status();
   81180:	00807c00 	call	807c0 <dump_C3794_status>
			}

		if(++cnt%1 == 0){	// every other time...
 	        if(BERT)
   81184:	90800017 	ldw	r2,0(r18)
   81188:	10000126 	beq	r2,zero,81190 <c37dot94_task+0xec>
 	        	process_bert_sync();
   8118c:	00812400 	call	81240 <process_bert_sync>
	else{
		D(1, BUG(" CLOCK dead - no C37.94 processing can occur! \n"));
		OSTaskDel(C3794_TASK_PRIORITY);	// 3
		}

	D(1, BUG("\n=========== STARTING C3794 TASK WHILE LOOP ======================\n"));
   81190:	8023883a 	mov	r17,r16
   81194:	003fe606 	br	81130 <c37dot94_task+0x8c>
	//___________________________________________________________________________
	D(1, BUG("\n---------> C37.94 initializing 131.062M CLOCK"));
	write_ppm_offset(0);
	D(1, BUG("\nCLK initialized:"));
	if(C3794_READY){
		D(1, BUG(" CLOCK up & running! \n"));
   81198:	010002f4 	movhi	r4,11
   8119c:	21311904 	addi	r4,r4,-15260
   811a0:	009c21c0 	call	9c21c <puts>
		//OSTaskResume(C3794_TASK_PRIORITY);
//		reinit_c37dot94();
		init_c37dot94();
   811a4:	0080fa00 	call	80fa0 <init_c37dot94>
		init_debug_test();
   811a8:	00810440 	call	81044 <init_debug_test>
   811ac:	003fd806 	br	81110 <c37dot94_task+0x6c>

000811b0 <stop_BERT_test>:
	transition_register_bit(ADDR_CTL, (CTL_START_MASK | CTL_LC_MASK));
}

void stop_BERT_test()
{
	transition_register_bit(ADDR_CTL, CTL_STOP_MASK);
   811b0:	01000704 	movi	r4,28
   811b4:	01400084 	movi	r5,2
   811b8:	0080d981 	jmpi	80d98 <transition_register_bit>

000811bc <start_BERT_test>:
}

void start_BERT_test()
{
	// clear BERT counts in SW for now, until HW does the same.
	transition_register_bit(ADDR_CTL, (CTL_START_MASK | CTL_LC_MASK));
   811bc:	01000704 	movi	r4,28
   811c0:	01400444 	movi	r5,17
   811c4:	0080d981 	jmpi	80d98 <transition_register_bit>

000811c8 <load_test_pattern>:
    D(1, BUG("Bit count: %llu, Bit error count: %u, BER: %4.3e\n", bit_count_reg, bit_error_count_reg, (bit_error_count_reg/(double)bit_count_reg)));
}

void load_test_pattern()
{
	transition_register_bit(ADDR_CTL, CTL_TL_MASK);
   811c8:	01000704 	movi	r4,28
   811cc:	01402004 	movi	r5,128
   811d0:	0080d981 	jmpi	80d98 <transition_register_bit>

000811d4 <latch_BERT_counts>:
	transition_register_bit(ADDR_FRC_ERR, FRC_SBE_MASK);
}

void latch_BERT_counts()
{
	transition_register_bit(ADDR_CTL, CTL_LC_MASK);
   811d4:	01000704 	movi	r4,28
   811d8:	01400404 	movi	r5,16
   811dc:	0080d981 	jmpi	80d98 <transition_register_bit>

000811e0 <Insert_BERT_biterror>:
//	SBE EIR.3 Single Bit Error Insert. A low to high transition will create a single bit
//	error. Must be cleared and set again for a subsequent bit error to be
//	inserted.
void Insert_BERT_biterror()
{
	transition_register_bit(ADDR_FRC_ERR, FRC_SBE_MASK);
   811e0:	01000a04 	movi	r4,40
   811e4:	01420004 	movi	r5,2048
   811e8:	0080d981 	jmpi	80d98 <transition_register_bit>

000811ec <restart_bert>:
	transition_register_bit(ADDR_CTL, CTL_STOP_MASK);
}

/*********************************************************/
void restart_bert()
{
   811ec:	defffe04 	addi	sp,sp,-8
   811f0:	dfc00115 	stw	ra,4(sp)
   811f4:	dc400015 	stw	r17,0(sp)
	latch_BERT_counts();
   811f8:	00811d40 	call	811d4 <latch_BERT_counts>

	SaveBytesLong(ConfigStatC37,BECR3_ptr,0);			// Clear BERT Counters
   811fc:	04400334 	movhi	r17,12
   81200:	8c700204 	addi	r17,r17,-16376
   81204:	8809883a 	mov	r4,r17
   81208:	01401fc4 	movi	r5,127
   8120c:	000d883a 	mov	r6,zero
   81210:	00894800 	call	89480 <SaveBytesLong>
	SaveBytesInt(ConfigStatC37,BERT_ES1_ptr,0);
   81214:	8809883a 	mov	r4,r17
   81218:	014022c4 	movi	r5,139
   8121c:	000d883a 	mov	r6,zero
   81220:	00894a80 	call	894a8 <SaveBytesInt>
	SaveBytesInt(ConfigStatC37,BERT_SES1_ptr,0);
   81224:	8809883a 	mov	r4,r17
   81228:	01402344 	movi	r5,141
   8122c:	000d883a 	mov	r6,zero

	//BERT_STATE &= ~0xC0;	// clear Sync state machine
}
   81230:	dfc00117 	ldw	ra,4(sp)
   81234:	dc400017 	ldw	r17,0(sp)
   81238:	dec00204 	addi	sp,sp,8
{
	latch_BERT_counts();

	SaveBytesLong(ConfigStatC37,BECR3_ptr,0);			// Clear BERT Counters
	SaveBytesInt(ConfigStatC37,BERT_ES1_ptr,0);
	SaveBytesInt(ConfigStatC37,BERT_SES1_ptr,0);
   8123c:	00894a81 	jmpi	894a8 <SaveBytesInt>

00081240 <process_bert_sync>:
	//SYNC_STATUS_OFS              4    // Pattern sync SYNCED=1, SEARCHING=0
	//SYNC_STATUS_MASK             0x10
	//DESYNC_STATUS_OFS            5
	//DESYNC_STATUS_MASK           0x20
	//********************************************************************************
	if(BERT){ //*** if BERT is ON handle in/out sync ***
   81240:	008002f4 	movhi	r2,11
   81244:	109a1204 	addi	r2,r2,26696
   81248:	10c00017 	ldw	r3,0(r2)
//*** gPatSync	(gStatus[BSR_ptr]&0xC0)	*******	if !([BSR_ptr]&0x80) is NO SYNC
//												if [BSR_ptr]&0xC0==0x80 is SYNC
//												if [BSR_ptr]&0xC0==0xC0 is PatLOST
//********************************************************************************
void process_bert_sync()		//** BERT SYNC verification Processing **
{
   8124c:	defffd04 	addi	sp,sp,-12
   81250:	dfc00215 	stw	ra,8(sp)
   81254:	dc400115 	stw	r17,4(sp)
   81258:	dc000015 	stw	r16,0(sp)
	//SYNC_STATUS_OFS              4    // Pattern sync SYNCED=1, SEARCHING=0
	//SYNC_STATUS_MASK             0x10
	//DESYNC_STATUS_OFS            5
	//DESYNC_STATUS_MASK           0x20
	//********************************************************************************
	if(BERT){ //*** if BERT is ON handle in/out sync ***
   8125c:	18001826 	beq	r3,zero,812c0 <process_bert_sync+0x80>
		if(BERT_INSYNC){         //******** LOCKED ***********************************
   81260:	00c002f4 	movhi	r3,11
   81264:	18da0f04 	addi	r3,r3,26684
   81268:	18800003 	ldbu	r2,0(r3)
			if(!(BERT_STATE&0x80)){ 	// If we're not already in SYNC then...
   8126c:	040002f4 	movhi	r16,11
   81270:	841a13c4 	addi	r16,r16,26703
	//SYNC_STATUS_MASK             0x10
	//DESYNC_STATUS_OFS            5
	//DESYNC_STATUS_MASK           0x20
	//********************************************************************************
	if(BERT){ //*** if BERT is ON handle in/out sync ***
		if(BERT_INSYNC){         //******** LOCKED ***********************************
   81274:	1080040c 	andi	r2,r2,16
   81278:	10001626 	beq	r2,zero,812d4 <process_bert_sync+0x94>
			if(!(BERT_STATE&0x80)){ 	// If we're not already in SYNC then...
   8127c:	80c00003 	ldbu	r3,0(r16)
				BERT_STATE |= 0x80;		// Set SYNC flag.
   81280:	00bfe004 	movi	r2,-128
				D(1, BUG("\n BERT GOING into PAT_SYNC!   BERT_STATE:%0X  (0x80=SYNC,0xC0=PatLOST)",BERT_STATE));
   81284:	010002f4 	movhi	r4,11
   81288:	21315404 	addi	r4,r4,-15024
	//DESYNC_STATUS_MASK           0x20
	//********************************************************************************
	if(BERT){ //*** if BERT is ON handle in/out sync ***
		if(BERT_INSYNC){         //******** LOCKED ***********************************
			if(!(BERT_STATE&0x80)){ 	// If we're not already in SYNC then...
				BERT_STATE |= 0x80;		// Set SYNC flag.
   8128c:	1884b03a 	or	r2,r3,r2
	//DESYNC_STATUS_OFS            5
	//DESYNC_STATUS_MASK           0x20
	//********************************************************************************
	if(BERT){ //*** if BERT is ON handle in/out sync ***
		if(BERT_INSYNC){         //******** LOCKED ***********************************
			if(!(BERT_STATE&0x80)){ 	// If we're not already in SYNC then...
   81290:	18c03fcc 	andi	r3,r3,255
   81294:	18c0201c 	xori	r3,r3,128
   81298:	18ffe004 	addi	r3,r3,-128
				BERT_STATE |= 0x80;		// Set SYNC flag.
				D(1, BUG("\n BERT GOING into PAT_SYNC!   BERT_STATE:%0X  (0x80=SYNC,0xC0=PatLOST)",BERT_STATE));
   8129c:	11403fcc 	andi	r5,r2,255
   812a0:	04400334 	movhi	r17,12
   812a4:	8c700204 	addi	r17,r17,-16376
	//DESYNC_STATUS_OFS            5
	//DESYNC_STATUS_MASK           0x20
	//********************************************************************************
	if(BERT){ //*** if BERT is ON handle in/out sync ***
		if(BERT_INSYNC){         //******** LOCKED ***********************************
			if(!(BERT_STATE&0x80)){ 	// If we're not already in SYNC then...
   812a8:	18001a16 	blt	r3,zero,81314 <process_bert_sync+0xd4>
				BERT_STATE |= 0x80;		// Set SYNC flag.
   812ac:	80800005 	stb	r2,0(r16)
				D(1, BUG("\n BERT GOING into PAT_SYNC!   BERT_STATE:%0X  (0x80=SYNC,0xC0=PatLOST)",BERT_STATE));
   812b0:	009c0e00 	call	9c0e0 <printf>
				restart_bert();			// Reset all BERT Counters
   812b4:	00811ec0 	call	811ec <restart_bert>
				ConfigStatC37[MISC_STATC37_ptr] = Misc_stat37;
				D(1, BUG("\n BERT Lost PAT_SYNC!  BERT_STATE:%0X  (!0x80=NOSYNC)",BERT_STATE));
				}
			}

		ConfigStatC37[BSR_ptr] = BERT_STATE;				// pass current SYNC state
   812b8:	80800003 	ldbu	r2,0(r16)
   812bc:	88801f45 	stb	r2,125(r17)
		}// END if PRI BERT IS ON
	//**************************************************
	//*********** END BERT-PRI SYNC HANDLING ***********
	//**************************************************
}
   812c0:	dfc00217 	ldw	ra,8(sp)
   812c4:	dc400117 	ldw	r17,4(sp)
   812c8:	dc000017 	ldw	r16,0(sp)
   812cc:	dec00304 	addi	sp,sp,12
   812d0:	f800283a 	ret
				D(1, BUG("\n BERT GOING into PAT_SYNC!   BERT_STATE:%0X  (0x80=SYNC,0xC0=PatLOST)",BERT_STATE));
				restart_bert();			// Reset all BERT Counters
				}
			}
		else{ //******** NOT LOCKED *******************************
			if(BERT_STATE&0x80){      	// if we were in SYNC (or PatLOST)
   812d4:	040002f4 	movhi	r16,11
   812d8:	841a13c4 	addi	r16,r16,26703
   812dc:	80800003 	ldbu	r2,0(r16)
				BERT_STATE &= ~0x80;    // Clear SYNC flag.
				BERT_STATE |= 0x40;     // flag loss of LOCK condition
				Misc_stat37 |= 0x01;      // Send a Bleep in PDA
   812e0:	018002f4 	movhi	r6,11
   812e4:	319a1404 	addi	r6,r6,26704
				ConfigStatC37[MISC_STATC37_ptr] = Misc_stat37;
   812e8:	04400334 	movhi	r17,12
   812ec:	8c700204 	addi	r17,r17,-16376
				}
			}
		else{ //******** NOT LOCKED *******************************
			if(BERT_STATE&0x80){      	// if we were in SYNC (or PatLOST)
				BERT_STATE &= ~0x80;    // Clear SYNC flag.
				BERT_STATE |= 0x40;     // flag loss of LOCK condition
   812f0:	10c01fcc 	andi	r3,r2,127
				D(1, BUG("\n BERT GOING into PAT_SYNC!   BERT_STATE:%0X  (0x80=SYNC,0xC0=PatLOST)",BERT_STATE));
				restart_bert();			// Reset all BERT Counters
				}
			}
		else{ //******** NOT LOCKED *******************************
			if(BERT_STATE&0x80){      	// if we were in SYNC (or PatLOST)
   812f4:	10803fcc 	andi	r2,r2,255
   812f8:	1080201c 	xori	r2,r2,128
				BERT_STATE &= ~0x80;    // Clear SYNC flag.
				BERT_STATE |= 0x40;     // flag loss of LOCK condition
   812fc:	18c01014 	ori	r3,r3,64
				D(1, BUG("\n BERT GOING into PAT_SYNC!   BERT_STATE:%0X  (0x80=SYNC,0xC0=PatLOST)",BERT_STATE));
				restart_bert();			// Reset all BERT Counters
				}
			}
		else{ //******** NOT LOCKED *******************************
			if(BERT_STATE&0x80){      	// if we were in SYNC (or PatLOST)
   81300:	10bfe004 	addi	r2,r2,-128
				BERT_STATE &= ~0x80;    // Clear SYNC flag.
				BERT_STATE |= 0x40;     // flag loss of LOCK condition
				Misc_stat37 |= 0x01;      // Send a Bleep in PDA
				ConfigStatC37[MISC_STATC37_ptr] = Misc_stat37;
				D(1, BUG("\n BERT Lost PAT_SYNC!  BERT_STATE:%0X  (!0x80=NOSYNC)",BERT_STATE));
   81304:	010002f4 	movhi	r4,11
   81308:	21316604 	addi	r4,r4,-14952
   8130c:	180b883a 	mov	r5,r3
				D(1, BUG("\n BERT GOING into PAT_SYNC!   BERT_STATE:%0X  (0x80=SYNC,0xC0=PatLOST)",BERT_STATE));
				restart_bert();			// Reset all BERT Counters
				}
			}
		else{ //******** NOT LOCKED *******************************
			if(BERT_STATE&0x80){      	// if we were in SYNC (or PatLOST)
   81310:	10000316 	blt	r2,zero,81320 <process_bert_sync+0xe0>
   81314:	04400334 	movhi	r17,12
   81318:	8c700204 	addi	r17,r17,-16376
   8131c:	003fe606 	br	812b8 <process_bert_sync+0x78>
				BERT_STATE &= ~0x80;    // Clear SYNC flag.
				BERT_STATE |= 0x40;     // flag loss of LOCK condition
				Misc_stat37 |= 0x01;      // Send a Bleep in PDA
   81320:	30800003 	ldbu	r2,0(r6)
				}
			}
		else{ //******** NOT LOCKED *******************************
			if(BERT_STATE&0x80){      	// if we were in SYNC (or PatLOST)
				BERT_STATE &= ~0x80;    // Clear SYNC flag.
				BERT_STATE |= 0x40;     // flag loss of LOCK condition
   81324:	80c00005 	stb	r3,0(r16)
				Misc_stat37 |= 0x01;      // Send a Bleep in PDA
   81328:	10800054 	ori	r2,r2,1
   8132c:	30800005 	stb	r2,0(r6)
				ConfigStatC37[MISC_STATC37_ptr] = Misc_stat37;
   81330:	88803185 	stb	r2,198(r17)
				D(1, BUG("\n BERT Lost PAT_SYNC!  BERT_STATE:%0X  (!0x80=NOSYNC)",BERT_STATE));
   81334:	009c0e00 	call	9c0e0 <printf>
   81338:	003fdf06 	br	812b8 <process_bert_sync+0x78>

0008133c <read_C3794_BERT_counts>:
	//return (IORD_32DIRECT(TOP_C37DOT94_0_BASE, ADDR_PRR));
	return prrdata;
}

void read_C3794_BERT_counts()
{
   8133c:	defff704 	addi	sp,sp,-36
   81340:	dfc00815 	stw	ra,32(sp)
   81344:	ddc00715 	stw	r23,28(sp)
   81348:	dd400615 	stw	r21,24(sp)
   8134c:	dcc00515 	stw	r19,20(sp)
   81350:	dc800415 	stw	r18,16(sp)
   81354:	dc400315 	stw	r17,12(sp)
   81358:	dc000215 	stw	r16,8(sp)
	unsigned long long bit_count_reg;
	unsigned int bit_error_count_reg;

	latch_BERT_counts();
   8135c:	00811d40 	call	811d4 <latch_BERT_counts>
	bit_count_reg = IORD_32DIRECT(TOP_C37DOT94_0_BASE, ADDR_BIT_COUNT_H);
   81360:	01072b04 	movi	r4,7340
   81364:	21400037 	ldwio	r5,0(r4)
	bit_count_reg = (bit_count_reg << 32);
   81368:	000d883a 	mov	r6,zero
   8136c:	280f883a 	mov	r7,r5
	bit_count_reg += IORD_32DIRECT(TOP_C37DOT94_0_BASE, ADDR_BIT_COUNT_L);
   81370:	00872a04 	movi	r2,7336
   81374:	12000037 	ldwio	r8,0(r2)
   81378:	400bd7fa 	srai	r5,r8,31
   8137c:	3205883a 	add	r2,r6,r8
   81380:	11ab803a 	cmpltu	r21,r2,r6
   81384:	3947883a 	add	r3,r7,r5
   81388:	1025883a 	mov	r18,r2
   8138c:	a8eb883a 	add	r21,r21,r3
	bit_error_count_reg = IORD_32DIRECT(TOP_C37DOT94_0_BASE, ADDR_BIT_ERROR_COUNT);
   81390:	00872c04 	movi	r2,7344
   81394:	15c00037 	ldwio	r23,0(r2)
    D(1, BUG("Bit count: %llu, Bit error count: %u, BER: %4.3e\n", bit_count_reg, bit_error_count_reg, (bit_error_count_reg/(double)bit_count_reg)));
   81398:	b809883a 	mov	r4,r23
   8139c:	009b5700 	call	9b570 <__floatunsidf>
   813a0:	a80b883a 	mov	r5,r21
   813a4:	9009883a 	mov	r4,r18
   813a8:	1021883a 	mov	r16,r2
   813ac:	1823883a 	mov	r17,r3
   813b0:	00998b40 	call	998b4 <__floatundidf>
   813b4:	180f883a 	mov	r7,r3
   813b8:	880b883a 	mov	r5,r17
   813bc:	8009883a 	mov	r4,r16
   813c0:	100d883a 	mov	r6,r2
   813c4:	009af8c0 	call	9af8c <__divdf3>
   813c8:	900b883a 	mov	r5,r18
   813cc:	a80d883a 	mov	r6,r21
   813d0:	b80f883a 	mov	r7,r23
   813d4:	010002f4 	movhi	r4,11
   813d8:	21317404 	addi	r4,r4,-14896
   813dc:	d8c00115 	stw	r3,4(sp)
   813e0:	d8800015 	stw	r2,0(sp)
   813e4:	009c0e00 	call	9c0e0 <printf>
}
   813e8:	dfc00817 	ldw	ra,32(sp)
   813ec:	ddc00717 	ldw	r23,28(sp)
   813f0:	dd400617 	ldw	r21,24(sp)
   813f4:	dcc00517 	ldw	r19,20(sp)
   813f8:	dc800417 	ldw	r18,16(sp)
   813fc:	dc400317 	ldw	r17,12(sp)
   81400:	dc000217 	ldw	r16,8(sp)
   81404:	dec00904 	addi	sp,sp,36
   81408:	f800283a 	ret

0008140c <get_BERT_rcv_pattern>:
{
	transition_register_bit(ADDR_CTL, CTL_LC_MASK);
}

unsigned long get_BERT_rcv_pattern()
{
   8140c:	defffe04 	addi	sp,sp,-8
	unsigned long prrdata;
	transition_register_bit(ADDR_CTL, CTL_RL_MASK);
   81410:	01000704 	movi	r4,28
   81414:	01400204 	movi	r5,8
{
	transition_register_bit(ADDR_CTL, CTL_LC_MASK);
}

unsigned long get_BERT_rcv_pattern()
{
   81418:	dfc00115 	stw	ra,4(sp)
   8141c:	dc400015 	stw	r17,0(sp)
	unsigned long prrdata;
	transition_register_bit(ADDR_CTL, CTL_RL_MASK);
   81420:	0080d980 	call	80d98 <transition_register_bit>

	prrdata = IORD_32DIRECT(TOP_C37DOT94_0_BASE, ADDR_PRR);
   81424:	00871c04 	movi	r2,7280
   81428:	14400037 	ldwio	r17,0(r2)
	D(1, BUG("\nBERT PRR: %0lX\n", prrdata));
   8142c:	010002f4 	movhi	r4,11
   81430:	21318104 	addi	r4,r4,-14844
   81434:	880b883a 	mov	r5,r17
   81438:	009c0e00 	call	9c0e0 <printf>
	//return (IORD_32DIRECT(TOP_C37DOT94_0_BASE, ADDR_PRR));
	return prrdata;
}
   8143c:	8805883a 	mov	r2,r17
   81440:	dfc00117 	ldw	ra,4(sp)
   81444:	dc400017 	ldw	r17,0(sp)
   81448:	dec00204 	addi	sp,sp,8
   8144c:	f800283a 	ret

00081450 <set_C3794_BER>:

void set_C3794_BER(unsigned char BER_value)  // 0 to 7:  No BER, 10-1 through 10-7
{
	unsigned int temp_reg;

	temp_reg = IORD_32DIRECT(TOP_C37DOT94_0_BASE, ADDR_FRC_ERR);
   81450:	01470a04 	movi	r5,7208
   81454:	28800037 	ldwio	r2,0(r5)
	temp_reg &= ~FRC_EIB_MASK;
   81458:	00fe3fc4 	movi	r3,-1793
	temp_reg |= (BER_value << FRC_EIB_OFS);
	IOWR_32DIRECT(TOP_C37DOT94_0_BASE, ADDR_FRC_ERR, temp_reg);
   8145c:	21003fcc 	andi	r4,r4,255
   81460:	2008923a 	slli	r4,r4,8
void set_C3794_BER(unsigned char BER_value)  // 0 to 7:  No BER, 10-1 through 10-7
{
	unsigned int temp_reg;

	temp_reg = IORD_32DIRECT(TOP_C37DOT94_0_BASE, ADDR_FRC_ERR);
	temp_reg &= ~FRC_EIB_MASK;
   81464:	10c4703a 	and	r2,r2,r3
	temp_reg |= (BER_value << FRC_EIB_OFS);
	IOWR_32DIRECT(TOP_C37DOT94_0_BASE, ADDR_FRC_ERR, temp_reg);
   81468:	1104b03a 	or	r2,r2,r4
   8146c:	28800035 	stwio	r2,0(r5)
}
   81470:	f800283a 	ret

00081474 <Invert_BERT_pattern>:

void Invert_BERT_pattern()
{
	unsigned int temp=0;
	// write RINV, TINV into ADDR_FRC_ERR
	temp |= (test_pattern_data[BERT][3] << FRC_TINV_OFS); 	//Get defined TINV,RINV for current pattern
   81474:	008002f4 	movhi	r2,11
   81478:	109a1204 	addi	r2,r2,26696
   8147c:	10c00017 	ldw	r3,0(r2)
	temp |= (test_pattern_data[BERT][4] << FRC_RINV_OFS);
   81480:	010002f4 	movhi	r4,11
   81484:	2131e304 	addi	r4,r4,-14452
	//#define FRC_RINV_OFS                   12
	//#define FRC_RINV_MASK                  0x1000
	//#define FRC_TINV_OFS                   13
	//#define FRC_TINV_MASK                  0x2000
	if(BERT_INVERT){
   81488:	008002f4 	movhi	r2,11
   8148c:	109a1044 	addi	r2,r2,26689
void Invert_BERT_pattern()
{
	unsigned int temp=0;
	// write RINV, TINV into ADDR_FRC_ERR
	temp |= (test_pattern_data[BERT][3] << FRC_TINV_OFS); 	//Get defined TINV,RINV for current pattern
	temp |= (test_pattern_data[BERT][4] << FRC_RINV_OFS);
   81490:	18c00724 	muli	r3,r3,28
	//#define FRC_RINV_OFS                   12
	//#define FRC_RINV_MASK                  0x1000
	//#define FRC_TINV_OFS                   13
	//#define FRC_TINV_MASK                  0x2000
	if(BERT_INVERT){
   81494:	11800003 	ldbu	r6,0(r2)
void Invert_BERT_pattern()
{
	unsigned int temp=0;
	// write RINV, TINV into ADDR_FRC_ERR
	temp |= (test_pattern_data[BERT][3] << FRC_TINV_OFS); 	//Get defined TINV,RINV for current pattern
	temp |= (test_pattern_data[BERT][4] << FRC_RINV_OFS);
   81498:	1907883a 	add	r3,r3,r4
   8149c:	19400417 	ldw	r5,16(r3)
   814a0:	18800317 	ldw	r2,12(r3)
   814a4:	280a933a 	slli	r5,r5,12
   814a8:	1004937a 	slli	r2,r2,13
   814ac:	1146b03a 	or	r3,r2,r5
	//#define FRC_RINV_OFS                   12
	//#define FRC_RINV_MASK                  0x1000
	//#define FRC_TINV_OFS                   13
	//#define FRC_TINV_MASK                  0x2000
	if(BERT_INVERT){
   814b0:	30000126 	beq	r6,zero,814b8 <Invert_BERT_pattern+0x44>
		temp ^= FRC_TINV_MASK;		//INVERT TINV/RINV of selected pattern
		temp ^= FRC_RINV_MASK;
   814b4:	18cc001c 	xori	r3,r3,12288
		}
	//Else set TINV/RINV to the standard for selected pattern
	IOWR_32DIRECT(TOP_C37DOT94_0_BASE, ADDR_FRC_ERR, temp);
   814b8:	00870a04 	movi	r2,7208
   814bc:	10c00035 	stwio	r3,0(r2)
}
   814c0:	f800283a 	ret

000814c4 <set_test_pattern>:
		{0x00, 0x06, 0xffffff20, 0,  0,  0, 0x00000020},  // 1in6
		{0x03, 0x06, 0xffffffff, 0,  0,  3, 0}  		  // PolyV54
	};

// Write registers to select a test pattern
void set_test_pattern() {
   814c4:	deffff04 	addi	sp,sp,-4
	unsigned int temp;
    IOWR_32DIRECT(TOP_C37DOT94_0_BASE, ADDR_MATCH, 0x24);
   814c8:	01000904 	movi	r4,36
   814cc:	00870304 	movi	r2,7180
		{0x00, 0x06, 0xffffff20, 0,  0,  0, 0x00000020},  // 1in6
		{0x03, 0x06, 0xffffffff, 0,  0,  3, 0}  		  // PolyV54
	};

// Write registers to select a test pattern
void set_test_pattern() {
   814d0:	dfc00015 	stw	ra,0(sp)
	unsigned int temp;
    IOWR_32DIRECT(TOP_C37DOT94_0_BASE, ADDR_MATCH, 0x24);
   814d4:	11000035 	stwio	r4,0(r2)
	// use enum value as index into test pattern table
	IOWR_32DIRECT(TOP_C37DOT94_0_BASE, ADDR_PTR, test_pattern_data[BERT][0]);
   814d8:	00c002f4 	movhi	r3,11
   814dc:	18da1204 	addi	r3,r3,26696
   814e0:	19800017 	ldw	r6,0(r3)
   814e4:	008002f4 	movhi	r2,11
   814e8:	10b1e304 	addi	r2,r2,-14452
   814ec:	31800724 	muli	r6,r6,28
   814f0:	308d883a 	add	r6,r6,r2
   814f4:	30c00017 	ldw	r3,0(r6)
   814f8:	00870604 	movi	r2,7192
   814fc:	10c00035 	stwio	r3,0(r2)
	IOWR_32DIRECT(TOP_C37DOT94_0_BASE, ADDR_PLR, test_pattern_data[BERT][1]);
   81500:	31000117 	ldw	r4,4(r6)
   81504:	00870504 	movi	r2,7188
   81508:	11000035 	stwio	r4,0(r2)
	IOWR_32DIRECT(TOP_C37DOT94_0_BASE, ADDR_PSR, test_pattern_data[BERT][2]);
   8150c:	30c00217 	ldw	r3,8(r6)
   81510:	00870404 	movi	r2,7184
   81514:	10c00035 	stwio	r3,0(r2)

	USER_PAT = test_pattern_data[BERT][6];//Capture USER_PAT for fixed checker
   81518:	31000617 	ldw	r4,24(r6)
   8151c:	008002f4 	movhi	r2,11
   81520:	109a1504 	addi	r2,r2,26708

	// write RINV, TINV into ADDR_FRC_ERR
	temp = IORD_32DIRECT(TOP_C37DOT94_0_BASE, ADDR_FRC_ERR);
   81524:	02070a04 	movi	r8,7208
	// use enum value as index into test pattern table
	IOWR_32DIRECT(TOP_C37DOT94_0_BASE, ADDR_PTR, test_pattern_data[BERT][0]);
	IOWR_32DIRECT(TOP_C37DOT94_0_BASE, ADDR_PLR, test_pattern_data[BERT][1]);
	IOWR_32DIRECT(TOP_C37DOT94_0_BASE, ADDR_PSR, test_pattern_data[BERT][2]);

	USER_PAT = test_pattern_data[BERT][6];//Capture USER_PAT for fixed checker
   81528:	11000015 	stw	r4,0(r2)

	// write RINV, TINV into ADDR_FRC_ERR
	temp = IORD_32DIRECT(TOP_C37DOT94_0_BASE, ADDR_FRC_ERR);
   8152c:	41400037 	ldwio	r5,0(r8)
	temp &= ~(FRC_RINV_MASK | FRC_TINV_MASK);
   81530:	00b3ffc4 	movi	r2,-12289
	temp |= (test_pattern_data[BERT][3] << FRC_TINV_OFS);
   81534:	30c00317 	ldw	r3,12(r6)
   81538:	31000417 	ldw	r4,16(r6)

	USER_PAT = test_pattern_data[BERT][6];//Capture USER_PAT for fixed checker

	// write RINV, TINV into ADDR_FRC_ERR
	temp = IORD_32DIRECT(TOP_C37DOT94_0_BASE, ADDR_FRC_ERR);
	temp &= ~(FRC_RINV_MASK | FRC_TINV_MASK);
   8153c:	288a703a 	and	r5,r5,r2
	temp |= (test_pattern_data[BERT][3] << FRC_TINV_OFS);
   81540:	1806937a 	slli	r3,r3,13
   81544:	2008933a 	slli	r4,r4,12
   81548:	1906b03a 	or	r3,r3,r4
	temp |= (test_pattern_data[BERT][4] << FRC_RINV_OFS);
	IOWR_32DIRECT(TOP_C37DOT94_0_BASE, ADDR_FRC_ERR, temp);
   8154c:	28cab03a 	or	r5,r5,r3
   81550:	41400035 	stwio	r5,0(r8)

	// write PS into ADDR_CTL
	temp = IORD_32DIRECT(TOP_C37DOT94_0_BASE, ADDR_CTL);
   81554:	01c70704 	movi	r7,7196
   81558:	38800037 	ldwio	r2,0(r7)
	temp &= ~(CTL_TL_MASK);
   8155c:	00ffdfc4 	movi	r3,-129
   81560:	10c4703a 	and	r2,r2,r3
	IOWR_32DIRECT(TOP_C37DOT94_0_BASE, ADDR_CTL, temp);
   81564:	38800035 	stwio	r2,0(r7)
	temp &= ~CTL_PS_MASK;
	temp |= CTL_TL_MASK;
   81568:	30c00517 	ldw	r3,20(r6)

	// write PS into ADDR_CTL
	temp = IORD_32DIRECT(TOP_C37DOT94_0_BASE, ADDR_CTL);
	temp &= ~(CTL_TL_MASK);
	IOWR_32DIRECT(TOP_C37DOT94_0_BASE, ADDR_CTL, temp);
	temp &= ~CTL_PS_MASK;
   8156c:	013ff7c4 	movi	r4,-33
   81570:	1104703a 	and	r2,r2,r4
	temp |= CTL_TL_MASK;
   81574:	1806917a 	slli	r3,r3,5
   81578:	18c02014 	ori	r3,r3,128
	temp |= (test_pattern_data[BERT][5] << CTL_PS_OFS);
	IOWR_32DIRECT(TOP_C37DOT94_0_BASE, ADDR_CTL, temp);
   8157c:	10c4b03a 	or	r2,r2,r3
   81580:	38800035 	stwio	r2,0(r7)

	load_test_pattern();
   81584:	00811c80 	call	811c8 <load_test_pattern>
	start_BERT_test();
}
   81588:	dfc00017 	ldw	ra,0(sp)
   8158c:	dec00104 	addi	sp,sp,4
	temp |= CTL_TL_MASK;
	temp |= (test_pattern_data[BERT][5] << CTL_PS_OFS);
	IOWR_32DIRECT(TOP_C37DOT94_0_BASE, ADDR_CTL, temp);

	load_test_pattern();
	start_BERT_test();
   81590:	00811bc1 	jmpi	811bc <start_BERT_test>

00081594 <run_C3794_BERT_test3>:

}


void run_C3794_BERT_test3()
{
   81594:	defffb04 	addi	sp,sp,-20

	unsigned short c3794_delay_cnt=0;

	D(1, BUG("\n\t	=========== C3794 BERT TEST3, Single bit error, BER: 2.64e-7 (60 second test) ======================\n"));
   81598:	010002f4 	movhi	r4,11
   8159c:	21318604 	addi	r4,r4,-14824

}


void run_C3794_BERT_test3()
{
   815a0:	dfc00415 	stw	ra,16(sp)
   815a4:	dcc00315 	stw	r19,12(sp)
   815a8:	dc800215 	stw	r18,8(sp)
   815ac:	dc400115 	stw	r17,4(sp)
   815b0:	dc000015 	stw	r16,0(sp)

	unsigned short c3794_delay_cnt=0;

	D(1, BUG("\n\t	=========== C3794 BERT TEST3, Single bit error, BER: 2.64e-7 (60 second test) ======================\n"));
   815b4:	009c21c0 	call	9c21c <puts>

	set_internal_loopback();
   815b8:	0080d8c0 	call	80d8c <set_internal_loopback>
	// set IDLE code byte to something other than default of AIS.
	set_IDLE_code((unsigned char)0xc3);
   815bc:	010030c4 	movi	r4,195
   815c0:	0080d2c0 	call	80d2c <set_IDLE_code>
	// set xmit and rcv channel numbers to 12
	set_XMT_N_CHANNELS(6);
   815c4:	01000184 	movi	r4,6
   815c8:	0080d140 	call	80d14 <set_XMT_N_CHANNELS>
	set_RCV_N_CHANNELS(6);
   815cc:	01000184 	movi	r4,6
   815d0:	0080cfc0 	call	80cfc <set_RCV_N_CHANNELS>

	// wait for receive clock to lock, and good framing pattern to be found
	wait_for_rcv_clock_locked();
   815d4:	00809c80 	call	809c8 <wait_for_rcv_clock_locked>
	wait_for_FrameSync();
   815d8:	0080b200 	call	80b20 <wait_for_FrameSync>

	// load a test pattern via registers
	BERT = ThreeIn24;
   815dc:	00c002c4 	movi	r3,11
   815e0:	008002f4 	movhi	r2,11
   815e4:	109a1204 	addi	r2,r2,26696
   815e8:	10c00015 	stw	r3,0(r2)
	set_test_pattern();
   815ec:	00814c40 	call	814c4 <set_test_pattern>
	set_C3794_BER(0x0);
   815f0:	0009883a 	mov	r4,zero
   815f4:	00814500 	call	81450 <set_C3794_BER>


	// start the test
	start_BERT_test();
   815f8:	00811bc0 	call	811bc <start_BERT_test>

	// run for 60 seconds. Apply SBE every 10 seconds, on the 5's.
	do {
		OSTimeDlyHMSM(0, 0, 0, 100);
   815fc:	0009883a 	mov	r4,zero
   81600:	000b883a 	mov	r5,zero
   81604:	000d883a 	mov	r6,zero
   81608:	01c01904 	movi	r7,100
   8160c:	00a99a80 	call	a99a8 <OSTimeDlyHMSM>
   81610:	04400044 	movi	r17,1
   81614:	04c00144 	movi	r19,5
   81618:	04809604 	movi	r18,600
   8161c:	000d883a 	mov	r6,zero
   81620:	01c01904 	movi	r7,100
		if ((c3794_delay_cnt % 10) == 5)
   81624:	8c3fffcc 	andi	r16,r17,65535
	// start the test
	start_BERT_test();

	// run for 60 seconds. Apply SBE every 10 seconds, on the 5's.
	do {
		OSTimeDlyHMSM(0, 0, 0, 100);
   81628:	0009883a 	mov	r4,zero
   8162c:	000b883a 	mov	r5,zero
   81630:	00a99a80 	call	a99a8 <OSTimeDlyHMSM>
		if ((c3794_delay_cnt % 10) == 5)
   81634:	8009883a 	mov	r4,r16
   81638:	01400284 	movi	r5,10
   8163c:	009b8480 	call	9b848 <__umodsi3>
   81640:	10bfffcc 	andi	r2,r2,65535
			transition_register_bit(ADDR_FRC_ERR, FRC_SBE_MASK);
	} while (c3794_delay_cnt++ < 600);
   81644:	8c400044 	addi	r17,r17,1

	// run for 60 seconds. Apply SBE every 10 seconds, on the 5's.
	do {
		OSTimeDlyHMSM(0, 0, 0, 100);
		if ((c3794_delay_cnt % 10) == 5)
			transition_register_bit(ADDR_FRC_ERR, FRC_SBE_MASK);
   81648:	01000a04 	movi	r4,40
   8164c:	01420004 	movi	r5,2048
	start_BERT_test();

	// run for 60 seconds. Apply SBE every 10 seconds, on the 5's.
	do {
		OSTimeDlyHMSM(0, 0, 0, 100);
		if ((c3794_delay_cnt % 10) == 5)
   81650:	14c00926 	beq	r2,r19,81678 <run_C3794_BERT_test3+0xe4>
			transition_register_bit(ADDR_FRC_ERR, FRC_SBE_MASK);
	} while (c3794_delay_cnt++ < 600);
   81654:	84bff11e 	bne	r16,r18,8161c <run_C3794_BERT_test3+0x88>

	stop_BERT_test();
   81658:	00811b00 	call	811b0 <stop_BERT_test>

	read_C3794_BERT_counts();
}
   8165c:	dfc00417 	ldw	ra,16(sp)
   81660:	dcc00317 	ldw	r19,12(sp)
   81664:	dc800217 	ldw	r18,8(sp)
   81668:	dc400117 	ldw	r17,4(sp)
   8166c:	dc000017 	ldw	r16,0(sp)
   81670:	dec00504 	addi	sp,sp,20
			transition_register_bit(ADDR_FRC_ERR, FRC_SBE_MASK);
	} while (c3794_delay_cnt++ < 600);

	stop_BERT_test();

	read_C3794_BERT_counts();
   81674:	008133c1 	jmpi	8133c <read_C3794_BERT_counts>

	// run for 60 seconds. Apply SBE every 10 seconds, on the 5's.
	do {
		OSTimeDlyHMSM(0, 0, 0, 100);
		if ((c3794_delay_cnt % 10) == 5)
			transition_register_bit(ADDR_FRC_ERR, FRC_SBE_MASK);
   81678:	0080d980 	call	80d98 <transition_register_bit>
	} while (c3794_delay_cnt++ < 600);
   8167c:	84bfe71e 	bne	r16,r18,8161c <run_C3794_BERT_test3+0x88>
   81680:	003ff506 	br	81658 <run_C3794_BERT_test3+0xc4>

00081684 <run_C3794_BERT_test2>:
	D(1, BUG("\n\n\tStopping: "));
	read_C3794_BERT_counts();
}

void run_C3794_BERT_test2()
{
   81684:	defffd04 	addi	sp,sp,-12

	unsigned short c3794_delay_cnt=0;

	D(1, BUG("\n\t	=========== C3794 BERT TEST2, applied BER: 1.0e-5 (20 second test) ======================\n"));
   81688:	010002f4 	movhi	r4,11
   8168c:	2131a004 	addi	r4,r4,-14720
	D(1, BUG("\n\n\tStopping: "));
	read_C3794_BERT_counts();
}

void run_C3794_BERT_test2()
{
   81690:	dfc00215 	stw	ra,8(sp)
   81694:	dc400115 	stw	r17,4(sp)
   81698:	dc000015 	stw	r16,0(sp)

	unsigned short c3794_delay_cnt=0;

	D(1, BUG("\n\t	=========== C3794 BERT TEST2, applied BER: 1.0e-5 (20 second test) ======================\n"));
   8169c:	009c21c0 	call	9c21c <puts>

	set_internal_loopback();
   816a0:	0080d8c0 	call	80d8c <set_internal_loopback>
	// set IDLE code byte to something other than default of AIS.
	set_IDLE_code((unsigned char)0xc3);
   816a4:	010030c4 	movi	r4,195
   816a8:	0080d2c0 	call	80d2c <set_IDLE_code>
	// set xmit and rcv channel numbers to 12
	set_XMT_N_CHANNELS(1);
   816ac:	01000044 	movi	r4,1
   816b0:	0080d140 	call	80d14 <set_XMT_N_CHANNELS>
	set_RCV_N_CHANNELS(1);
   816b4:	01000044 	movi	r4,1
   816b8:	0080cfc0 	call	80cfc <set_RCV_N_CHANNELS>

	// wait for receive clock to lock, and good framing pattern to be found
	wait_for_rcv_clock_locked();
   816bc:	00809c80 	call	809c8 <wait_for_rcv_clock_locked>
	wait_for_FrameSync();
   816c0:	0080b200 	call	80b20 <wait_for_FrameSync>

	// load a test pattern via registers
	BERT = ThreeIn24;
   816c4:	00c002c4 	movi	r3,11
   816c8:	008002f4 	movhi	r2,11
   816cc:	109a1204 	addi	r2,r2,26696
   816d0:	10c00015 	stw	r3,0(r2)
	set_test_pattern();
   816d4:	00814c40 	call	814c4 <set_test_pattern>

	// force errors at 10e-5
	set_C3794_BER(0x5);
   816d8:	01000144 	movi	r4,5
   816dc:	00814500 	call	81450 <set_C3794_BER>

	// start the test
	start_BERT_test();
   816e0:	0021883a 	mov	r16,zero
   816e4:	00811bc0 	call	811bc <start_BERT_test>
   816e8:	04403244 	movi	r17,201

	// run for 20 seconds
	do {
		OSTimeDlyHMSM(0, 0, 0, 100);
   816ec:	0009883a 	mov	r4,zero
   816f0:	000b883a 	mov	r5,zero
   816f4:	000d883a 	mov	r6,zero
   816f8:	01c01904 	movi	r7,100
	} while (c3794_delay_cnt++ < 200);
   816fc:	84000044 	addi	r16,r16,1
	// start the test
	start_BERT_test();

	// run for 20 seconds
	do {
		OSTimeDlyHMSM(0, 0, 0, 100);
   81700:	00a99a80 	call	a99a8 <OSTimeDlyHMSM>
	} while (c3794_delay_cnt++ < 200);
   81704:	80ffffcc 	andi	r3,r16,65535
   81708:	1c7ff81e 	bne	r3,r17,816ec <run_C3794_BERT_test2+0x68>

	stop_BERT_test();
   8170c:	00811b00 	call	811b0 <stop_BERT_test>

	read_C3794_BERT_counts();
   81710:	008133c0 	call	8133c <read_C3794_BERT_counts>

	OSTimeDlyHMSM(0, 0, 0, 1000);
   81714:	0009883a 	mov	r4,zero
   81718:	000b883a 	mov	r5,zero
   8171c:	000d883a 	mov	r6,zero
   81720:	01c0fa04 	movi	r7,1000
   81724:	00a99a80 	call	a99a8 <OSTimeDlyHMSM>

	// no bit errors should be recorded when test is over
	read_C3794_BERT_counts();
   81728:	008133c0 	call	8133c <read_C3794_BERT_counts>
	verify_register(ADDR_BIT_ERROR_COUNT, 0x0, 0xffffffff);
   8172c:	01002c04 	movi	r4,176
   81730:	000b883a 	mov	r5,zero
   81734:	01bfffc4 	movi	r6,-1

}
   81738:	dfc00217 	ldw	ra,8(sp)
   8173c:	dc400117 	ldw	r17,4(sp)
   81740:	dc000017 	ldw	r16,0(sp)
   81744:	dec00304 	addi	sp,sp,12

	OSTimeDlyHMSM(0, 0, 0, 1000);

	// no bit errors should be recorded when test is over
	read_C3794_BERT_counts();
	verify_register(ADDR_BIT_ERROR_COUNT, 0x0, 0xffffffff);
   81748:	00808a01 	jmpi	808a0 <verify_register>

0008174c <run_C3794_BERT_test1>:



//_______________________________________________________________________________________________________________
void run_C3794_BERT_test1()
{
   8174c:	defffd04 	addi	sp,sp,-12
unsigned int i=0;
//	unsigned short c3794_delay_cnt=0;

	D(1, BUG("\n\t	=========== C3794 BERT TEST1, Applied BER: 1.0e-7 (8 minute test) ======================\n"));
   81750:	010002f4 	movhi	r4,11
   81754:	2131b804 	addi	r4,r4,-14624



//_______________________________________________________________________________________________________________
void run_C3794_BERT_test1()
{
   81758:	dfc00215 	stw	ra,8(sp)
   8175c:	dc400115 	stw	r17,4(sp)
   81760:	dc000015 	stw	r16,0(sp)
unsigned int i=0;
//	unsigned short c3794_delay_cnt=0;

	D(1, BUG("\n\t	=========== C3794 BERT TEST1, Applied BER: 1.0e-7 (8 minute test) ======================\n"));
   81764:	009c21c0 	call	9c21c <puts>

	//D(1, BUG("\n\t FAR END LOOPBACK ENABLED\n"));
	//set_far_end_loopback();
	set_internal_loopback();  //D(1, BUG("\n\t INTL LOOPBACK ENABLED\n"));
   81768:	0080d8c0 	call	80d8c <set_internal_loopback>
	// set IDLE code byte to something other than default of AIS.
	set_IDLE_code((unsigned char)0xc3);	//D(1, BUG("\n\t IDLE CODE SET\n"));  0xC3:   1100,0011
   8176c:	010030c4 	movi	r4,195
   81770:	0080d2c0 	call	80d2c <set_IDLE_code>
	// set xmit and rcv channel numbers to 12
	set_XMT_N_CHANNELS(9);  //D(1, BUG("\n\t N channels set\n"));
   81774:	01000244 	movi	r4,9
   81778:	0080d140 	call	80d14 <set_XMT_N_CHANNELS>
	set_RCV_N_CHANNELS(9);   //D(1, BUG("\n\t N RCV channels set\n"));
   8177c:	01000244 	movi	r4,9
   81780:	0080cfc0 	call	80cfc <set_RCV_N_CHANNELS>

	// wait for receive clock to lock, and good framing pattern to be found
	wait_for_rcv_clock_locked();  //D(1, BUG("\n\t RCV clock locked\n"));
   81784:	00809c80 	call	809c8 <wait_for_rcv_clock_locked>
	wait_for_FrameSync();    //D(1, BUG("\n\t LOS GOOD\n"));
   81788:	0080b200 	call	80b20 <wait_for_FrameSync>

	// load a test pattern via registers
	BERT = Poly2047;
   8178c:	00c00084 	movi	r3,2
   81790:	008002f4 	movhi	r2,11
   81794:	109a1204 	addi	r2,r2,26696
   81798:	10c00015 	stw	r3,0(r2)
	set_test_pattern();
   8179c:	00814c40 	call	814c4 <set_test_pattern>

	// start the test
	start_BERT_test();
   817a0:	00811bc0 	call	811bc <start_BERT_test>
	D(1, BUG("\n BER=0"));
   817a4:	010002f4 	movhi	r4,11
   817a8:	2131cf04 	addi	r4,r4,-14532
   817ac:	009c0e00 	call	9c0e0 <printf>

	// run 10 seconds with no errors
	//OSTimeDlyHMSM(0, 2, 0, 0);
	read_C3794_BERT_counts();
   817b0:	008133c0 	call	8133c <read_C3794_BERT_counts>
	verify_register(ADDR_BIT_ERROR_COUNT, 0x0, 0xffffffff);
   817b4:	01002c04 	movi	r4,176
   817b8:	000b883a 	mov	r5,zero
   817bc:	01bfffc4 	movi	r6,-1
   817c0:	00808a00 	call	808a0 <verify_register>
   817c4:	0021883a 	mov	r16,zero
   817c8:	04400604 	movi	r17,24
	for(i=0;i<24;i++){
   817cc:	84000044 	addi	r16,r16,1
		OSTimeDlyHMSM(0, 0, 5, 0);
   817d0:	0009883a 	mov	r4,zero
   817d4:	000b883a 	mov	r5,zero
   817d8:	01800144 	movi	r6,5
   817dc:	000f883a 	mov	r7,zero
   817e0:	00a99a80 	call	a99a8 <OSTimeDlyHMSM>
		read_C3794_BERT_counts();
   817e4:	008133c0 	call	8133c <read_C3794_BERT_counts>

	// run 10 seconds with no errors
	//OSTimeDlyHMSM(0, 2, 0, 0);
	read_C3794_BERT_counts();
	verify_register(ADDR_BIT_ERROR_COUNT, 0x0, 0xffffffff);
	for(i=0;i<24;i++){
   817e8:	847ff81e 	bne	r16,r17,817cc <run_C3794_BERT_test1+0x80>
		read_C3794_BERT_counts();
		}


	// force errors at 1.0e-7
	set_C3794_BER(0x7);  D(1, BUG("\n Setting BER=1.0e-7"));
   817ec:	010001c4 	movi	r4,7
   817f0:	00814500 	call	81450 <set_C3794_BER>
   817f4:	010002f4 	movhi	r4,11
   817f8:	2131d104 	addi	r4,r4,-14524
   817fc:	009c0e00 	call	9c0e0 <printf>

	D(1, BUG("\n\tReading 1: "));
   81800:	010002f4 	movhi	r4,11
   81804:	2131d704 	addi	r4,r4,-14500
   81808:	009c0e00 	call	9c0e0 <printf>
   8180c:	0021883a 	mov	r16,zero
   81810:	04400604 	movi	r17,24
	for(i=0;i<24;i++){
   81814:	84000044 	addi	r16,r16,1
		OSTimeDlyHMSM(0, 0, 5, 0);
   81818:	0009883a 	mov	r4,zero
   8181c:	000b883a 	mov	r5,zero
   81820:	01800144 	movi	r6,5
   81824:	000f883a 	mov	r7,zero
   81828:	00a99a80 	call	a99a8 <OSTimeDlyHMSM>
		read_C3794_BERT_counts();
   8182c:	008133c0 	call	8133c <read_C3794_BERT_counts>

	// force errors at 1.0e-7
	set_C3794_BER(0x7);  D(1, BUG("\n Setting BER=1.0e-7"));

	D(1, BUG("\n\tReading 1: "));
	for(i=0;i<24;i++){
   81830:	847ff81e 	bne	r16,r17,81814 <run_C3794_BERT_test1+0xc8>
		OSTimeDlyHMSM(0, 0, 5, 0);
		read_C3794_BERT_counts();
		}

	D(1, BUG("\n\n\tReading 2: "));
   81834:	010002f4 	movhi	r4,11
   81838:	2131db04 	addi	r4,r4,-14484
   8183c:	009c0e00 	call	9c0e0 <printf>
   81840:	0021883a 	mov	r16,zero
   81844:	04400604 	movi	r17,24
	for(i=0;i<24;i++){
   81848:	84000044 	addi	r16,r16,1
		OSTimeDlyHMSM(0, 0, 5, 0);
   8184c:	0009883a 	mov	r4,zero
   81850:	000b883a 	mov	r5,zero
   81854:	01800144 	movi	r6,5
   81858:	000f883a 	mov	r7,zero
   8185c:	00a99a80 	call	a99a8 <OSTimeDlyHMSM>
		read_C3794_BERT_counts();
   81860:	008133c0 	call	8133c <read_C3794_BERT_counts>
		OSTimeDlyHMSM(0, 0, 5, 0);
		read_C3794_BERT_counts();
		}

	D(1, BUG("\n\n\tReading 2: "));
	for(i=0;i<24;i++){
   81864:	847ff81e 	bne	r16,r17,81848 <run_C3794_BERT_test1+0xfc>
		OSTimeDlyHMSM(0, 0, 5, 0);
		read_C3794_BERT_counts();
		}

	OSTimeDlyHMSM(0, 2, 0, 0);
   81868:	0009883a 	mov	r4,zero
   8186c:	01400084 	movi	r5,2
   81870:	000d883a 	mov	r6,zero
   81874:	000f883a 	mov	r7,zero
   81878:	00a99a80 	call	a99a8 <OSTimeDlyHMSM>

	stop_BERT_test();
   8187c:	00811b00 	call	811b0 <stop_BERT_test>

	D(1, BUG("\n\n\tReading 2: "));
   81880:	010002f4 	movhi	r4,11
   81884:	2131db04 	addi	r4,r4,-14484
   81888:	009c0e00 	call	9c0e0 <printf>
   8188c:	0021883a 	mov	r16,zero
   81890:	04400604 	movi	r17,24
	for(i=0;i<24;i++){
   81894:	84000044 	addi	r16,r16,1
		OSTimeDlyHMSM(0, 0, 5, 0);
   81898:	0009883a 	mov	r4,zero
   8189c:	000b883a 	mov	r5,zero
   818a0:	01800144 	movi	r6,5
   818a4:	000f883a 	mov	r7,zero
   818a8:	00a99a80 	call	a99a8 <OSTimeDlyHMSM>
		read_C3794_BERT_counts();
   818ac:	008133c0 	call	8133c <read_C3794_BERT_counts>
	OSTimeDlyHMSM(0, 2, 0, 0);

	stop_BERT_test();

	D(1, BUG("\n\n\tReading 2: "));
	for(i=0;i<24;i++){
   818b0:	847ff81e 	bne	r16,r17,81894 <run_C3794_BERT_test1+0x148>
		OSTimeDlyHMSM(0, 0, 5, 0);
		read_C3794_BERT_counts();
		}

	D(1, BUG("\n\n\tStopping: "));
   818b4:	010002f4 	movhi	r4,11
   818b8:	2131df04 	addi	r4,r4,-14468
   818bc:	009c0e00 	call	9c0e0 <printf>
	read_C3794_BERT_counts();
}
   818c0:	dfc00217 	ldw	ra,8(sp)
   818c4:	dc400117 	ldw	r17,4(sp)
   818c8:	dc000017 	ldw	r16,0(sp)
   818cc:	dec00304 	addi	sp,sp,12
		OSTimeDlyHMSM(0, 0, 5, 0);
		read_C3794_BERT_counts();
		}

	D(1, BUG("\n\n\tStopping: "));
	read_C3794_BERT_counts();
   818d0:	008133c1 	jmpi	8133c <read_C3794_BERT_counts>

000818d4 <config_hardware10G>:
unsigned short i=0;
//unsigned char temp=0;//,j=0;
//unsigned long LongInt=0;


	for(i=2;i<ConfigChecksum2;i++){   // *** Start with GIGEMODE
   818d4:	00c002f4 	movhi	r3,11
   818d8:	18d9d684 	addi	r3,r3,26458
   818dc:	1880000f 	ldh	r2,0(r3)
//********************************************************************************
// System Configuration
// Execute Configuration & Test changes as requested by the GUI
//********************************************************************************
void config_hardware10G()
{
   818e0:	defff604 	addi	sp,sp,-40
unsigned short i=0;
//unsigned char temp=0;//,j=0;
//unsigned long LongInt=0;


	for(i=2;i<ConfigChecksum2;i++){   // *** Start with GIGEMODE
   818e4:	00c00084 	movi	r3,2
//********************************************************************************
// System Configuration
// Execute Configuration & Test changes as requested by the GUI
//********************************************************************************
void config_hardware10G()
{
   818e8:	dfc00915 	stw	ra,36(sp)
   818ec:	df000815 	stw	fp,32(sp)
   818f0:	ddc00715 	stw	r23,28(sp)
   818f4:	dd800615 	stw	r22,24(sp)
   818f8:	dd400515 	stw	r21,20(sp)
   818fc:	dd000415 	stw	r20,16(sp)
   81900:	dcc00315 	stw	r19,12(sp)
   81904:	dc800215 	stw	r18,8(sp)
   81908:	dc400115 	stw	r17,4(sp)
   8190c:	dc000015 	stw	r16,0(sp)
unsigned short i=0;
//unsigned char temp=0;//,j=0;
//unsigned long LongInt=0;


	for(i=2;i<ConfigChecksum2;i++){   // *** Start with GIGEMODE
   81910:	18803a0e 	bge	r3,r2,819fc <config_hardware10G+0x128>
   81914:	07000334 	movhi	fp,12
   81918:	e7303404 	addi	fp,fp,-16176
   8191c:	05c00334 	movhi	r23,12
   81920:	bdee3d84 	addi	r23,r23,-18186
   81924:	1829883a 	mov	r20,r3
   81928:	182b883a 	mov	r21,r3
		if(RxBuffer[i] != ConfigStat10G[i]){
   8192c:	a727883a 	add	r19,r20,fp
   81930:	9a000003 	ldbu	r8,0(r19)
   81934:	a5e1883a 	add	r16,r20,r23
   81938:	81800003 	ldbu	r6,0(r16)
   8193c:	41c03fcc 	andi	r7,r8,255
   81940:	39802826 	beq	r7,r6,819e4 <config_hardware10G+0x110>
		//if((GIGE_A && RxBuffer[i] != ConfigStat10G[i]) || (!GIGE_A && RxBuffer[i] != ConfigStat10GB[i])){
			switch(i){
   81944:	a8ffffcc 	andi	r3,r21,65535
   81948:	00801084 	movi	r2,66
   8194c:	1880b126 	beq	r3,r2,81c14 <config_hardware10G+0x340>
   81950:	10c03f36 	bltu	r2,r3,81a50 <config_hardware10G+0x17c>
   81954:	00800fc4 	movi	r2,63
   81958:	10c0cb36 	bltu	r2,r3,81c88 <config_hardware10G+0x3b4>
   8195c:	04000f84 	movi	r16,62
   81960:	1c02ad2e 	bgeu	r3,r16,82418 <config_hardware10G+0xb44>
   81964:	00800084 	movi	r2,2
   81968:	18838a26 	beq	r3,r2,82794 <config_hardware10G+0xec0>
   8196c:	18801d36 	bltu	r3,r2,819e4 <config_hardware10G+0x110>
   81970:	18fffe84 	addi	r3,r3,-6
   81974:	008000c4 	movi	r2,3
   81978:	10c01a36 	bltu	r2,r3,819e4 <config_hardware10G+0x110>
				case MAC_CONFIG2_ptr:	//5
				case MAC_CONFIG1_ptr:	//6
				case MAC_CONFIG0_ptr:	//7
					// Only process once for any word change!......
					//if(GIGE_A){
					if(BytesToLong(RxBuffer, MAC_CONFIG3_ptr) != BytesToLong(ConfigStat10G, MAC_CONFIG3_ptr)){
   8197c:	01000334 	movhi	r4,12
   81980:	21303404 	addi	r4,r4,-16176
   81984:	01400184 	movi	r5,6
   81988:	008942c0 	call	8942c <BytesToLong>
   8198c:	01000334 	movhi	r4,12
   81990:	212e3d84 	addi	r4,r4,-18186
   81994:	01400184 	movi	r5,6
   81998:	1023883a 	mov	r17,r2
   8199c:	008942c0 	call	8942c <BytesToLong>
   819a0:	88801026 	beq	r17,r2,819e4 <config_hardware10G+0x110>
						D(1, BUG("\n Seeing new 10G MAC Config Change....\n"));
   819a4:	010002f4 	movhi	r4,11
   819a8:	21327404 	addi	r4,r4,-13872
   819ac:	009c21c0 	call	9c21c <puts>
						MAC10A_COMMAND_CONFIG = BytesToLong(RxBuffer, MAC_CONFIG3_ptr);
   819b0:	01400184 	movi	r5,6
   819b4:	01000334 	movhi	r4,12
   819b8:	21303404 	addi	r4,r4,-16176
   819bc:	008942c0 	call	8942c <BytesToLong>
   819c0:	00c002f4 	movhi	r3,11
   819c4:	18da1904 	addi	r3,r3,26724
						SaveBytesLong(ConfigStat10G,MAC_CONFIG3_ptr,MAC10A_COMMAND_CONFIG);
   819c8:	100d883a 	mov	r6,r2
   819cc:	01000334 	movhi	r4,12
   819d0:	212e3d84 	addi	r4,r4,-18186
   819d4:	01400184 	movi	r5,6
				case MAC_CONFIG0_ptr:	//7
					// Only process once for any word change!......
					//if(GIGE_A){
					if(BytesToLong(RxBuffer, MAC_CONFIG3_ptr) != BytesToLong(ConfigStat10G, MAC_CONFIG3_ptr)){
						D(1, BUG("\n Seeing new 10G MAC Config Change....\n"));
						MAC10A_COMMAND_CONFIG = BytesToLong(RxBuffer, MAC_CONFIG3_ptr);
   819d8:	18800015 	stw	r2,0(r3)
						SaveBytesLong(ConfigStat10G,MAC_CONFIG3_ptr,MAC10A_COMMAND_CONFIG);
   819dc:	00894800 	call	89480 <SaveBytesLong>
						init_10G_MAC();
   819e0:	00881280 	call	88128 <init_10G_MAC>
unsigned short i=0;
//unsigned char temp=0;//,j=0;
//unsigned long LongInt=0;


	for(i=2;i<ConfigChecksum2;i++){   // *** Start with GIGEMODE
   819e4:	00c002f4 	movhi	r3,11
   819e8:	18d9d684 	addi	r3,r3,26458
   819ec:	1880000f 	ldh	r2,0(r3)
   819f0:	ad400044 	addi	r21,r21,1
   819f4:	ad3fffcc 	andi	r20,r21,65535
   819f8:	a0bfcc16 	blt	r20,r2,8192c <config_hardware10G+0x58>
   819fc:	d0a11803 	ldbu	r2,-31648(gp)
		}//End for

	//=== if Config Updated Copy Rxbuffer into Config portion of ConfigStat10G array
	for(i=2;i<MaxConfig2-1;i++){    // load new config into ConfigStat10G
		if(i != STARTSTOP_ptr){		// STARTSTOP handled like LINK config byte
			if(GIGE10)
   81a00:	01800084 	movi	r6,2
   81a04:	02c00334 	movhi	r11,12
   81a08:	5aee3d84 	addi	r11,r11,-18186
   81a0c:	100f003a 	cmpeq	r7,r2,zero
   81a10:	02800334 	movhi	r10,12
   81a14:	52b03404 	addi	r10,r10,-16176
   81a18:	02406ec4 	movi	r9,443
   81a1c:	02006e84 	movi	r8,442
				ConfigStat10G[i] = RxBuffer[i];
   81a20:	30bfffcc 	andi	r2,r6,65535
 				}//End Switch
			}//End if NEW Config byte (command)
		}//End for

	//=== if Config Updated Copy Rxbuffer into Config portion of ConfigStat10G array
	for(i=2;i<MaxConfig2-1;i++){    // load new config into ConfigStat10G
   81a24:	31800044 	addi	r6,r6,1
		if(i != STARTSTOP_ptr){		// STARTSTOP handled like LINK config byte
			if(GIGE10)
				ConfigStat10G[i] = RxBuffer[i];
   81a28:	128b883a 	add	r5,r2,r10
 				}//End Switch
			}//End if NEW Config byte (command)
		}//End for

	//=== if Config Updated Copy Rxbuffer into Config portion of ConfigStat10G array
	for(i=2;i<MaxConfig2-1;i++){    // load new config into ConfigStat10G
   81a2c:	30ffffcc 	andi	r3,r6,65535
		if(i != STARTSTOP_ptr){		// STARTSTOP handled like LINK config byte
			if(GIGE10)
				ConfigStat10G[i] = RxBuffer[i];
   81a30:	12c9883a 	add	r4,r2,r11
		}//End for

	//=== if Config Updated Copy Rxbuffer into Config portion of ConfigStat10G array
	for(i=2;i<MaxConfig2-1;i++){    // load new config into ConfigStat10G
		if(i != STARTSTOP_ptr){		// STARTSTOP handled like LINK config byte
			if(GIGE10)
   81a34:	3800021e 	bne	r7,zero,81a40 <config_hardware10G+0x16c>
				ConfigStat10G[i] = RxBuffer[i];
   81a38:	28800003 	ldbu	r2,0(r5)
   81a3c:	20800005 	stb	r2,0(r4)
 				}//End Switch
			}//End if NEW Config byte (command)
		}//End for

	//=== if Config Updated Copy Rxbuffer into Config portion of ConfigStat10G array
	for(i=2;i<MaxConfig2-1;i++){    // load new config into ConfigStat10G
   81a40:	48c23e36 	bltu	r9,r3,8233c <config_hardware10G+0xa68>
		if(i != STARTSTOP_ptr){		// STARTSTOP handled like LINK config byte
   81a44:	1a3ff61e 	bne	r3,r8,81a20 <config_hardware10G+0x14c>
			//	ConfigStat10GB[i] = RxBuffer[i];
			}
 		}

	// ************************************************************************
}/* End Config hardware function */
   81a48:	01806ec4 	movi	r6,443
   81a4c:	003ff406 	br	81a20 <config_hardware10G+0x14c>


	for(i=2;i<ConfigChecksum2;i++){   // *** Start with GIGEMODE
		if(RxBuffer[i] != ConfigStat10G[i]){
		//if((GIGE_A && RxBuffer[i] != ConfigStat10G[i]) || (!GIGE_A && RxBuffer[i] != ConfigStat10GB[i])){
			switch(i){
   81a50:	00801284 	movi	r2,74
   81a54:	10c22336 	bltu	r2,r3,822e4 <config_hardware10G+0xa10>
   81a58:	048011c4 	movi	r18,71
   81a5c:	1c82432e 	bgeu	r3,r18,8236c <config_hardware10G+0xa98>
   81a60:	00801144 	movi	r2,69
   81a64:	18835626 	beq	r3,r2,827c0 <config_hardware10G+0xeec>
   81a68:	10c30b36 	bltu	r2,r3,82698 <config_hardware10G+0xdc4>
   81a6c:	008010c4 	movi	r2,67
   81a70:	18bfdc1e 	bne	r3,r2,819e4 <config_hardware10G+0x110>
					break;
				case MISC_ptr:	//71	DumpSFPAinfo^0 , DumpSFPBinfo^1
					// might need to check/monitor ConfigStat10GB to ensure Port setting is don't care.....
					/*D(1, BUG("consolidated result RxBuffer[MISC_ptr]:  %x\n",RxBuffer[MISC_ptr]));
										D(1, BUG("consolidated result ConfigStat[MISC_ptr]:  %x\n",ConfigStat[MISC_ptr]));*/
					if(((RxBuffer[i])&0x01) != ((ConfigStat10G[i])&0x01)){		// if DumpSFPAinfo
   81a74:	3080004c 	andi	r2,r6,1
   81a78:	3900004c 	andi	r4,r7,1
   81a7c:	20801826 	beq	r4,r2,81ae0 <config_hardware10G+0x20c>
						READ_SFPA_DATA = YES;
   81a80:	00c00044 	movi	r3,1
   81a84:	008002f4 	movhi	r2,11
   81a88:	109a09c4 	addi	r2,r2,26663
						if(((RxBuffer[i])&0x01) == 0){	// maintain bit states across A, B and 10G
   81a8c:	2008c03a 	cmpne	r4,r4,zero
				case MISC_ptr:	//71	DumpSFPAinfo^0 , DumpSFPBinfo^1
					// might need to check/monitor ConfigStat10GB to ensure Port setting is don't care.....
					/*D(1, BUG("consolidated result RxBuffer[MISC_ptr]:  %x\n",RxBuffer[MISC_ptr]));
										D(1, BUG("consolidated result ConfigStat[MISC_ptr]:  %x\n",ConfigStat[MISC_ptr]));*/
					if(((RxBuffer[i])&0x01) != ((ConfigStat10G[i])&0x01)){		// if DumpSFPAinfo
						READ_SFPA_DATA = YES;
   81a90:	10c00005 	stb	r3,0(r2)
						if(((RxBuffer[i])&0x01) == 0){	// maintain bit states across A, B and 10G
   81a94:	2004c41e 	bne	r4,zero,82da8 <config_hardware10G+0x14d4>
							ConfigStat[MISC_ptr] &= ~0x01;
   81a98:	04000334 	movhi	r16,12
   81a9c:	842d5b44 	addi	r16,r16,-19091
							ConfigStatB[MISC_ptr] &= ~0x01;
   81aa0:	04400334 	movhi	r17,12
   81aa4:	8c61b204 	addi	r17,r17,-31032
					/*D(1, BUG("consolidated result RxBuffer[MISC_ptr]:  %x\n",RxBuffer[MISC_ptr]));
										D(1, BUG("consolidated result ConfigStat[MISC_ptr]:  %x\n",ConfigStat[MISC_ptr]));*/
					if(((RxBuffer[i])&0x01) != ((ConfigStat10G[i])&0x01)){		// if DumpSFPAinfo
						READ_SFPA_DATA = YES;
						if(((RxBuffer[i])&0x01) == 0){	// maintain bit states across A, B and 10G
							ConfigStat[MISC_ptr] &= ~0x01;
   81aa8:	80c010c3 	ldbu	r3,67(r16)
							ConfigStatB[MISC_ptr] &= ~0x01;
							ConfigStat10G[MISC_ptr] &= ~0x01;
   81aac:	00800334 	movhi	r2,12
   81ab0:	10ae3d84 	addi	r2,r2,-18186
   81ab4:	114010c3 	ldbu	r5,67(r2)
										D(1, BUG("consolidated result ConfigStat[MISC_ptr]:  %x\n",ConfigStat[MISC_ptr]));*/
					if(((RxBuffer[i])&0x01) != ((ConfigStat10G[i])&0x01)){		// if DumpSFPAinfo
						READ_SFPA_DATA = YES;
						if(((RxBuffer[i])&0x01) == 0){	// maintain bit states across A, B and 10G
							ConfigStat[MISC_ptr] &= ~0x01;
							ConfigStatB[MISC_ptr] &= ~0x01;
   81ab8:	890010c3 	ldbu	r4,67(r17)
					/*D(1, BUG("consolidated result RxBuffer[MISC_ptr]:  %x\n",RxBuffer[MISC_ptr]));
										D(1, BUG("consolidated result ConfigStat[MISC_ptr]:  %x\n",ConfigStat[MISC_ptr]));*/
					if(((RxBuffer[i])&0x01) != ((ConfigStat10G[i])&0x01)){		// if DumpSFPAinfo
						READ_SFPA_DATA = YES;
						if(((RxBuffer[i])&0x01) == 0){	// maintain bit states across A, B and 10G
							ConfigStat[MISC_ptr] &= ~0x01;
   81abc:	00bfff84 	movi	r2,-2
   81ac0:	1886703a 	and	r3,r3,r2
							ConfigStatB[MISC_ptr] &= ~0x01;
							ConfigStat10G[MISC_ptr] &= ~0x01;
   81ac4:	288a703a 	and	r5,r5,r2
										D(1, BUG("consolidated result ConfigStat[MISC_ptr]:  %x\n",ConfigStat[MISC_ptr]));*/
					if(((RxBuffer[i])&0x01) != ((ConfigStat10G[i])&0x01)){		// if DumpSFPAinfo
						READ_SFPA_DATA = YES;
						if(((RxBuffer[i])&0x01) == 0){	// maintain bit states across A, B and 10G
							ConfigStat[MISC_ptr] &= ~0x01;
							ConfigStatB[MISC_ptr] &= ~0x01;
   81ac8:	2088703a 	and	r4,r4,r2
					/*D(1, BUG("consolidated result RxBuffer[MISC_ptr]:  %x\n",RxBuffer[MISC_ptr]));
										D(1, BUG("consolidated result ConfigStat[MISC_ptr]:  %x\n",ConfigStat[MISC_ptr]));*/
					if(((RxBuffer[i])&0x01) != ((ConfigStat10G[i])&0x01)){		// if DumpSFPAinfo
						READ_SFPA_DATA = YES;
						if(((RxBuffer[i])&0x01) == 0){	// maintain bit states across A, B and 10G
							ConfigStat[MISC_ptr] &= ~0x01;
   81acc:	80c010c5 	stb	r3,67(r16)
							ConfigStatB[MISC_ptr] &= ~0x01;
							ConfigStat10G[MISC_ptr] &= ~0x01;
   81ad0:	00c00334 	movhi	r3,12
   81ad4:	18ee3d84 	addi	r3,r3,-18186
										D(1, BUG("consolidated result ConfigStat[MISC_ptr]:  %x\n",ConfigStat[MISC_ptr]));*/
					if(((RxBuffer[i])&0x01) != ((ConfigStat10G[i])&0x01)){		// if DumpSFPAinfo
						READ_SFPA_DATA = YES;
						if(((RxBuffer[i])&0x01) == 0){	// maintain bit states across A, B and 10G
							ConfigStat[MISC_ptr] &= ~0x01;
							ConfigStatB[MISC_ptr] &= ~0x01;
   81ad8:	890010c5 	stb	r4,67(r17)
							ConfigStat10G[MISC_ptr] &= ~0x01;
   81adc:	194010c5 	stb	r5,67(r3)
							ConfigStat[MISC_ptr] |= 0x01;
							ConfigStatB[MISC_ptr] |= 0x01;
							ConfigStat10G[MISC_ptr] |= 0x01;
							}
						}
					if(((RxBuffer[i])&0x02) != ((ConfigStat10G[i])&0x02)){		// if DumpSFPBinfo
   81ae0:	a5c5883a 	add	r2,r20,r23
   81ae4:	10c00003 	ldbu	r3,0(r2)
   81ae8:	3900008c 	andi	r4,r7,2
   81aec:	01800334 	movhi	r6,12
   81af0:	31ae3d84 	addi	r6,r6,-18186
   81af4:	18c0008c 	andi	r3,r3,2
   81af8:	20c01326 	beq	r4,r3,81b48 <config_hardware10G+0x274>
						READ_SFPB_DATA = YES;
   81afc:	00c00044 	movi	r3,1
   81b00:	008002f4 	movhi	r2,11
   81b04:	109a0a04 	addi	r2,r2,26664
   81b08:	10c00005 	stb	r3,0(r2)
						if(((RxBuffer[i])&0x02) == 0){	// maintain bit states across A, B and 10G
   81b0c:	2004c41e 	bne	r4,zero,82e20 <config_hardware10G+0x154c>
							ConfigStat[MISC_ptr] &= ~0x02;
   81b10:	04000334 	movhi	r16,12
   81b14:	842d5b44 	addi	r16,r16,-19091
							ConfigStatB[MISC_ptr] &= ~0x02;
   81b18:	04400334 	movhi	r17,12
   81b1c:	8c61b204 	addi	r17,r17,-31032
							}
						}
					if(((RxBuffer[i])&0x02) != ((ConfigStat10G[i])&0x02)){		// if DumpSFPBinfo
						READ_SFPB_DATA = YES;
						if(((RxBuffer[i])&0x02) == 0){	// maintain bit states across A, B and 10G
							ConfigStat[MISC_ptr] &= ~0x02;
   81b20:	80c010c3 	ldbu	r3,67(r16)
							ConfigStatB[MISC_ptr] &= ~0x02;
   81b24:	890010c3 	ldbu	r4,67(r17)
							ConfigStat10G[MISC_ptr] &= ~0x02;
   81b28:	314010c3 	ldbu	r5,67(r6)
							}
						}
					if(((RxBuffer[i])&0x02) != ((ConfigStat10G[i])&0x02)){		// if DumpSFPBinfo
						READ_SFPB_DATA = YES;
						if(((RxBuffer[i])&0x02) == 0){	// maintain bit states across A, B and 10G
							ConfigStat[MISC_ptr] &= ~0x02;
   81b2c:	00bfff44 	movi	r2,-3
   81b30:	1886703a 	and	r3,r3,r2
							ConfigStatB[MISC_ptr] &= ~0x02;
							ConfigStat10G[MISC_ptr] &= ~0x02;
   81b34:	288a703a 	and	r5,r5,r2
						}
					if(((RxBuffer[i])&0x02) != ((ConfigStat10G[i])&0x02)){		// if DumpSFPBinfo
						READ_SFPB_DATA = YES;
						if(((RxBuffer[i])&0x02) == 0){	// maintain bit states across A, B and 10G
							ConfigStat[MISC_ptr] &= ~0x02;
							ConfigStatB[MISC_ptr] &= ~0x02;
   81b38:	2088703a 	and	r4,r4,r2
							}
						}
					if(((RxBuffer[i])&0x02) != ((ConfigStat10G[i])&0x02)){		// if DumpSFPBinfo
						READ_SFPB_DATA = YES;
						if(((RxBuffer[i])&0x02) == 0){	// maintain bit states across A, B and 10G
							ConfigStat[MISC_ptr] &= ~0x02;
   81b3c:	80c010c5 	stb	r3,67(r16)
							ConfigStatB[MISC_ptr] &= ~0x02;
   81b40:	890010c5 	stb	r4,67(r17)
							ConfigStat10G[MISC_ptr] &= ~0x02;
   81b44:	314010c5 	stb	r5,67(r6)
							ConfigStat[MISC_ptr] |= 0x02;
							ConfigStatB[MISC_ptr] |= 0x02;
							ConfigStat10G[MISC_ptr] |= 0x02;
							}
						}
					if(((RxBuffer[i])&0x04) != ((ConfigStat10G[i])&0x04)){		// if DumpSFP+_A info
   81b48:	a5c5883a 	add	r2,r20,r23
   81b4c:	10c00003 	ldbu	r3,0(r2)
   81b50:	3900010c 	andi	r4,r7,4
   81b54:	01800334 	movhi	r6,12
   81b58:	31ae3d84 	addi	r6,r6,-18186
   81b5c:	18c0010c 	andi	r3,r3,4
   81b60:	20c01326 	beq	r4,r3,81bb0 <config_hardware10G+0x2dc>
						READ_SFP10A_DATA = YES;
   81b64:	00c00044 	movi	r3,1
   81b68:	008002f4 	movhi	r2,11
   81b6c:	109a0a44 	addi	r2,r2,26665
   81b70:	10c00005 	stb	r3,0(r2)
						if(((RxBuffer[i])&0x04) == 0){	// maintain bit states across A, B and 10G
   81b74:	20049c1e 	bne	r4,zero,82de8 <config_hardware10G+0x1514>
							ConfigStat[MISC_ptr] &= ~0x04;
   81b78:	04000334 	movhi	r16,12
   81b7c:	842d5b44 	addi	r16,r16,-19091
							ConfigStatB[MISC_ptr] &= ~0x04;
   81b80:	04400334 	movhi	r17,12
   81b84:	8c61b204 	addi	r17,r17,-31032
							}
						}
					if(((RxBuffer[i])&0x04) != ((ConfigStat10G[i])&0x04)){		// if DumpSFP+_A info
						READ_SFP10A_DATA = YES;
						if(((RxBuffer[i])&0x04) == 0){	// maintain bit states across A, B and 10G
							ConfigStat[MISC_ptr] &= ~0x04;
   81b88:	80c010c3 	ldbu	r3,67(r16)
							ConfigStatB[MISC_ptr] &= ~0x04;
   81b8c:	890010c3 	ldbu	r4,67(r17)
							ConfigStat10G[MISC_ptr] &= ~0x04;
   81b90:	314010c3 	ldbu	r5,67(r6)
							}
						}
					if(((RxBuffer[i])&0x04) != ((ConfigStat10G[i])&0x04)){		// if DumpSFP+_A info
						READ_SFP10A_DATA = YES;
						if(((RxBuffer[i])&0x04) == 0){	// maintain bit states across A, B and 10G
							ConfigStat[MISC_ptr] &= ~0x04;
   81b94:	00bffec4 	movi	r2,-5
   81b98:	1886703a 	and	r3,r3,r2
							ConfigStatB[MISC_ptr] &= ~0x04;
							ConfigStat10G[MISC_ptr] &= ~0x04;
   81b9c:	288a703a 	and	r5,r5,r2
						}
					if(((RxBuffer[i])&0x04) != ((ConfigStat10G[i])&0x04)){		// if DumpSFP+_A info
						READ_SFP10A_DATA = YES;
						if(((RxBuffer[i])&0x04) == 0){	// maintain bit states across A, B and 10G
							ConfigStat[MISC_ptr] &= ~0x04;
							ConfigStatB[MISC_ptr] &= ~0x04;
   81ba0:	2088703a 	and	r4,r4,r2
							}
						}
					if(((RxBuffer[i])&0x04) != ((ConfigStat10G[i])&0x04)){		// if DumpSFP+_A info
						READ_SFP10A_DATA = YES;
						if(((RxBuffer[i])&0x04) == 0){	// maintain bit states across A, B and 10G
							ConfigStat[MISC_ptr] &= ~0x04;
   81ba4:	80c010c5 	stb	r3,67(r16)
							ConfigStatB[MISC_ptr] &= ~0x04;
   81ba8:	890010c5 	stb	r4,67(r17)
							ConfigStat10G[MISC_ptr] &= ~0x04;
   81bac:	314010c5 	stb	r5,67(r6)
							else{

							ConfigStat10G[MISC_ptr] |= 0x40;
						}
						}*/
					if(((RxBuffer[i])&0x80) != ((ConfigStat10G[i])&0x80)){//MISC_ptr ^7
   81bb0:	a5c5883a 	add	r2,r20,r23
   81bb4:	10c00003 	ldbu	r3,0(r2)
   81bb8:	3900200c 	andi	r4,r7,128
   81bbc:	18c0200c 	andi	r3,r3,128
   81bc0:	20ff8826 	beq	r4,r3,819e4 <config_hardware10G+0x110>
						if((RxBuffer[i]&0x80)== 0x80){ // sending back consolidated result for MS.
   81bc4:	40803fcc 	andi	r2,r8,255
   81bc8:	1080201c 	xori	r2,r2,128
   81bcc:	10bfe004 	addi	r2,r2,-128
   81bd0:	1004a616 	blt	r2,zero,82e6c <config_hardware10G+0x1598>
//							ConfigStat[MISC_ptr] = RxBuffer[i]&~0x80;
//							ConfigStatB[MISC_ptr] = RxBuffer[i]&~0x80;
//							ConfigStat10G[MISC_ptr] = RxBuffer[i]&~0x80;
						}
						else {
							stream_no=(unsigned short) (RxBuffer[TRAFFIC_NUM_OF_STREAMS]>>4)&0xF; // get which stream exactly and send the results corresponding to that stream
   81bd4:	e0801183 	ldbu	r2,70(fp)
   81bd8:	040002f4 	movhi	r16,11
   81bdc:	841a2a04 	addi	r16,r16,26792
   81be0:	1004d13a 	srli	r2,r2,4
   81be4:	80800005 	stb	r2,0(r16)
							//D(1, BUG("...selecting the exact stream %x\n",stream_no));
							clearTotalResults();
   81be8:	00903340 	call	90334 <clearTotalResults>
							read_mon_status(stream_no);
   81bec:	81000003 	ldbu	r4,0(r16)
   81bf0:	0093c140 	call	93c14 <read_mon_status>
							D(1, BUG("\n===== Result STATS from MISC_ptr for stream %x =======\n",stream_no));
   81bf4:	81400003 	ldbu	r5,0(r16)
   81bf8:	010002f4 	movhi	r4,11
   81bfc:	21348e04 	addi	r4,r4,-11720
   81c00:	009c0e00 	call	9c0e0 <printf>
							DBG_MON_STATS();
   81c04:	00917700 	call	91770 <DBG_MON_STATS>
						}

						ConfigStat10G[MISC_ptr] = RxBuffer[MISC_ptr];
   81c08:	e08010c3 	ldbu	r2,67(fp)
   81c0c:	b88010c5 	stb	r2,67(r23)
   81c10:	003f7406 	br	819e4 <config_hardware10G+0x110>
				}

				break;

				case CLEAR_ptr:	//70
					if(((RxBuffer[i])&0x01) != ((ConfigStat10G[i])&0x01)) // if Clear Bit has been TOGGLED
   81c14:	38c0004c 	andi	r3,r7,1
   81c18:	3080004c 	andi	r2,r6,1
   81c1c:	18800526 	beq	r3,r2,81c34 <config_hardware10G+0x360>
						SaveBytesLong(ConfigStat10G,SECONDS3_ptr,0); //restart timer for new test
   81c20:	01000334 	movhi	r4,12
   81c24:	212e3d84 	addi	r4,r4,-18186
   81c28:	01407084 	movi	r5,450
   81c2c:	000d883a 	mov	r6,zero
   81c30:	00894800 	call	89480 <SaveBytesLong>
					if(((RxBuffer[i])&0x04) != ((ConfigStat10G[i])&0x04)){
   81c34:	98c00003 	ldbu	r3,0(r19)
   81c38:	80800003 	ldbu	r2,0(r16)
   81c3c:	18c0010c 	andi	r3,r3,4
   81c40:	1080010c 	andi	r2,r2,4
   81c44:	18bf6726 	beq	r3,r2,819e4 <config_hardware10G+0x110>
						D(1, BUG("clear the stats \n"));
   81c48:	010002f4 	movhi	r4,11
   81c4c:	21346304 	addi	r4,r4,-11892
   81c50:	009c21c0 	call	9c21c <puts>
						CLR_10G_MAC_STATS();
   81c54:	00870d80 	call	870d8 <CLR_10G_MAC_STATS>
						SaveBytesLong(ConfigStat10G,SECONDS3_ptr,0);//restart timer for clearing MAC stats
   81c58:	01000334 	movhi	r4,12
   81c5c:	212e3d84 	addi	r4,r4,-18186
   81c60:	01407084 	movi	r5,450
   81c64:	000d883a 	mov	r6,zero
   81c68:	00894800 	call	89480 <SaveBytesLong>
unsigned short i=0;
//unsigned char temp=0;//,j=0;
//unsigned long LongInt=0;


	for(i=2;i<ConfigChecksum2;i++){   // *** Start with GIGEMODE
   81c6c:	00c002f4 	movhi	r3,11
   81c70:	18d9d684 	addi	r3,r3,26458
   81c74:	1880000f 	ldh	r2,0(r3)
   81c78:	ad400044 	addi	r21,r21,1
   81c7c:	ad3fffcc 	andi	r20,r21,65535
   81c80:	a0bf2a16 	blt	r20,r2,8192c <config_hardware10G+0x58>
   81c84:	003f5d06 	br	819fc <config_hardware10G+0x128>
		if(RxBuffer[i] != ConfigStat10G[i]){
		//if((GIGE_A && RxBuffer[i] != ConfigStat10G[i]) || (!GIGE_A && RxBuffer[i] != ConfigStat10GB[i])){
			switch(i){
   81c88:	00801004 	movi	r2,64
   81c8c:	18820426 	beq	r3,r2,824a0 <config_hardware10G+0xbcc>
   81c90:	00801044 	movi	r2,65
   81c94:	18bf531e 	bne	r3,r2,819e4 <config_hardware10G+0x110>
						}
					break;

				case CORE_SIGROUTE_MODES_ptr:	//69 ^0:0=TSE_NORMAL_MODE (A=GEN/MON,B=LPBK), 1=TSE_LANWAN_MODE, ^1:0=10G_NORMAL_MODE,1=10G_LANWAN_MODE (10G+B=LANWAN,A=GEN/MON)
				// RCVD in 10G & TSE MODE ---> accessed in both
				if(((RxBuffer[i])&0x02) != ((ConfigStat10G[i])&0x02)){	//^1:0=10G_NORMAL_MODE, 1=LAN/WAN
   81c98:	38c0008c 	andi	r3,r7,2
   81c9c:	3080008c 	andi	r2,r6,2
   81ca0:	05800084 	movi	r22,2
   81ca4:	18806326 	beq	r3,r2,81e34 <config_hardware10G+0x560>
					if((RxBuffer[i] & 0x02) == 0x00){
   81ca8:	18031d1e 	bne	r3,zero,82920 <config_hardware10G+0x104c>
						D(1, BUG("//////////////////////////// (10G NORMAL)"));
   81cac:	010002f4 	movhi	r4,11
   81cb0:	21327e04 	addi	r4,r4,-13832
   81cb4:	009c0e00 	call	9c0e0 <printf>
						D(1, BUG("\nSET_TSE_A_NORMAL_TEST_MODE\n"));
   81cb8:	010002f4 	movhi	r4,11
   81cbc:	21328904 	addi	r4,r4,-13788
   81cc0:	009c21c0 	call	9c21c <puts>
						SET_TSE_A_NORMAL_TEST_MODE;//0=TSE_NORMAL_MODE (A=GEN/MON,B=LPBK)
   81cc4:	00c50004 	movi	r3,5120
   81cc8:	1d80002d 	sthio	r22,0(r3)
   81ccc:	040e0004 	movi	r16,14336
   81cd0:	8000002d 	sthio	zero,0(r16)
						D(1, BUG("MUX TSE_A_TX_3MUX TSE_NORMAL_MODE: 0x%04X\n", IORD_16DIRECT(TSE_A_TX_3MUX, ST_MUX_REG)));
   81cd4:	1940002b 	ldhuio	r5,0(r3)
   81cd8:	010002f4 	movhi	r4,11
   81cdc:	2132fb04 	addi	r4,r4,-13332
   81ce0:	009c0e00 	call	9c0e0 <printf>
						D(1, BUG("SET_TSE_A_RX_2SPLITTER_TO_EMON TSE_NORMAL_MODE: 0x%04X\n", IORD_16DIRECT(TSE_A_RX_2SPLITTER, ST_SPLITTER_REG)));
   81ce4:	8140002b 	ldhuio	r5,0(r16)
   81ce8:	010002f4 	movhi	r4,11
   81cec:	21330704 	addi	r4,r4,-13284
   81cf0:	009c0e00 	call	9c0e0 <printf>

						D(1, BUG("\nSET_TSE_B_LOOPBACK\n"));
   81cf4:	010002f4 	movhi	r4,11
   81cf8:	21329004 	addi	r4,r4,-13760
   81cfc:	009c21c0 	call	9c21c <puts>
						SET_TSE_B_LOOPBACK;
   81d00:	00c80004 	movi	r3,8192
   81d04:	1800002d 	sthio	zero,0(r3)
   81d08:	00800044 	movi	r2,1
   81d0c:	010f0004 	movi	r4,15360
   81d10:	2080002d 	sthio	r2,0(r4)
						D(1, BUG("MUX TSE_B_TX_3MUX SET_TSE_B_LOOPBACK: 0x%04X\n", IORD_16DIRECT(TSE_B_TX_3MUX, ST_MUX_REG)));
   81d14:	1940002b 	ldhuio	r5,0(r3)
   81d18:	010002f4 	movhi	r4,11
   81d1c:	21329504 	addi	r4,r4,-13740
   81d20:	009c0e00 	call	9c0e0 <printf>
						D(1, BUG("TSE_B_RX_3SPLITTER SET_TSE_B_LOOPBACK: 0x%04X\n",IORD_16DIRECT(TSE_B_RX_3SPLITTER, ST_SPLITTER_REG)));
   81d24:	008f0004 	movi	r2,15360
   81d28:	1140002b 	ldhuio	r5,0(r2)

						SET_SWAP_B_TOGGLE |=0x01;//set swap ON
   81d2c:	040002f4 	movhi	r16,11
   81d30:	84191a04 	addi	r16,r16,25704
						D(1, BUG("SET_TSE_A_RX_2SPLITTER_TO_EMON TSE_NORMAL_MODE: 0x%04X\n", IORD_16DIRECT(TSE_A_RX_2SPLITTER, ST_SPLITTER_REG)));

						D(1, BUG("\nSET_TSE_B_LOOPBACK\n"));
						SET_TSE_B_LOOPBACK;
						D(1, BUG("MUX TSE_B_TX_3MUX SET_TSE_B_LOOPBACK: 0x%04X\n", IORD_16DIRECT(TSE_B_TX_3MUX, ST_MUX_REG)));
						D(1, BUG("TSE_B_RX_3SPLITTER SET_TSE_B_LOOPBACK: 0x%04X\n",IORD_16DIRECT(TSE_B_RX_3SPLITTER, ST_SPLITTER_REG)));
   81d34:	010002f4 	movhi	r4,11
   81d38:	2132a104 	addi	r4,r4,-13692
   81d3c:	009c0e00 	call	9c0e0 <printf>

						SET_SWAP_B_TOGGLE |=0x01;//set swap ON
   81d40:	80c00003 	ldbu	r3,0(r16)
						D(1, BUG("\nSET_TSE_B_MAC_ADDR_SWAP(SET_SWAP_B_TOGGLE)\n"));
   81d44:	010002f4 	movhi	r4,11
   81d48:	2132ad04 	addi	r4,r4,-13644
						D(1, BUG("\nSET_TSE_B_LOOPBACK\n"));
						SET_TSE_B_LOOPBACK;
						D(1, BUG("MUX TSE_B_TX_3MUX SET_TSE_B_LOOPBACK: 0x%04X\n", IORD_16DIRECT(TSE_B_TX_3MUX, ST_MUX_REG)));
						D(1, BUG("TSE_B_RX_3SPLITTER SET_TSE_B_LOOPBACK: 0x%04X\n",IORD_16DIRECT(TSE_B_RX_3SPLITTER, ST_SPLITTER_REG)));

						SET_SWAP_B_TOGGLE |=0x01;//set swap ON
   81d4c:	18c00054 	ori	r3,r3,1
   81d50:	80c00005 	stb	r3,0(r16)
						D(1, BUG("\nSET_TSE_B_MAC_ADDR_SWAP(SET_SWAP_B_TOGGLE)\n"));
   81d54:	009c21c0 	call	9c21c <puts>
						SET_TSE_B_MAC_ADDR_SWAP(SET_SWAP_B_TOGGLE);
   81d58:	80c00003 	ldbu	r3,0(r16)
   81d5c:	00800634 	movhi	r2,24
   81d60:	10810004 	addi	r2,r2,1024
   81d64:	10c0002d 	sthio	r3,0(r2)
						D(1, BUG("B:ADDR_SWAPPER STATE: 0x%04X\n", IORD_16DIRECT(TSE_ADDR_SWAPPER_B_BASE, TSE_SWAPPER_REG)));
   81d68:	1140002b 	ldhuio	r5,0(r2)
   81d6c:	010002f4 	movhi	r4,11
   81d70:	2132b804 	addi	r4,r4,-13600
   81d74:	009c0e00 	call	9c0e0 <printf>
						D(1, BUG("\nSET_10G_NORMAL_TEST_MODE\n"));
   81d78:	010002f4 	movhi	r4,11
   81d7c:	2132c004 	addi	r4,r4,-13568
   81d80:	009c21c0 	call	9c21c <puts>
						SET_10G_NORMAL_TEST_MODE;
   81d84:	00cc0004 	movi	r3,12288
   81d88:	1800002d 	sthio	zero,0(r3)
   81d8c:	010d0004 	movi	r4,13312
   81d90:	2000002d 	sthio	zero,0(r4)
						D(1, BUG("MUX A10G_TX_3MUX SET_10G_NORMAL_TEST_MODE: 0x%04X\n", IORD_16DIRECT(A10G_TX_3MUX, ST_MUX_REG)));
   81d94:	1940002b 	ldhuio	r5,0(r3)
   81d98:	010002f4 	movhi	r4,11
   81d9c:	2132c704 	addi	r4,r4,-13540
   81da0:	009c0e00 	call	9c0e0 <printf>
						D(1, BUG("SET_10G_RX_3SPLITTER_TO_TMON SET_10G_NORMAL_TEST_MODE: 0x%04X\n", IORD_16DIRECT(A10G_RX_3SPLITTER, ST_SPLITTER_REG)));
   81da4:	008d0004 	movi	r2,13312
   81da8:	1140002b 	ldhuio	r5,0(r2)
   81dac:	010002f4 	movhi	r4,11
   81db0:	2132d404 	addi	r4,r4,-13488
   81db4:	009c0e00 	call	9c0e0 <printf>

						//we know GUI is taking A out of Promiscuous mode from 10G-link, we won't see A since we're in 10G so...
						MACA_COMMAND_CONFIG &= ~0x10; // force promiscuous mode off for A!
   81db8:	00c002f4 	movhi	r3,11
   81dbc:	18d90e04 	addi	r3,r3,25656
   81dc0:	18800017 	ldw	r2,0(r3)
   81dc4:	043ffbc4 	movi	r16,-17
						SaveBytesLong(ConfigStat,MAC_CONFIG3_ptr,MACA_COMMAND_CONFIG);
   81dc8:	01400184 	movi	r5,6
						SET_10G_NORMAL_TEST_MODE;
						D(1, BUG("MUX A10G_TX_3MUX SET_10G_NORMAL_TEST_MODE: 0x%04X\n", IORD_16DIRECT(A10G_TX_3MUX, ST_MUX_REG)));
						D(1, BUG("SET_10G_RX_3SPLITTER_TO_TMON SET_10G_NORMAL_TEST_MODE: 0x%04X\n", IORD_16DIRECT(A10G_RX_3SPLITTER, ST_SPLITTER_REG)));

						//we know GUI is taking A out of Promiscuous mode from 10G-link, we won't see A since we're in 10G so...
						MACA_COMMAND_CONFIG &= ~0x10; // force promiscuous mode off for A!
   81dcc:	1404703a 	and	r2,r2,r16
						SaveBytesLong(ConfigStat,MAC_CONFIG3_ptr,MACA_COMMAND_CONFIG);
   81dd0:	100d883a 	mov	r6,r2
						SET_10G_NORMAL_TEST_MODE;
						D(1, BUG("MUX A10G_TX_3MUX SET_10G_NORMAL_TEST_MODE: 0x%04X\n", IORD_16DIRECT(A10G_TX_3MUX, ST_MUX_REG)));
						D(1, BUG("SET_10G_RX_3SPLITTER_TO_TMON SET_10G_NORMAL_TEST_MODE: 0x%04X\n", IORD_16DIRECT(A10G_RX_3SPLITTER, ST_SPLITTER_REG)));

						//we know GUI is taking A out of Promiscuous mode from 10G-link, we won't see A since we're in 10G so...
						MACA_COMMAND_CONFIG &= ~0x10; // force promiscuous mode off for A!
   81dd4:	18800015 	stw	r2,0(r3)
						SaveBytesLong(ConfigStat,MAC_CONFIG3_ptr,MACA_COMMAND_CONFIG);
   81dd8:	01000334 	movhi	r4,12
   81ddc:	212d5b44 	addi	r4,r4,-19091
   81de0:	00894800 	call	89480 <SaveBytesLong>
						configure_tse_mac(TRIPLE_SPEED_ETHERNET_0_BASE);
   81de4:	01040004 	movi	r4,4096
   81de8:	00857ec0 	call	857ec <configure_tse_mac>
						configure_tse0_to_phya();	// run this after configuring the MAC
   81dec:	00862000 	call	86200 <configure_tse0_to_phya>

						//we know GUI is taking B out of Promiscuous mode from 10G-link, we won't see B since we're in 10G so...
						MACB_COMMAND_CONFIG &= ~0x10; // force promiscuous mode off for B!
   81df0:	00c002f4 	movhi	r3,11
   81df4:	18d90f04 	addi	r3,r3,25660
   81df8:	18800017 	ldw	r2,0(r3)
						SaveBytesLong(ConfigStatB,MAC_CONFIG3_ptr,MACB_COMMAND_CONFIG);
   81dfc:	01400184 	movi	r5,6
   81e00:	01000334 	movhi	r4,12
   81e04:	2121b204 	addi	r4,r4,-31032
						SaveBytesLong(ConfigStat,MAC_CONFIG3_ptr,MACA_COMMAND_CONFIG);
						configure_tse_mac(TRIPLE_SPEED_ETHERNET_0_BASE);
						configure_tse0_to_phya();	// run this after configuring the MAC

						//we know GUI is taking B out of Promiscuous mode from 10G-link, we won't see B since we're in 10G so...
						MACB_COMMAND_CONFIG &= ~0x10; // force promiscuous mode off for B!
   81e08:	1404703a 	and	r2,r2,r16
   81e0c:	18800015 	stw	r2,0(r3)
						SaveBytesLong(ConfigStatB,MAC_CONFIG3_ptr,MACB_COMMAND_CONFIG);
   81e10:	100d883a 	mov	r6,r2
   81e14:	00894800 	call	89480 <SaveBytesLong>
						configure_tse_mac(TRIPLE_SPEED_ETHERNET_1_BASE);
   81e18:	01090004 	movi	r4,9216
   81e1c:	00857ec0 	call	857ec <configure_tse_mac>
						configure_tse1_to_phyb();	// run this after configuring the MAC
   81e20:	00861880 	call	86188 <configure_tse1_to_phyb>

						ConfigStat10G[CORE_SIGROUTE_MODES_ptr] = RxBuffer[i];
   81e24:	98800003 	ldbu	r2,0(r19)
   81e28:	00c00334 	movhi	r3,12
   81e2c:	18ee3d84 	addi	r3,r3,-18186
   81e30:	18801045 	stb	r2,65(r3)
						configure_tse1_to_phyb();	// run this after configuring the MAC
						ConfigStat10G[CORE_SIGROUTE_MODES_ptr] = RxBuffer[i];
						}
					}//End LAN/WAN Mode changed

				if(((RxBuffer[i])&0x10) != ((ConfigStat10G[i])&0x10)){	//^4:0=Looped-test, 1=End-to-End test
   81e34:	a707883a 	add	r3,r20,fp
   81e38:	a5c9883a 	add	r4,r20,r23
   81e3c:	19400003 	ldbu	r5,0(r3)
   81e40:	20800003 	ldbu	r2,0(r4)
   81e44:	04000334 	movhi	r16,12
   81e48:	842e3d84 	addi	r16,r16,-18186
   81e4c:	2940040c 	andi	r5,r5,16
   81e50:	1080040c 	andi	r2,r2,16
   81e54:	28800f26 	beq	r5,r2,81e94 <config_hardware10G+0x5c0>
					if((RxBuffer[i] & 0x10) == 0x10){
   81e58:	28039026 	beq	r5,zero,82c9c <config_hardware10G+0x13c8>
						EMON_TIMEOUT = 100;		// 10seconds (100 *100mS) for end-to-end tests
   81e5c:	00c01904 	movi	r3,100
   81e60:	008002f4 	movhi	r2,11
   81e64:	10990944 	addi	r2,r2,25637
   81e68:	10c00005 	stb	r3,0(r2)
						END_TO_END_TEST = YES;
   81e6c:	01400044 	movi	r5,1
   81e70:	008002f4 	movhi	r2,11
   81e74:	109a08c4 	addi	r2,r2,26659
						D(1, BUG("\nEnd-to-End test\n"));
   81e78:	010002f4 	movhi	r4,11
   81e7c:	21338004 	addi	r4,r4,-12800
					}//End LAN/WAN Mode changed

				if(((RxBuffer[i])&0x10) != ((ConfigStat10G[i])&0x10)){	//^4:0=Looped-test, 1=End-to-End test
					if((RxBuffer[i] & 0x10) == 0x10){
						EMON_TIMEOUT = 100;		// 10seconds (100 *100mS) for end-to-end tests
						END_TO_END_TEST = YES;
   81e80:	11400005 	stb	r5,0(r2)
						D(1, BUG("\nEnd-to-End test\n"));
   81e84:	009c21c0 	call	9c21c <puts>
						ConfigStat10G[CORE_SIGROUTE_MODES_ptr] |= 0x10;	// maintain bit states across A, B (10G has it's own flag)
   81e88:	80c01043 	ldbu	r3,65(r16)
   81e8c:	18c00414 	ori	r3,r3,16
   81e90:	80c01045 	stb	r3,65(r16)
						ConfigStat10G[CORE_SIGROUTE_MODES_ptr] &= ~0x10;	// maintain bit states across A, B (10G has it's own flag)
						}
					}

				//***** 10G LOOPBACK Enable/disable **************************************
				if(((RxBuffer[i])&0x20) != ((ConfigStat10G[i])&0x20)){	//^5:0=10G_Loopback OFF, 1=Loopback ON
   81e94:	a707883a 	add	r3,r20,fp
   81e98:	a5c9883a 	add	r4,r20,r23
   81e9c:	19400003 	ldbu	r5,0(r3)
   81ea0:	20800003 	ldbu	r2,0(r4)
   81ea4:	04000334 	movhi	r16,12
   81ea8:	842e3d84 	addi	r16,r16,-18186
   81eac:	2940080c 	andi	r5,r5,32
   81eb0:	1080080c 	andi	r2,r2,32
   81eb4:	28804c26 	beq	r5,r2,81fe8 <config_hardware10G+0x714>
					if((RxBuffer[i] & 0x20) == 0x20){	// Loopback ON
   81eb8:	28032d26 	beq	r5,zero,82b70 <config_hardware10G+0x129c>
						D(1, BUG("\nEnable LPBK\n"));
   81ebc:	010002f4 	movhi	r4,11
   81ec0:	21338904 	addi	r4,r4,-12764
   81ec4:	009c21c0 	call	9c21c <puts>
						SET_10G_TX_TO_NW_LOOPBACK;		// Enable LPBK
   81ec8:	04400084 	movi	r17,2
   81ecc:	014c0004 	movi	r5,12288
   81ed0:	2c40002d 	sthio	r17,0(r5)
						SET_10G_RX_3SPLITTER_TO_10G_TX;
   81ed4:	008d0004 	movi	r2,13312
   81ed8:	1440002d 	sthio	r17,0(r2)
						D(1, BUG("10GA:MUX STATE: 0x%04X\n (3=disabled,0=enabled)", IORD_16DIRECT(MUX31_ST_10GE_BASE, ST_MUX_REG)));
   81edc:	2940002b 	ldhuio	r5,0(r5)
   81ee0:	010002f4 	movhi	r4,11
   81ee4:	21338d04 	addi	r4,r4,-12748
   81ee8:	009c0e00 	call	9c0e0 <printf>
						D(1, BUG("10GA:SPLITTER STATE: 0x%04X\n", IORD_16DIRECT(GUISYS_AVALON_ST_SPLITTER_0_BASE, ST_SPLITTER_REG)));
   81eec:	010d0004 	movi	r4,13312
   81ef0:	2140002b 	ldhuio	r5,0(r4)
   81ef4:	010002f4 	movhi	r4,11
   81ef8:	21339904 	addi	r4,r4,-12700
   81efc:	009c0e00 	call	9c0e0 <printf>
						ConfigStat10G[CORE_SIGROUTE_MODES_ptr] |=0x20;

						SET_SWAP_10GA_TOGGLE |= 0x08; 	// also tell swapper we're in lpbk
   81f00:	014002f4 	movhi	r5,11
   81f04:	295a2544 	addi	r5,r5,26773
   81f08:	28c00003 	ldbu	r3,0(r5)
						D(1, BUG("\nEnable LPBK\n"));
						SET_10G_TX_TO_NW_LOOPBACK;		// Enable LPBK
						SET_10G_RX_3SPLITTER_TO_10G_TX;
						D(1, BUG("10GA:MUX STATE: 0x%04X\n (3=disabled,0=enabled)", IORD_16DIRECT(MUX31_ST_10GE_BASE, ST_MUX_REG)));
						D(1, BUG("10GA:SPLITTER STATE: 0x%04X\n", IORD_16DIRECT(GUISYS_AVALON_ST_SPLITTER_0_BASE, ST_SPLITTER_REG)));
						ConfigStat10G[CORE_SIGROUTE_MODES_ptr] |=0x20;
   81f0c:	80801043 	ldbu	r2,65(r16)

						SET_SWAP_10GA_TOGGLE |= 0x08; 	// also tell swapper we're in lpbk
   81f10:	18c00214 	ori	r3,r3,8
						D(1, BUG("\nEnable LPBK\n"));
						SET_10G_TX_TO_NW_LOOPBACK;		// Enable LPBK
						SET_10G_RX_3SPLITTER_TO_10G_TX;
						D(1, BUG("10GA:MUX STATE: 0x%04X\n (3=disabled,0=enabled)", IORD_16DIRECT(MUX31_ST_10GE_BASE, ST_MUX_REG)));
						D(1, BUG("10GA:SPLITTER STATE: 0x%04X\n", IORD_16DIRECT(GUISYS_AVALON_ST_SPLITTER_0_BASE, ST_SPLITTER_REG)));
						ConfigStat10G[CORE_SIGROUTE_MODES_ptr] |=0x20;
   81f14:	10800814 	ori	r2,r2,32
   81f18:	80801045 	stb	r2,65(r16)

						SET_SWAP_10GA_TOGGLE |= 0x08; 	// also tell swapper we're in lpbk
						SET_10GA_MAC_ADDR_SWAP(SET_SWAP_10GA_TOGGLE);
   81f1c:	19003fcc 	andi	r4,r3,255
   81f20:	00800634 	movhi	r2,24
   81f24:	10820004 	addi	r2,r2,2048
						SET_10G_RX_3SPLITTER_TO_10G_TX;
						D(1, BUG("10GA:MUX STATE: 0x%04X\n (3=disabled,0=enabled)", IORD_16DIRECT(MUX31_ST_10GE_BASE, ST_MUX_REG)));
						D(1, BUG("10GA:SPLITTER STATE: 0x%04X\n", IORD_16DIRECT(GUISYS_AVALON_ST_SPLITTER_0_BASE, ST_SPLITTER_REG)));
						ConfigStat10G[CORE_SIGROUTE_MODES_ptr] |=0x20;

						SET_SWAP_10GA_TOGGLE |= 0x08; 	// also tell swapper we're in lpbk
   81f28:	28c00005 	stb	r3,0(r5)
						SET_10GA_MAC_ADDR_SWAP(SET_SWAP_10GA_TOGGLE);
   81f2c:	1100002d 	sthio	r4,0(r2)
						D(1, BUG("10A:SET_SWAP_10GA_TOGGLE STATE - LPBK ON: 0x%02X\n",SET_SWAP_10GA_TOGGLE));
   81f30:	29400003 	ldbu	r5,0(r5)
   81f34:	010002f4 	movhi	r4,11
   81f38:	2133a104 	addi	r4,r4,-12668
   81f3c:	009c0e00 	call	9c0e0 <printf>
						D(1, BUG("10A:ADDR_SWAPPER STATE - LPBK ON: 0x%04X\n", IORD_16DIRECT(SWAPPER64_10G_BASE, TSE_SWAPPER_REG)));
   81f40:	01000634 	movhi	r4,24
   81f44:	21020004 	addi	r4,r4,2048
   81f48:	2140002b 	ldhuio	r5,0(r4)
   81f4c:	010002f4 	movhi	r4,11
   81f50:	2133ae04 	addi	r4,r4,-12616
   81f54:	009c0e00 	call	9c0e0 <printf>

						//SET_10GLOOPPATH_CLOCKMUX_TO_RCVRD; //test inside init_10G_MAC()
						//init_10G_MAC();

						D(1, BUG("\nSetting PHY TxClk to FTX_LTIME_EN...(use Recovered Clock)\n"));
   81f58:	010002f4 	movhi	r4,11
   81f5c:	2133b904 	addi	r4,r4,-12572
   81f60:	009c21c0 	call	9c21c <puts>
						write_ext_10G_phy(0xC001, 1, (read_ext_10G_phy(0xC001, 1))|0x0200); // set FTX_LTIME_EN ON - to use Recovered Clock as Tx Clock
   81f64:	01400044 	movi	r5,1
   81f68:	01300054 	movui	r4,49153
   81f6c:	0086cf80 	call	86cf8 <read_ext_10G_phy>
   81f70:	11808014 	ori	r6,r2,512
   81f74:	01300054 	movui	r4,49153
   81f78:	01400044 	movi	r5,1
   81f7c:	0086f0c0 	call	86f0c <write_ext_10G_phy>


						//init_10G_SC_FIFO(ETH_10G_SCFIFO_STORE_FORWARD);	//init & set RxFIFO to Store & Fwd Mode for Lpbk
						if (SFP_10G_PRESENT) {
   81f80:	008002f4 	movhi	r2,11
   81f84:	109a0b04 	addi	r2,r2,26668
   81f88:	10c00003 	ldbu	r3,0(r2)
   81f8c:	18001226 	beq	r3,zero,81fd8 <config_hardware10G+0x704>
							set_reset_10GMAC_FIFOS();
   81f90:	0086c180 	call	86c18 <set_reset_10GMAC_FIFOS>
							SET_10GLOOPPATH_CLOCKMUX_TO_RCVRD;
   81f94:	0086e804 	movi	r2,7072
   81f98:	14400025 	stbio	r17,0(r2)
							D(1, BUG("SWITCHING TO RCVRD\n"));
   81f9c:	010002f4 	movhi	r4,11
   81fa0:	2133c804 	addi	r4,r4,-12512
   81fa4:	009c21c0 	call	9c21c <puts>
							usleep(1);
   81fa8:	01000044 	movi	r4,1
   81fac:	00a4d480 	call	a4d48 <usleep>
							clear_reset_10GMAC_FIFOS();
   81fb0:	0086bf80 	call	86bf8 <clear_reset_10GMAC_FIFOS>
							init_10G_MAC();
   81fb4:	00881280 	call	88128 <init_10G_MAC>
							init_10G_SC_FIFO(ETH_10G_SCFIFO_STORE_FORWARD);
   81fb8:	0009883a 	mov	r4,zero
   81fbc:	00873540 	call	87354 <init_10G_SC_FIFO>
							int reg_val = IORD_32DIRECT(ETH_10G_DESIGN_EXAMPLE_0_BASE|ETH_10G_XAUI_BASE_ADDR, XAUI_RESET_AUTO_CONTROLSTAT);
   81fc0:	00c00534 	movhi	r3,20
